
AVRASM ver. 2.1.30  C:\Users\Viktor\Documents\Projekte\Bluematics Robby\BlueMatics-Robby\Roboterprojekt-avr\Debug\List\project.asm Tue Jan 09 22:28:38 2018

C:\Users\Viktor\Documents\Projekte\Bluematics Robby\BlueMatics-Robby\Roboterprojekt-avr\Debug\List\project.asm(1090): warning: Register r4 already defined by the .DEF directive
C:\Users\Viktor\Documents\Projekte\Bluematics Robby\BlueMatics-Robby\Roboterprojekt-avr\Debug\List\project.asm(1091): warning: Register r5 already defined by the .DEF directive
C:\Users\Viktor\Documents\Projekte\Bluematics Robby\BlueMatics-Robby\Roboterprojekt-avr\Debug\List\project.asm(1092): warning: Register r6 already defined by the .DEF directive
C:\Users\Viktor\Documents\Projekte\Bluematics Robby\BlueMatics-Robby\Roboterprojekt-avr\Debug\List\project.asm(1093): warning: Register r7 already defined by the .DEF directive
C:\Users\Viktor\Documents\Projekte\Bluematics Robby\BlueMatics-Robby\Roboterprojekt-avr\Debug\List\project.asm(1094): warning: Register r8 already defined by the .DEF directive
C:\Users\Viktor\Documents\Projekte\Bluematics Robby\BlueMatics-Robby\Roboterprojekt-avr\Debug\List\project.asm(1095): warning: Register r9 already defined by the .DEF directive
C:\Users\Viktor\Documents\Projekte\Bluematics Robby\BlueMatics-Robby\Roboterprojekt-avr\Debug\List\project.asm(1096): warning: Register r10 already defined by the .DEF directive
C:\Users\Viktor\Documents\Projekte\Bluematics Robby\BlueMatics-Robby\Roboterprojekt-avr\Debug\List\project.asm(1097): warning: Register r11 already defined by the .DEF directive
C:\Users\Viktor\Documents\Projekte\Bluematics Robby\BlueMatics-Robby\Roboterprojekt-avr\Debug\List\project.asm(1098): warning: Register r12 already defined by the .DEF directive
C:\Users\Viktor\Documents\Projekte\Bluematics Robby\BlueMatics-Robby\Roboterprojekt-avr\Debug\List\project.asm(1099): warning: Register r13 already defined by the .DEF directive
                 
                 
                 ;CodeVisionAVR C Compiler V3.12 Advanced
                 ;(C) Copyright 1998-2014 Pavel Haiduc, HP InfoTech s.r.l.
                 ;http://www.hpinfotech.com
                 
                 ;Build configuration    : Debug
                 ;Chip type              : ATmega128
                 ;Program type           : Application
                 ;Clock frequency        : 16,000000 MHz
                 ;Memory model           : Small
                 ;Optimize for           : Size
                 ;(s)printf features     : int, width
                 ;(s)scanf features      : int, width
                 ;External RAM size      : 0
                 ;Data Stack size        : 1024 byte(s)
                 ;Heap size              : 0 byte(s)
                 ;Promote 'char' to 'int': Yes
                 ;'char' is unsigned     : Yes
                 ;8 bit enums            : Yes
                 ;Global 'const' stored in FLASH: Yes
                 ;Enhanced function parameter passing: Yes
                 ;Enhanced core instructions: On
                 ;Automatic register allocation for global variables: On
                 ;Smart register allocation: On
                 
                 	#define _MODEL_SMALL_
                 
                 	#pragma AVRPART ADMIN PART_NAME ATmega128
                 	#pragma AVRPART MEMORY PROG_FLASH 131072
                 	#pragma AVRPART MEMORY EEPROM 4096
                 	#pragma AVRPART MEMORY INT_SRAM SIZE 4096
                 	#pragma AVRPART MEMORY INT_SRAM START_ADDR 0x100
                 
                 	#define CALL_SUPPORTED 1
                 
                 	.LISTMAC
                 	.EQU UDRE=0x5
                 	.EQU RXC=0x7
                 	.EQU USR=0xB
                 	.EQU UDR=0xC
                 	.EQU SPSR=0xE
                 	.EQU SPDR=0xF
                 	.EQU EERE=0x0
                 	.EQU EEWE=0x1
                 	.EQU EEMWE=0x2
                 	.EQU EECR=0x1C
                 	.EQU EEDR=0x1D
                 	.EQU EEARL=0x1E
                 	.EQU EEARH=0x1F
                 	.EQU WDTCR=0x21
                 	.EQU MCUCR=0x35
                 	.EQU RAMPZ=0x3B
                 	.EQU SPL=0x3D
                 	.EQU SPH=0x3E
                 	.EQU SREG=0x3F
                 	.EQU XMCRA=0x6D
                 	.EQU XMCRB=0x6C
                 
                 	.DEF R0X0=R0
                 	.DEF R0X1=R1
                 	.DEF R0X2=R2
                 	.DEF R0X3=R3
                 	.DEF R0X4=R4
                 	.DEF R0X5=R5
                 	.DEF R0X6=R6
                 	.DEF R0X7=R7
                 	.DEF R0X8=R8
                 	.DEF R0X9=R9
                 	.DEF R0XA=R10
                 	.DEF R0XB=R11
                 	.DEF R0XC=R12
                 	.DEF R0XD=R13
                 	.DEF R0XE=R14
                 	.DEF R0XF=R15
                 	.DEF R0X10=R16
                 	.DEF R0X11=R17
                 	.DEF R0X12=R18
                 	.DEF R0X13=R19
                 	.DEF R0X14=R20
                 	.DEF R0X15=R21
                 	.DEF R0X16=R22
                 	.DEF R0X17=R23
                 	.DEF R0X18=R24
                 	.DEF R0X19=R25
                 	.DEF R0X1A=R26
                 	.DEF R0X1B=R27
                 	.DEF R0X1C=R28
                 	.DEF R0X1D=R29
                 	.DEF R0X1E=R30
                 	.DEF R0X1F=R31
                 
                 	.EQU __SRAM_START=0x0100
                 	.EQU __SRAM_END=0x10FF
                 	.EQU __DSTACK_SIZE=0x0400
                 	.EQU __HEAP_SIZE=0x0000
                 	.EQU __CLEAR_SRAM_SIZE=__SRAM_END-__SRAM_START+1
                 
                 	.MACRO __CPD1N
                 	CPI  R30,LOW(@0)
                 	LDI  R26,HIGH(@0)
                 	CPC  R31,R26
                 	LDI  R26,BYTE3(@0)
                 	CPC  R22,R26
                 	LDI  R26,BYTE4(@0)
                 	CPC  R23,R26
                 	.ENDM
                 
                 	.MACRO __CPD2N
                 	CPI  R26,LOW(@0)
                 	LDI  R30,HIGH(@0)
                 	CPC  R27,R30
                 	LDI  R30,BYTE3(@0)
                 	CPC  R24,R30
                 	LDI  R30,BYTE4(@0)
                 	CPC  R25,R30
                 	.ENDM
                 
                 	.MACRO __CPWRR
                 	CP   R@0,R@2
                 	CPC  R@1,R@3
                 	.ENDM
                 
                 	.MACRO __CPWRN
                 	CPI  R@0,LOW(@2)
                 	LDI  R30,HIGH(@2)
                 	CPC  R@1,R30
                 	.ENDM
                 
                 	.MACRO __ADDB1MN
                 	SUBI R30,LOW(-@0-(@1))
                 	.ENDM
                 
                 	.MACRO __ADDB2MN
                 	SUBI R26,LOW(-@0-(@1))
                 	.ENDM
                 
                 	.MACRO __ADDW1MN
                 	SUBI R30,LOW(-@0-(@1))
                 	SBCI R31,HIGH(-@0-(@1))
                 	.ENDM
                 
                 	.MACRO __ADDW2MN
                 	SUBI R26,LOW(-@0-(@1))
                 	SBCI R27,HIGH(-@0-(@1))
                 	.ENDM
                 
                 	.MACRO __ADDW1FN
                 	SUBI R30,LOW(-2*@0-(@1))
                 	SBCI R31,HIGH(-2*@0-(@1))
                 	.ENDM
                 
                 	.MACRO __ADDD1FN
                 	SUBI R30,LOW(-2*@0-(@1))
                 	SBCI R31,HIGH(-2*@0-(@1))
                 	SBCI R22,BYTE3(-2*@0-(@1))
                 	.ENDM
                 
                 	.MACRO __ADDD1N
                 	SUBI R30,LOW(-@0)
                 	SBCI R31,HIGH(-@0)
                 	SBCI R22,BYTE3(-@0)
                 	SBCI R23,BYTE4(-@0)
                 	.ENDM
                 
                 	.MACRO __ADDD2N
                 	SUBI R26,LOW(-@0)
                 	SBCI R27,HIGH(-@0)
                 	SBCI R24,BYTE3(-@0)
                 	SBCI R25,BYTE4(-@0)
                 	.ENDM
                 
                 	.MACRO __SUBD1N
                 	SUBI R30,LOW(@0)
                 	SBCI R31,HIGH(@0)
                 	SBCI R22,BYTE3(@0)
                 	SBCI R23,BYTE4(@0)
                 	.ENDM
                 
                 	.MACRO __SUBD2N
                 	SUBI R26,LOW(@0)
                 	SBCI R27,HIGH(@0)
                 	SBCI R24,BYTE3(@0)
                 	SBCI R25,BYTE4(@0)
                 	.ENDM
                 
                 	.MACRO __ANDBMNN
                 	LDS  R30,@0+(@1)
                 	ANDI R30,LOW(@2)
                 	STS  @0+(@1),R30
                 	.ENDM
                 
                 	.MACRO __ANDWMNN
                 	LDS  R30,@0+(@1)
                 	ANDI R30,LOW(@2)
                 	STS  @0+(@1),R30
                 	LDS  R30,@0+(@1)+1
                 	ANDI R30,HIGH(@2)
                 	STS  @0+(@1)+1,R30
                 	.ENDM
                 
                 	.MACRO __ANDD1N
                 	ANDI R30,LOW(@0)
                 	ANDI R31,HIGH(@0)
                 	ANDI R22,BYTE3(@0)
                 	ANDI R23,BYTE4(@0)
                 	.ENDM
                 
                 	.MACRO __ANDD2N
                 	ANDI R26,LOW(@0)
                 	ANDI R27,HIGH(@0)
                 	ANDI R24,BYTE3(@0)
                 	ANDI R25,BYTE4(@0)
                 	.ENDM
                 
                 	.MACRO __ORBMNN
                 	LDS  R30,@0+(@1)
                 	ORI  R30,LOW(@2)
                 	STS  @0+(@1),R30
                 	.ENDM
                 
                 	.MACRO __ORWMNN
                 	LDS  R30,@0+(@1)
                 	ORI  R30,LOW(@2)
                 	STS  @0+(@1),R30
                 	LDS  R30,@0+(@1)+1
                 	ORI  R30,HIGH(@2)
                 	STS  @0+(@1)+1,R30
                 	.ENDM
                 
                 	.MACRO __ORD1N
                 	ORI  R30,LOW(@0)
                 	ORI  R31,HIGH(@0)
                 	ORI  R22,BYTE3(@0)
                 	ORI  R23,BYTE4(@0)
                 	.ENDM
                 
                 	.MACRO __ORD2N
                 	ORI  R26,LOW(@0)
                 	ORI  R27,HIGH(@0)
                 	ORI  R24,BYTE3(@0)
                 	ORI  R25,BYTE4(@0)
                 	.ENDM
                 
                 	.MACRO __DELAY_USB
                 	LDI  R24,LOW(@0)
                 __DELAY_USB_LOOP:
                 	DEC  R24
                 	BRNE __DELAY_USB_LOOP
                 	.ENDM
                 
                 	.MACRO __DELAY_USW
                 	LDI  R24,LOW(@0)
                 	LDI  R25,HIGH(@0)
                 __DELAY_USW_LOOP:
                 	SBIW R24,1
                 	BRNE __DELAY_USW_LOOP
                 	.ENDM
                 
                 	.MACRO __GETD1S
                 	LDD  R30,Y+@0
                 	LDD  R31,Y+@0+1
                 	LDD  R22,Y+@0+2
                 	LDD  R23,Y+@0+3
                 	.ENDM
                 
                 	.MACRO __GETD2S
                 	LDD  R26,Y+@0
                 	LDD  R27,Y+@0+1
                 	LDD  R24,Y+@0+2
                 	LDD  R25,Y+@0+3
                 	.ENDM
                 
                 	.MACRO __PUTD1S
                 	STD  Y+@0,R30
                 	STD  Y+@0+1,R31
                 	STD  Y+@0+2,R22
                 	STD  Y+@0+3,R23
                 	.ENDM
                 
                 	.MACRO __PUTD2S
                 	STD  Y+@0,R26
                 	STD  Y+@0+1,R27
                 	STD  Y+@0+2,R24
                 	STD  Y+@0+3,R25
                 	.ENDM
                 
                 	.MACRO __PUTDZ2
                 	STD  Z+@0,R26
                 	STD  Z+@0+1,R27
                 	STD  Z+@0+2,R24
                 	STD  Z+@0+3,R25
                 	.ENDM
                 
                 	.MACRO __CLRD1S
                 	STD  Y+@0,R30
                 	STD  Y+@0+1,R30
                 	STD  Y+@0+2,R30
                 	STD  Y+@0+3,R30
                 	.ENDM
                 
                 	.MACRO __POINTB1MN
                 	LDI  R30,LOW(@0+(@1))
                 	.ENDM
                 
                 	.MACRO __POINTW1MN
                 	LDI  R30,LOW(@0+(@1))
                 	LDI  R31,HIGH(@0+(@1))
                 	.ENDM
                 
                 	.MACRO __POINTD1M
                 	LDI  R30,LOW(@0)
                 	LDI  R31,HIGH(@0)
                 	LDI  R22,BYTE3(@0)
                 	LDI  R23,BYTE4(@0)
                 	.ENDM
                 
                 	.MACRO __POINTW1FN
                 	LDI  R30,LOW(2*@0+(@1))
                 	LDI  R31,HIGH(2*@0+(@1))
                 	.ENDM
                 
                 	.MACRO __POINTD1FN
                 	LDI  R30,LOW(2*@0+(@1))
                 	LDI  R31,HIGH(2*@0+(@1))
                 	LDI  R22,BYTE3(2*@0+(@1))
                 	LDI  R23,BYTE4(2*@0+(@1))
                 	.ENDM
                 
                 	.MACRO __POINTB2MN
                 	LDI  R26,LOW(@0+(@1))
                 	.ENDM
                 
                 	.MACRO __POINTW2MN
                 	LDI  R26,LOW(@0+(@1))
                 	LDI  R27,HIGH(@0+(@1))
                 	.ENDM
                 
                 	.MACRO __POINTW2FN
                 	LDI  R26,LOW(2*@0+(@1))
                 	LDI  R27,HIGH(2*@0+(@1))
                 	.ENDM
                 
                 	.MACRO __POINTD2FN
                 	LDI  R26,LOW(2*@0+(@1))
                 	LDI  R27,HIGH(2*@0+(@1))
                 	LDI  R24,BYTE3(2*@0+(@1))
                 	LDI  R25,BYTE4(2*@0+(@1))
                 	.ENDM
                 
                 	.MACRO __POINTBRM
                 	LDI  R@0,LOW(@1)
                 	.ENDM
                 
                 	.MACRO __POINTWRM
                 	LDI  R@0,LOW(@2)
                 	LDI  R@1,HIGH(@2)
                 	.ENDM
                 
                 	.MACRO __POINTBRMN
                 	LDI  R@0,LOW(@1+(@2))
                 	.ENDM
                 
                 	.MACRO __POINTWRMN
                 	LDI  R@0,LOW(@2+(@3))
                 	LDI  R@1,HIGH(@2+(@3))
                 	.ENDM
                 
                 	.MACRO __POINTWRFN
                 	LDI  R@0,LOW(@2*2+(@3))
                 	LDI  R@1,HIGH(@2*2+(@3))
                 	.ENDM
                 
                 	.MACRO __GETD1N
                 	LDI  R30,LOW(@0)
                 	LDI  R31,HIGH(@0)
                 	LDI  R22,BYTE3(@0)
                 	LDI  R23,BYTE4(@0)
                 	.ENDM
                 
                 	.MACRO __GETD2N
                 	LDI  R26,LOW(@0)
                 	LDI  R27,HIGH(@0)
                 	LDI  R24,BYTE3(@0)
                 	LDI  R25,BYTE4(@0)
                 	.ENDM
                 
                 	.MACRO __GETB1MN
                 	LDS  R30,@0+(@1)
                 	.ENDM
                 
                 	.MACRO __GETB1HMN
                 	LDS  R31,@0+(@1)
                 	.ENDM
                 
                 	.MACRO __GETW1MN
                 	LDS  R30,@0+(@1)
                 	LDS  R31,@0+(@1)+1
                 	.ENDM
                 
                 	.MACRO __GETD1MN
                 	LDS  R30,@0+(@1)
                 	LDS  R31,@0+(@1)+1
                 	LDS  R22,@0+(@1)+2
                 	LDS  R23,@0+(@1)+3
                 	.ENDM
                 
                 	.MACRO __GETBRMN
                 	LDS  R@0,@1+(@2)
                 	.ENDM
                 
                 	.MACRO __GETWRMN
                 	LDS  R@0,@2+(@3)
                 	LDS  R@1,@2+(@3)+1
                 	.ENDM
                 
                 	.MACRO __GETWRZ
                 	LDD  R@0,Z+@2
                 	LDD  R@1,Z+@2+1
                 	.ENDM
                 
                 	.MACRO __GETD2Z
                 	LDD  R26,Z+@0
                 	LDD  R27,Z+@0+1
                 	LDD  R24,Z+@0+2
                 	LDD  R25,Z+@0+3
                 	.ENDM
                 
                 	.MACRO __GETB2MN
                 	LDS  R26,@0+(@1)
                 	.ENDM
                 
                 	.MACRO __GETW2MN
                 	LDS  R26,@0+(@1)
                 	LDS  R27,@0+(@1)+1
                 	.ENDM
                 
                 	.MACRO __GETD2MN
                 	LDS  R26,@0+(@1)
                 	LDS  R27,@0+(@1)+1
                 	LDS  R24,@0+(@1)+2
                 	LDS  R25,@0+(@1)+3
                 	.ENDM
                 
                 	.MACRO __PUTB1MN
                 	STS  @0+(@1),R30
                 	.ENDM
                 
                 	.MACRO __PUTW1MN
                 	STS  @0+(@1),R30
                 	STS  @0+(@1)+1,R31
                 	.ENDM
                 
                 	.MACRO __PUTD1MN
                 	STS  @0+(@1),R30
                 	STS  @0+(@1)+1,R31
                 	STS  @0+(@1)+2,R22
                 	STS  @0+(@1)+3,R23
                 	.ENDM
                 
                 	.MACRO __PUTB1EN
                 	LDI  R26,LOW(@0+(@1))
                 	LDI  R27,HIGH(@0+(@1))
                 	CALL __EEPROMWRB
                 	.ENDM
                 
                 	.MACRO __PUTW1EN
                 	LDI  R26,LOW(@0+(@1))
                 	LDI  R27,HIGH(@0+(@1))
                 	CALL __EEPROMWRW
                 	.ENDM
                 
                 	.MACRO __PUTD1EN
                 	LDI  R26,LOW(@0+(@1))
                 	LDI  R27,HIGH(@0+(@1))
                 	CALL __EEPROMWRD
                 	.ENDM
                 
                 	.MACRO __PUTBR0MN
                 	STS  @0+(@1),R0
                 	.ENDM
                 
                 	.MACRO __PUTBMRN
                 	STS  @0+(@1),R@2
                 	.ENDM
                 
                 	.MACRO __PUTWMRN
                 	STS  @0+(@1),R@2
                 	STS  @0+(@1)+1,R@3
                 	.ENDM
                 
                 	.MACRO __PUTBZR
                 	STD  Z+@1,R@0
                 	.ENDM
                 
                 	.MACRO __PUTWZR
                 	STD  Z+@2,R@0
                 	STD  Z+@2+1,R@1
                 	.ENDM
                 
                 	.MACRO __GETW1R
                 	MOV  R30,R@0
                 	MOV  R31,R@1
                 	.ENDM
                 
                 	.MACRO __GETW2R
                 	MOV  R26,R@0
                 	MOV  R27,R@1
                 	.ENDM
                 
                 	.MACRO __GETWRN
                 	LDI  R@0,LOW(@2)
                 	LDI  R@1,HIGH(@2)
                 	.ENDM
                 
                 	.MACRO __PUTW1R
                 	MOV  R@0,R30
                 	MOV  R@1,R31
                 	.ENDM
                 
                 	.MACRO __PUTW2R
                 	MOV  R@0,R26
                 	MOV  R@1,R27
                 	.ENDM
                 
                 	.MACRO __ADDWRN
                 	SUBI R@0,LOW(-@2)
                 	SBCI R@1,HIGH(-@2)
                 	.ENDM
                 
                 	.MACRO __ADDWRR
                 	ADD  R@0,R@2
                 	ADC  R@1,R@3
                 	.ENDM
                 
                 	.MACRO __SUBWRN
                 	SUBI R@0,LOW(@2)
                 	SBCI R@1,HIGH(@2)
                 	.ENDM
                 
                 	.MACRO __SUBWRR
                 	SUB  R@0,R@2
                 	SBC  R@1,R@3
                 	.ENDM
                 
                 	.MACRO __ANDWRN
                 	ANDI R@0,LOW(@2)
                 	ANDI R@1,HIGH(@2)
                 	.ENDM
                 
                 	.MACRO __ANDWRR
                 	AND  R@0,R@2
                 	AND  R@1,R@3
                 	.ENDM
                 
                 	.MACRO __ORWRN
                 	ORI  R@0,LOW(@2)
                 	ORI  R@1,HIGH(@2)
                 	.ENDM
                 
                 	.MACRO __ORWRR
                 	OR   R@0,R@2
                 	OR   R@1,R@3
                 	.ENDM
                 
                 	.MACRO __EORWRR
                 	EOR  R@0,R@2
                 	EOR  R@1,R@3
                 	.ENDM
                 
                 	.MACRO __GETWRS
                 	LDD  R@0,Y+@2
                 	LDD  R@1,Y+@2+1
                 	.ENDM
                 
                 	.MACRO __PUTBSR
                 	STD  Y+@1,R@0
                 	.ENDM
                 
                 	.MACRO __PUTWSR
                 	STD  Y+@2,R@0
                 	STD  Y+@2+1,R@1
                 	.ENDM
                 
                 	.MACRO __MOVEWRR
                 	MOV  R@0,R@2
                 	MOV  R@1,R@3
                 	.ENDM
                 
                 	.MACRO __INWR
                 	IN   R@0,@2
                 	IN   R@1,@2+1
                 	.ENDM
                 
                 	.MACRO __OUTWR
                 	OUT  @2+1,R@1
                 	OUT  @2,R@0
                 	.ENDM
                 
                 	.MACRO __CALL1MN
                 	LDS  R30,@0+(@1)
                 	LDS  R31,@0+(@1)+1
                 	ICALL
                 	.ENDM
                 
                 	.MACRO __CALL1FN
                 	LDI  R30,LOW(2*@0+(@1))
                 	LDI  R31,HIGH(2*@0+(@1))
                 	CALL __GETW1PF
                 	ICALL
                 	.ENDM
                 
                 	.MACRO __CALL2EN
                 	PUSH R26
                 	PUSH R27
                 	LDI  R26,LOW(@0+(@1))
                 	LDI  R27,HIGH(@0+(@1))
                 	CALL __EEPROMRDW
                 	POP  R27
                 	POP  R26
                 	ICALL
                 	.ENDM
                 
                 	.MACRO __CALL2EX
                 	SUBI R26,LOW(-@0)
                 	SBCI R27,HIGH(-@0)
                 	CALL __EEPROMRDD
                 	ICALL
                 	.ENDM
                 
                 	.MACRO __GETW1STACK
                 	IN   R30,SPL
                 	IN   R31,SPH
                 	ADIW R30,@0+1
                 	LD   R0,Z+
                 	LD   R31,Z
                 	MOV  R30,R0
                 	.ENDM
                 
                 	.MACRO __GETD1STACK
                 	IN   R30,SPL
                 	IN   R31,SPH
                 	ADIW R30,@0+1
                 	LD   R0,Z+
                 	LD   R1,Z+
                 	LD   R22,Z
                 	MOVW R30,R0
                 	.ENDM
                 
                 	.MACRO __NBST
                 	BST  R@0,@1
                 	IN   R30,SREG
                 	LDI  R31,0x40
                 	EOR  R30,R31
                 	OUT  SREG,R30
                 	.ENDM
                 
                 
                 	.MACRO __PUTB1SN
                 	LDD  R26,Y+@0
                 	LDD  R27,Y+@0+1
                 	SUBI R26,LOW(-@1)
                 	SBCI R27,HIGH(-@1)
                 	ST   X,R30
                 	.ENDM
                 
                 	.MACRO __PUTW1SN
                 	LDD  R26,Y+@0
                 	LDD  R27,Y+@0+1
                 	SUBI R26,LOW(-@1)
                 	SBCI R27,HIGH(-@1)
                 	ST   X+,R30
                 	ST   X,R31
                 	.ENDM
                 
                 	.MACRO __PUTD1SN
                 	LDD  R26,Y+@0
                 	LDD  R27,Y+@0+1
                 	SUBI R26,LOW(-@1)
                 	SBCI R27,HIGH(-@1)
                 	CALL __PUTDP1
                 	.ENDM
                 
                 	.MACRO __PUTB1SNS
                 	LDD  R26,Y+@0
                 	LDD  R27,Y+@0+1
                 	ADIW R26,@1
                 	ST   X,R30
                 	.ENDM
                 
                 	.MACRO __PUTW1SNS
                 	LDD  R26,Y+@0
                 	LDD  R27,Y+@0+1
                 	ADIW R26,@1
                 	ST   X+,R30
                 	ST   X,R31
                 	.ENDM
                 
                 	.MACRO __PUTD1SNS
                 	LDD  R26,Y+@0
                 	LDD  R27,Y+@0+1
                 	ADIW R26,@1
                 	CALL __PUTDP1
                 	.ENDM
                 
                 	.MACRO __PUTB1PMN
                 	LDS  R26,@0
                 	LDS  R27,@0+1
                 	SUBI R26,LOW(-@1)
                 	SBCI R27,HIGH(-@1)
                 	ST   X,R30
                 	.ENDM
                 
                 	.MACRO __PUTW1PMN
                 	LDS  R26,@0
                 	LDS  R27,@0+1
                 	SUBI R26,LOW(-@1)
                 	SBCI R27,HIGH(-@1)
                 	ST   X+,R30
                 	ST   X,R31
                 	.ENDM
                 
                 	.MACRO __PUTD1PMN
                 	LDS  R26,@0
                 	LDS  R27,@0+1
                 	SUBI R26,LOW(-@1)
                 	SBCI R27,HIGH(-@1)
                 	CALL __PUTDP1
                 	.ENDM
                 
                 	.MACRO __PUTB1PMNS
                 	LDS  R26,@0
                 	LDS  R27,@0+1
                 	ADIW R26,@1
                 	ST   X,R30
                 	.ENDM
                 
                 	.MACRO __PUTW1PMNS
                 	LDS  R26,@0
                 	LDS  R27,@0+1
                 	ADIW R26,@1
                 	ST   X+,R30
                 	ST   X,R31
                 	.ENDM
                 
                 	.MACRO __PUTD1PMNS
                 	LDS  R26,@0
                 	LDS  R27,@0+1
                 	ADIW R26,@1
                 	CALL __PUTDP1
                 	.ENDM
                 
                 	.MACRO __PUTB1RN
                 	MOVW R26,R@0
                 	SUBI R26,LOW(-@1)
                 	SBCI R27,HIGH(-@1)
                 	ST   X,R30
                 	.ENDM
                 
                 	.MACRO __PUTW1RN
                 	MOVW R26,R@0
                 	SUBI R26,LOW(-@1)
                 	SBCI R27,HIGH(-@1)
                 	ST   X+,R30
                 	ST   X,R31
                 	.ENDM
                 
                 	.MACRO __PUTD1RN
                 	MOVW R26,R@0
                 	SUBI R26,LOW(-@1)
                 	SBCI R27,HIGH(-@1)
                 	CALL __PUTDP1
                 	.ENDM
                 
                 	.MACRO __PUTB1RNS
                 	MOVW R26,R@0
                 	ADIW R26,@1
                 	ST   X,R30
                 	.ENDM
                 
                 	.MACRO __PUTW1RNS
                 	MOVW R26,R@0
                 	ADIW R26,@1
                 	ST   X+,R30
                 	ST   X,R31
                 	.ENDM
                 
                 	.MACRO __PUTD1RNS
                 	MOVW R26,R@0
                 	ADIW R26,@1
                 	CALL __PUTDP1
                 	.ENDM
                 
                 	.MACRO __PUTB1RON
                 	MOV  R26,R@0
                 	MOV  R27,R@1
                 	SUBI R26,LOW(-@2)
                 	SBCI R27,HIGH(-@2)
                 	ST   X,R30
                 	.ENDM
                 
                 	.MACRO __PUTW1RON
                 	MOV  R26,R@0
                 	MOV  R27,R@1
                 	SUBI R26,LOW(-@2)
                 	SBCI R27,HIGH(-@2)
                 	ST   X+,R30
                 	ST   X,R31
                 	.ENDM
                 
                 	.MACRO __PUTD1RON
                 	MOV  R26,R@0
                 	MOV  R27,R@1
                 	SUBI R26,LOW(-@2)
                 	SBCI R27,HIGH(-@2)
                 	CALL __PUTDP1
                 	.ENDM
                 
                 	.MACRO __PUTB1RONS
                 	MOV  R26,R@0
                 	MOV  R27,R@1
                 	ADIW R26,@2
                 	ST   X,R30
                 	.ENDM
                 
                 	.MACRO __PUTW1RONS
                 	MOV  R26,R@0
                 	MOV  R27,R@1
                 	ADIW R26,@2
                 	ST   X+,R30
                 	ST   X,R31
                 	.ENDM
                 
                 	.MACRO __PUTD1RONS
                 	MOV  R26,R@0
                 	MOV  R27,R@1
                 	ADIW R26,@2
                 	CALL __PUTDP1
                 	.ENDM
                 
                 
                 	.MACRO __GETB1SX
                 	MOVW R30,R28
                 	SUBI R30,LOW(-@0)
                 	SBCI R31,HIGH(-@0)
                 	LD   R30,Z
                 	.ENDM
                 
                 	.MACRO __GETB1HSX
                 	MOVW R30,R28
                 	SUBI R30,LOW(-@0)
                 	SBCI R31,HIGH(-@0)
                 	LD   R31,Z
                 	.ENDM
                 
                 	.MACRO __GETW1SX
                 	MOVW R30,R28
                 	SUBI R30,LOW(-@0)
                 	SBCI R31,HIGH(-@0)
                 	LD   R0,Z+
                 	LD   R31,Z
                 	MOV  R30,R0
                 	.ENDM
                 
                 	.MACRO __GETD1SX
                 	MOVW R30,R28
                 	SUBI R30,LOW(-@0)
                 	SBCI R31,HIGH(-@0)
                 	LD   R0,Z+
                 	LD   R1,Z+
                 	LD   R22,Z+
                 	LD   R23,Z
                 	MOVW R30,R0
                 	.ENDM
                 
                 	.MACRO __GETB2SX
                 	MOVW R26,R28
                 	SUBI R26,LOW(-@0)
                 	SBCI R27,HIGH(-@0)
                 	LD   R26,X
                 	.ENDM
                 
                 	.MACRO __GETW2SX
                 	MOVW R26,R28
                 	SUBI R26,LOW(-@0)
                 	SBCI R27,HIGH(-@0)
                 	LD   R0,X+
                 	LD   R27,X
                 	MOV  R26,R0
                 	.ENDM
                 
                 	.MACRO __GETD2SX
                 	MOVW R26,R28
                 	SUBI R26,LOW(-@0)
                 	SBCI R27,HIGH(-@0)
                 	LD   R0,X+
                 	LD   R1,X+
                 	LD   R24,X+
                 	LD   R25,X
                 	MOVW R26,R0
                 	.ENDM
                 
                 	.MACRO __GETBRSX
                 	MOVW R30,R28
                 	SUBI R30,LOW(-@1)
                 	SBCI R31,HIGH(-@1)
                 	LD   R@0,Z
                 	.ENDM
                 
                 	.MACRO __GETWRSX
                 	MOVW R30,R28
                 	SUBI R30,LOW(-@2)
                 	SBCI R31,HIGH(-@2)
                 	LD   R@0,Z+
                 	LD   R@1,Z
                 	.ENDM
                 
                 	.MACRO __GETBRSX2
                 	MOVW R26,R28
                 	SUBI R26,LOW(-@1)
                 	SBCI R27,HIGH(-@1)
                 	LD   R@0,X
                 	.ENDM
                 
                 	.MACRO __GETWRSX2
                 	MOVW R26,R28
                 	SUBI R26,LOW(-@2)
                 	SBCI R27,HIGH(-@2)
                 	LD   R@0,X+
                 	LD   R@1,X
                 	.ENDM
                 
                 	.MACRO __LSLW8SX
                 	MOVW R30,R28
                 	SUBI R30,LOW(-@0)
                 	SBCI R31,HIGH(-@0)
                 	LD   R31,Z
                 	CLR  R30
                 	.ENDM
                 
                 	.MACRO __PUTB1SX
                 	MOVW R26,R28
                 	SUBI R26,LOW(-@0)
                 	SBCI R27,HIGH(-@0)
                 	ST   X,R30
                 	.ENDM
                 
                 	.MACRO __PUTW1SX
                 	MOVW R26,R28
                 	SUBI R26,LOW(-@0)
                 	SBCI R27,HIGH(-@0)
                 	ST   X+,R30
                 	ST   X,R31
                 	.ENDM
                 
                 	.MACRO __PUTD1SX
                 	MOVW R26,R28
                 	SUBI R26,LOW(-@0)
                 	SBCI R27,HIGH(-@0)
                 	ST   X+,R30
                 	ST   X+,R31
                 	ST   X+,R22
                 	ST   X,R23
                 	.ENDM
                 
                 	.MACRO __CLRW1SX
                 	MOVW R26,R28
                 	SUBI R26,LOW(-@0)
                 	SBCI R27,HIGH(-@0)
                 	ST   X+,R30
                 	ST   X,R30
                 	.ENDM
                 
                 	.MACRO __CLRD1SX
                 	MOVW R26,R28
                 	SUBI R26,LOW(-@0)
                 	SBCI R27,HIGH(-@0)
                 	ST   X+,R30
                 	ST   X+,R30
                 	ST   X+,R30
                 	ST   X,R30
                 	.ENDM
                 
                 	.MACRO __PUTB2SX
                 	MOVW R30,R28
                 	SUBI R30,LOW(-@0)
                 	SBCI R31,HIGH(-@0)
                 	ST   Z,R26
                 	.ENDM
                 
                 	.MACRO __PUTW2SX
                 	MOVW R30,R28
                 	SUBI R30,LOW(-@0)
                 	SBCI R31,HIGH(-@0)
                 	ST   Z+,R26
                 	ST   Z,R27
                 	.ENDM
                 
                 	.MACRO __PUTD2SX
                 	MOVW R30,R28
                 	SUBI R30,LOW(-@0)
                 	SBCI R31,HIGH(-@0)
                 	ST   Z+,R26
                 	ST   Z+,R27
                 	ST   Z+,R24
                 	ST   Z,R25
                 	.ENDM
                 
                 	.MACRO __PUTBSRX
                 	MOVW R30,R28
                 	SUBI R30,LOW(-@1)
                 	SBCI R31,HIGH(-@1)
                 	ST   Z,R@0
                 	.ENDM
                 
                 	.MACRO __PUTWSRX
                 	MOVW R30,R28
                 	SUBI R30,LOW(-@2)
                 	SBCI R31,HIGH(-@2)
                 	ST   Z+,R@0
                 	ST   Z,R@1
                 	.ENDM
                 
                 	.MACRO __PUTB1SNX
                 	MOVW R26,R28
                 	SUBI R26,LOW(-@0)
                 	SBCI R27,HIGH(-@0)
                 	LD   R0,X+
                 	LD   R27,X
                 	MOV  R26,R0
                 	SUBI R26,LOW(-@1)
                 	SBCI R27,HIGH(-@1)
                 	ST   X,R30
                 	.ENDM
                 
                 	.MACRO __PUTW1SNX
                 	MOVW R26,R28
                 	SUBI R26,LOW(-@0)
                 	SBCI R27,HIGH(-@0)
                 	LD   R0,X+
                 	LD   R27,X
                 	MOV  R26,R0
                 	SUBI R26,LOW(-@1)
                 	SBCI R27,HIGH(-@1)
                 	ST   X+,R30
                 	ST   X,R31
                 	.ENDM
                 
                 	.MACRO __PUTD1SNX
                 	MOVW R26,R28
                 	SUBI R26,LOW(-@0)
                 	SBCI R27,HIGH(-@0)
                 	LD   R0,X+
                 	LD   R27,X
                 	MOV  R26,R0
                 	SUBI R26,LOW(-@1)
                 	SBCI R27,HIGH(-@1)
                 	ST   X+,R30
                 	ST   X+,R31
                 	ST   X+,R22
                 	ST   X,R23
                 	.ENDM
                 
                 	.MACRO __MULBRR
                 	MULS R@0,R@1
                 	MOVW R30,R0
                 	.ENDM
                 
                 	.MACRO __MULBRRU
                 	MUL  R@0,R@1
                 	MOVW R30,R0
                 	.ENDM
                 
                 	.MACRO __MULBRR0
                 	MULS R@0,R@1
                 	.ENDM
                 
                 	.MACRO __MULBRRU0
                 	MUL  R@0,R@1
                 	.ENDM
                 
                 	.MACRO __MULBNWRU
                 	LDI  R26,@2
                 	MUL  R26,R@0
                 	MOVW R30,R0
                 	MUL  R26,R@1
                 	ADD  R31,R0
                 	.ENDM
                 
                 ;NAME DEFINITIONS FOR GLOBAL VARIABLES ALLOCATED TO REGISTERS
                 	.DEF _servo_breaks=R4
                 	.DEF _servo_breaks_msb=R5
                 	.DEF _servo_value_cur=R6
                 	.DEF _servo_value_cur_msb=R7
                 	.DEF _servo_value_copy=R8
                 	.DEF _servo_value_copy_msb=R9
                 	.DEF _state_info=R10
                 	.DEF _state_info_msb=R11
                 	.DEF _leftCounter=R12
                 	.DEF _leftCounter_msb=R13
                 
                 	.CSEG
                 	.ORG 0x00
                 
                 ;START OF CODE MARKER
                 __START_OF_CODE:
                 
                 ;INTERRUPT VECTORS
000000 940c 01f3 	JMP  __RESET
000002 940c 0000 	JMP  0x00
000004 940c 0000 	JMP  0x00
000006 940c 0000 	JMP  0x00
000008 940c 0000 	JMP  0x00
00000a 940c 0251 	JMP  _ext_int4_isr
00000c 940c 0000 	JMP  0x00
00000e 940c 0261 	JMP  _ext_int6_isr
000010 940c 0000 	JMP  0x00
000012 940c 0000 	JMP  0x00
000014 940c 0500 	JMP  _timer2_ovf_isr
000016 940c 0000 	JMP  0x00
000018 940c 0000 	JMP  0x00
00001a 940c 0000 	JMP  0x00
00001c 940c 02d1 	JMP  _timer1_ovf_isr
00001e 940c 0000 	JMP  0x00
000020 940c 03d8 	JMP  _timer0_ovf_isr
000022 940c 0000 	JMP  0x00
000024 940c 0000 	JMP  0x00
000026 940c 0000 	JMP  0x00
000028 940c 0000 	JMP  0x00
00002a 940c 0223 	JMP  _adc_isr
00002c 940c 0000 	JMP  0x00
00002e 940c 0000 	JMP  0x00
000030 940c 0000 	JMP  0x00
000032 940c 06b4 	JMP  _timer3_capt_isr
000034 940c 06f4 	JMP  _timer3_compa_isr
000036 940c 0000 	JMP  0x00
000038 940c 0000 	JMP  0x00
00003a 940c 0000 	JMP  0x00
00003c 940c 0000 	JMP  0x00
00003e 940c 0000 	JMP  0x00
000040 940c 0000 	JMP  0x00
000042 940c 1a3f 	JMP  _twi_int_handler
000044 940c 0000 	JMP  0x00
                 
                 _tbl10_G102:
000046 2710
000047 03e8
000048 0064
000049 000a      	.DB  0x10,0x27,0xE8,0x3,0x64,0x0,0xA,0x0
00004a 0001      	.DB  0x1,0x0
                 _tbl16_G102:
00004b 1000
00004c 0100
00004d 0010
00004e 0001      	.DB  0x0,0x10,0x0,0x1,0x10,0x0,0x1,0x0
                 
                 ;REGISTER BIT VARIABLES INITIALIZATION
                 __REG_BIT_VARS:
00004f 0001      	.DW  0x0001
                 
                 ;GLOBAL REGISTER VARIABLES INITIALIZATION
                 __REG_VARS:
000050 0001
000051 00aa      	.DB  0x1,0x0,0xAA,0x0
000052 0000
000053 0000      	.DB  0x0,0x0,0x0,0x0
000054 0000      	.DB  0x0,0x0
                 
                 _0x3:
C:\Users\Viktor\Documents\Projekte\Bluematics Robby\BlueMatics-Robby\Roboterprojekt-avr\Debug\List\project.asm(1161): warning: .cseg .db misalignment - padding zero byte
000055 001b      	.DB  0x1B
                 _0x4:
C:\Users\Viktor\Documents\Projekte\Bluematics Robby\BlueMatics-Robby\Roboterprojekt-avr\Debug\List\project.asm(1163): warning: .cseg .db misalignment - padding zero byte
000056 000a      	.DB  0xA
                 _0x0:
000057 4144
000058 4154
000059 5000
00005a 534f      	.DB  0x44,0x41,0x54,0x41,0x0,0x50,0x4F,0x53
00005b 5449
00005c 4f49
00005d 2d4e
00005e 4553      	.DB  0x49,0x54,0x49,0x4F,0x4E,0x2D,0x53,0x45
00005f 5652
000060 004f
000061 454c
000062 5446      	.DB  0x52,0x56,0x4F,0x0,0x4C,0x45,0x46,0x54
000063 203a
000064 0031
000065 454c
000066 5446      	.DB  0x3A,0x20,0x31,0x0,0x4C,0x45,0x46,0x54
000067 203a
000068 0030
000069 5220
00006a 4749      	.DB  0x3A,0x20,0x30,0x0,0x20,0x52,0x49,0x47
00006b 5448
00006c 203a
00006d 0031
00006e 5220      	.DB  0x48,0x54,0x3A,0x20,0x31,0x0,0x20,0x52
00006f 4749
000070 5448
000071 203a
000072 0030      	.DB  0x49,0x47,0x48,0x54,0x3A,0x20,0x30,0x0
000073 4c4d
000074 4645
000075 3a54
000076 3120      	.DB  0x4D,0x4C,0x45,0x46,0x54,0x3A,0x20,0x31
000077 4d00
000078 454c
000079 5446
00007a 203a      	.DB  0x0,0x4D,0x4C,0x45,0x46,0x54,0x3A,0x20
00007b 0030
00007c 524d
00007d 4749
00007e 5448      	.DB  0x30,0x0,0x4D,0x52,0x49,0x47,0x48,0x54
00007f 313a
000080 4d00
000081 4952
000082 4847      	.DB  0x3A,0x31,0x0,0x4D,0x52,0x49,0x47,0x48
000083 3a54
000084 0030
000085 2020
000086 2020      	.DB  0x54,0x3A,0x30,0x0,0x20,0x20,0x20,0x20
000087 4520
000088 434e
000089 444f
00008a 5245      	.DB  0x20,0x45,0x4E,0x43,0x4F,0x44,0x45,0x52
00008b 2020
00008c 3e3e
00008d 3c00
00008e 203c      	.DB  0x20,0x20,0x3E,0x3E,0x0,0x3C,0x3C,0x20
00008f 2020
000090 4e45
000091 4f43
000092 4544      	.DB  0x20,0x20,0x45,0x4E,0x43,0x4F,0x44,0x45
000093 2052
000094 2020
000095 0020
000096 3a4c      	.DB  0x52,0x20,0x20,0x20,0x20,0x0,0x4C,0x3A
000097 2000
000098 3a52
000099 2000
00009a 2020      	.DB  0x0,0x20,0x52,0x3A,0x0,0x20,0x20,0x20
00009b 2020
00009c 4552
00009d 4843
00009e 5354      	.DB  0x20,0x20,0x52,0x45,0x43,0x48,0x54,0x53
00009f 2020
0000a0 2020
0000a1 2000
0000a2 2020      	.DB  0x20,0x20,0x20,0x20,0x0,0x20,0x20,0x20
0000a3 2020
0000a4 494c
0000a5 4b4e
0000a6 2053      	.DB  0x20,0x20,0x4C,0x49,0x4E,0x4B,0x53,0x20
0000a7 2020
0000a8 0020
0000a9 4c46
0000aa 4645      	.DB  0x20,0x20,0x20,0x0,0x46,0x4C,0x45,0x46
0000ab 3a54
0000ac 3120
0000ad 4600
0000ae 454c      	.DB  0x54,0x3A,0x20,0x31,0x0,0x46,0x4C,0x45
0000af 5446
0000b0 203a
0000b1 0030
0000b2 5246      	.DB  0x46,0x54,0x3A,0x20,0x30,0x0,0x46,0x52
0000b3 4749
0000b4 5448
0000b5 313a
0000b6 4600      	.DB  0x49,0x47,0x48,0x54,0x3A,0x31,0x0,0x46
0000b7 4952
0000b8 4847
0000b9 3a54
0000ba 0030      	.DB  0x52,0x49,0x47,0x48,0x54,0x3A,0x30,0x0
0000bb 454c
0000bc 5446
0000bd 003a
0000be 4952      	.DB  0x4C,0x45,0x46,0x54,0x3A,0x0,0x52,0x49
0000bf 4847
0000c0 3a54
0000c1 4f00
0000c2 6a62      	.DB  0x47,0x48,0x54,0x3A,0x0,0x4F,0x62,0x6A
0000c3 6b65
0000c4 2074
0000c5 6567
0000c6 7566      	.DB  0x65,0x6B,0x74,0x20,0x67,0x65,0x66,0x75
0000c7 646e
0000c8 6e65
0000c9 4b00
0000ca 6965      	.DB  0x6E,0x64,0x65,0x6E,0x0,0x4B,0x65,0x69
0000cb 206e
0000cc 624f
0000cd 656a
0000ce 746b      	.DB  0x6E,0x20,0x4F,0x62,0x6A,0x65,0x6B,0x74
0000cf 6e00
0000d0 746f
0000d1 6968
0000d2 676e      	.DB  0x0,0x6E,0x6F,0x74,0x68,0x69,0x6E,0x67
0000d3 6100
0000d4 6c6c
0000d5 4c00
0000d6 7320      	.DB  0x0,0x61,0x6C,0x6C,0x0,0x4C,0x20,0x73
0000d7 6174
0000d8 6574
0000d9 6200
0000da 6775      	.DB  0x74,0x61,0x74,0x65,0x0,0x62,0x75,0x67
0000db 6d00
0000dc 746f
0000dd 0068
0000de 4f46      	.DB  0x0,0x6D,0x6F,0x74,0x68,0x0,0x46,0x4F
0000df 4c4c
0000e0 574f
0000e1 5300
0000e2 414d      	.DB  0x4C,0x4C,0x4F,0x57,0x0,0x53,0x4D,0x41
0000e3 5452
0000e4 4850
0000e5 4e4f
0000e6 2045      	.DB  0x52,0x54,0x50,0x48,0x4F,0x4E,0x45,0x20
0000e7 4f20
0000e8 4c4e
0000e9 0059
0000ea 2020      	.DB  0x20,0x4F,0x4E,0x4C,0x59,0x0,0x20,0x20
0000eb 4220
0000ec 756c
0000ed 4d65
0000ee 7461      	.DB  0x20,0x42,0x6C,0x75,0x65,0x4D,0x61,0x74
0000ef 6369
0000f0 0073
0000f1 2020
0000f2 2020      	.DB  0x69,0x63,0x73,0x0,0x20,0x20,0x20,0x20
0000f3 5220
0000f4 626f
0000f5 7962
0000f6 4f00      	.DB  0x20,0x52,0x6F,0x62,0x62,0x79,0x0,0x4F
0000f7 004b
0000f8 7542
0000f9 6666
0000fa 7265      	.DB  0x4B,0x0,0x42,0x75,0x66,0x66,0x65,0x72
0000fb 6f20
0000fc 6576
0000fd 6672
0000fe 6f6c      	.DB  0x20,0x6F,0x76,0x65,0x72,0x66,0x6C,0x6F
0000ff 0077
000100 7241
000101 6962
000102 7274      	.DB  0x77,0x0,0x41,0x72,0x62,0x69,0x74,0x72
000103 7461
000104 6f69
000105 206e
000106 6f6c      	.DB  0x61,0x74,0x69,0x6F,0x6E,0x20,0x6C,0x6F
000107 7473
000108 4200
000109 7375
00010a 6520      	.DB  0x73,0x74,0x0,0x42,0x75,0x73,0x20,0x65
00010b 7272
00010c 726f
00010d 4e00
00010e 4341      	.DB  0x72,0x72,0x6F,0x72,0x0,0x4E,0x41,0x43
00010f 204b
000110 6572
000111 6563
000112 7669      	.DB  0x4B,0x20,0x72,0x65,0x63,0x65,0x69,0x76
000113 6465
000114 4200
000115 7375
000116 7420      	.DB  0x65,0x64,0x0,0x42,0x75,0x73,0x20,0x74
000117 6d69
000118 6f65
000119 7475
00011a 4600      	.DB  0x69,0x6D,0x65,0x6F,0x75,0x74,0x0,0x46
00011b 6961
00011c 006c
00011d 6e55
00011e 6e6b      	.DB  0x61,0x69,0x6C,0x0,0x55,0x6E,0x6B,0x6E
00011f 776f
000120 206e
000121 7265
000122 6f72      	.DB  0x6F,0x77,0x6E,0x20,0x65,0x72,0x72,0x6F
000123 0072      	.DB  0x72,0x0
                 _0x2000060:
C:\Users\Viktor\Documents\Projekte\Bluematics Robby\BlueMatics-Robby\Roboterprojekt-avr\Debug\List\project.asm(1218): warning: .cseg .db misalignment - padding zero byte
000124 0001      	.DB  0x1
                 _0x2000000:
000125 4e2d
000126 4e41
000127 4900
000128 464e      	.DB  0x2D,0x4E,0x41,0x4E,0x0,0x49,0x4E,0x46
C:\Users\Viktor\Documents\Projekte\Bluematics Robby\BlueMatics-Robby\Roboterprojekt-avr\Debug\List\project.asm(1221): warning: .cseg .db misalignment - padding zero byte
000129 0000      	.DB  0x0
                 _0x2060003:
C:\Users\Viktor\Documents\Projekte\Bluematics Robby\BlueMatics-Robby\Roboterprojekt-avr\Debug\List\project.asm(1223): warning: .cseg .db misalignment - padding zero byte
00012a 0007      	.DB  0x7
                 _0x2080003:
00012b c080      	.DB  0x80,0xC0
                 
                 __GLOBAL_INI_TBL:
00012c 0001      	.DW  0x01
00012d 0002      	.DW  0x02
00012e 009e      	.DW  __REG_BIT_VARS*2
                 
00012f 000a      	.DW  0x0A
000130 0004      	.DW  0x04
000131 00a0      	.DW  __REG_VARS*2
                 
000132 0001      	.DW  0x01
000133 06c5      	.DW  _state
000134 00aa      	.DW  _0x3*2
                 
000135 0001      	.DW  0x01
000136 0700      	.DW  _i
000137 00ac      	.DW  _0x4*2
                 
000138 0005      	.DW  0x05
000139 0500      	.DW  _0x3C
00013a 00ae      	.DW  _0x0*2
                 
00013b 000f      	.DW  0x0F
00013c 0505      	.DW  _0x56
00013d 00b3      	.DW  _0x0*2+5
                 
00013e 0008      	.DW  0x08
00013f 0514      	.DW  _0x83
000140 00c2      	.DW  _0x0*2+20
                 
000141 0008      	.DW  0x08
000142 051c      	.DW  _0x83+8
000143 00ca      	.DW  _0x0*2+28
                 
000144 000a      	.DW  0x0A
000145 0524      	.DW  _0x83+16
000146 00d2      	.DW  _0x0*2+36
                 
000147 000a      	.DW  0x0A
000148 052e      	.DW  _0x83+26
000149 00dc      	.DW  _0x0*2+46
                 
00014a 0009      	.DW  0x09
00014b 0538      	.DW  _0x83+36
00014c 00e6      	.DW  _0x0*2+56
                 
00014d 0009      	.DW  0x09
00014e 0541      	.DW  _0x83+45
00014f 00ef      	.DW  _0x0*2+65
                 
000150 0009      	.DW  0x09
000151 054a      	.DW  _0x83+54
000152 00f8      	.DW  _0x0*2+74
                 
000153 0009      	.DW  0x09
000154 0553      	.DW  _0x83+63
000155 0101      	.DW  _0x0*2+83
                 
000156 0011      	.DW  0x11
000157 055c      	.DW  _0x8C
000158 010a      	.DW  _0x0*2+92
                 
000159 0011      	.DW  0x11
00015a 056d      	.DW  _0x8C+17
00015b 011b      	.DW  _0x0*2+109
                 
00015c 0003      	.DW  0x03
00015d 057e      	.DW  _0x8C+34
00015e 012c      	.DW  _0x0*2+126
                 
00015f 0004      	.DW  0x04
000160 0581      	.DW  _0x8C+37
000161 012f      	.DW  _0x0*2+129
                 
000162 0010      	.DW  0x10
000163 0585      	.DW  _0x98
000164 0133      	.DW  _0x0*2+133
                 
000165 000f      	.DW  0x0F
000166 0595      	.DW  _0x98+16
000167 0143      	.DW  _0x0*2+149
                 
000168 0003      	.DW  0x03
000169 05a4      	.DW  _0x98+31
00016a 012c      	.DW  _0x0*2+126
                 
00016b 0004      	.DW  0x04
00016c 05a7      	.DW  _0x98+34
00016d 012f      	.DW  _0x0*2+129
                 
00016e 0008      	.DW  0x08
00016f 05ab      	.DW  _0xA4
000170 00c2      	.DW  _0x0*2+20
                 
000171 0008      	.DW  0x08
000172 05b3      	.DW  _0xA4+8
000173 00ca      	.DW  _0x0*2+28
                 
000174 000a      	.DW  0x0A
000175 05bb      	.DW  _0xA4+16
000176 00d2      	.DW  _0x0*2+36
                 
000177 000a      	.DW  0x0A
000178 05c5      	.DW  _0xA4+26
000179 00dc      	.DW  _0x0*2+46
                 
00017a 0009      	.DW  0x09
00017b 05cf      	.DW  _0xA4+36
00017c 0152      	.DW  _0x0*2+164
                 
00017d 0009      	.DW  0x09
00017e 05d8      	.DW  _0xA4+45
00017f 015b      	.DW  _0x0*2+173
                 
000180 0009      	.DW  0x09
000181 05e1      	.DW  _0xA4+54
000182 0164      	.DW  _0x0*2+182
                 
000183 0009      	.DW  0x09
000184 05ea      	.DW  _0xA4+63
000185 016d      	.DW  _0x0*2+191
                 
000186 0006      	.DW  0x06
000187 05f3      	.DW  _0xAC
000188 0176      	.DW  _0x0*2+200
                 
000189 0007      	.DW  0x07
00018a 05f9      	.DW  _0xAC+6
00018b 017c      	.DW  _0x0*2+206
                 
00018c 0003      	.DW  0x03
00018d 0600      	.DW  _0xCC
00018e 012c      	.DW  _0x0*2+126
                 
00018f 0004      	.DW  0x04
000190 0603      	.DW  _0xCC+3
000191 012f      	.DW  _0x0*2+129
                 
000192 0003      	.DW  0x03
000193 0607      	.DW  _0xD4
000194 012c      	.DW  _0x0*2+126
                 
000195 0004      	.DW  0x04
000196 060a      	.DW  _0xD4+3
000197 012f      	.DW  _0x0*2+129
                 
000198 0008      	.DW  0x08
000199 060e      	.DW  _0x2A1
00019a 019f      	.DW  _0x0*2+241
                 
00019b 0004      	.DW  0x04
00019c 0616      	.DW  _0x2A1+8
00019d 01a7      	.DW  _0x0*2+249
                 
00019e 0003      	.DW  0x03
00019f 061a      	.DW  _0x2F3
0001a0 012c      	.DW  _0x0*2+126
                 
0001a1 0004      	.DW  0x04
0001a2 061d      	.DW  _0x2F3+3
0001a3 012f      	.DW  _0x0*2+129
                 
0001a4 0008      	.DW  0x08
0001a5 0621      	.DW  _0x2F6
0001a6 01ab      	.DW  _0x0*2+253
                 
0001a7 0003      	.DW  0x03
0001a8 0629      	.DW  _0x2F6+8
0001a9 012c      	.DW  _0x0*2+126
                 
0001aa 0004      	.DW  0x04
0001ab 062c      	.DW  _0x2F6+11
0001ac 012f      	.DW  _0x0*2+129
                 
0001ad 0003      	.DW  0x03
0001ae 0630      	.DW  _0x2F6+15
0001af 012c      	.DW  _0x0*2+126
                 
0001b0 0004      	.DW  0x04
0001b1 0633      	.DW  _0x2F6+18
0001b2 012f      	.DW  _0x0*2+129
                 
0001b3 0003      	.DW  0x03
0001b4 0637      	.DW  _0x2F6+22
0001b5 012c      	.DW  _0x0*2+126
                 
0001b6 0004      	.DW  0x04
0001b7 063a      	.DW  _0x2F6+25
0001b8 012f      	.DW  _0x0*2+129
                 
0001b9 0003      	.DW  0x03
0001ba 063e      	.DW  _0x2F6+29
0001bb 012c      	.DW  _0x0*2+126
                 
0001bc 0004      	.DW  0x04
0001bd 0641      	.DW  _0x2F6+32
0001be 012f      	.DW  _0x0*2+129
                 
0001bf 0003      	.DW  0x03
0001c0 0645      	.DW  _0x2F6+36
0001c1 012c      	.DW  _0x0*2+126
                 
0001c2 0004      	.DW  0x04
0001c3 0648      	.DW  _0x2F6+39
0001c4 012f      	.DW  _0x0*2+129
                 
0001c5 0003      	.DW  0x03
0001c6 064c      	.DW  _0x2F6+43
0001c7 012c      	.DW  _0x0*2+126
                 
0001c8 0004      	.DW  0x04
0001c9 064f      	.DW  _0x2F6+46
0001ca 012f      	.DW  _0x0*2+129
                 
0001cb 0003      	.DW  0x03
0001cc 0653      	.DW  _0x2F6+50
0001cd 012c      	.DW  _0x0*2+126
                 
0001ce 0004      	.DW  0x04
0001cf 0656      	.DW  _0x2F6+53
0001d0 012f      	.DW  _0x0*2+129
                 
0001d1 0004      	.DW  0x04
0001d2 065a      	.DW  _0x318
0001d3 01b3      	.DW  _0x0*2+261
                 
0001d4 0002      	.DW  0x02
0001d5 065e      	.DW  _0x318+4
0001d6 012a      	.DW  _0x0*2+124
                 
0001d7 0005      	.DW  0x05
0001d8 0660      	.DW  _0x319
0001d9 01b7      	.DW  _0x0*2+265
                 
0001da 0002      	.DW  0x02
0001db 0665      	.DW  _0x319+5
0001dc 012a      	.DW  _0x0*2+124
                 
0001dd 0007      	.DW  0x07
0001de 0667      	.DW  _0x31A
0001df 01bc      	.DW  _0x0*2+270
                 
0001e0 0011      	.DW  0x11
0001e1 066e      	.DW  _0x328
0001e2 01c3      	.DW  _0x0*2+277
                 
0001e3 000e      	.DW  0x0E
0001e4 067f      	.DW  _0x35B
0001e5 01d4      	.DW  _0x0*2+294
                 
0001e6 000b      	.DW  0x0B
0001e7 068d      	.DW  _0x35B+14
0001e8 01e2      	.DW  _0x0*2+308
                 
0001e9 0001      	.DW  0x01
0001ea 079c      	.DW  __seed_G100
0001eb 0248      	.DW  _0x2000060*2
                 
0001ec 0001      	.DW  0x01
0001ed 069a      	.DW  _twi_result
0001ee 0254      	.DW  _0x2060003*2
                 
0001ef 0002      	.DW  0x02
0001f0 07ac      	.DW  __base_y_G104
0001f1 0256      	.DW  _0x2080003*2
                 
                 _0xFFFFFFFF:
0001f2 0000      	.DW  0
                 
                 #define __GLOBAL_INI_TBL_PRESENT 1
                 
                 __RESET:
0001f3 94f8      	CLI
0001f4 27ee      	CLR  R30
0001f5 bbec      	OUT  EECR,R30
                 
                 ;INTERRUPT VECTORS ARE PLACED
                 ;AT THE START OF FLASH
0001f6 e0f1      	LDI  R31,1
0001f7 bff5      	OUT  MCUCR,R31
0001f8 bfe5      	OUT  MCUCR,R30
0001f9 93e0 006c 	STS  XMCRB,R30
                 
                 ;CLEAR R2-R14
0001fb e08d      	LDI  R24,(14-2)+1
0001fc e0a2      	LDI  R26,2
0001fd 27bb      	CLR  R27
                 __CLEAR_REG:
0001fe 93ed      	ST   X+,R30
0001ff 958a      	DEC  R24
000200 f7e9      	BRNE __CLEAR_REG
                 
                 ;CLEAR SRAM
000201 e080      	LDI  R24,LOW(__CLEAR_SRAM_SIZE)
000202 e190      	LDI  R25,HIGH(__CLEAR_SRAM_SIZE)
000203 e0a0      	LDI  R26,LOW(__SRAM_START)
000204 e0b1      	LDI  R27,HIGH(__SRAM_START)
                 __CLEAR_SRAM:
000205 93ed      	ST   X+,R30
000206 9701      	SBIW R24,1
000207 f7e9      	BRNE __CLEAR_SRAM
                 
                 ;GLOBAL VARIABLES INITIALIZATION
000208 e5e8      	LDI  R30,LOW(__GLOBAL_INI_TBL*2)
000209 e0f2      	LDI  R31,HIGH(__GLOBAL_INI_TBL*2)
                 __GLOBAL_INI_NEXT:
00020a 9185      	LPM  R24,Z+
00020b 9195      	LPM  R25,Z+
00020c 9700      	SBIW R24,0
00020d f061      	BREQ __GLOBAL_INI_END
00020e 91a5      	LPM  R26,Z+
00020f 91b5      	LPM  R27,Z+
000210 9005      	LPM  R0,Z+
000211 9015      	LPM  R1,Z+
000212 01bf      	MOVW R22,R30
000213 01f0      	MOVW R30,R0
                 __GLOBAL_INI_LOOP:
000214 9005      	LPM  R0,Z+
000215 920d      	ST   X+,R0
000216 9701      	SBIW R24,1
000217 f7e1      	BRNE __GLOBAL_INI_LOOP
000218 01fb      	MOVW R30,R22
000219 cff0      	RJMP __GLOBAL_INI_NEXT
                 __GLOBAL_INI_END:
                 
00021a bf8b      	OUT  RAMPZ,R24
                 
                 ;HARDWARE STACK POINTER INITIALIZATION
00021b efef      	LDI  R30,LOW(__SRAM_END-__HEAP_SIZE)
00021c bfed      	OUT  SPL,R30
00021d e1e0      	LDI  R30,HIGH(__SRAM_END-__HEAP_SIZE)
00021e bfee      	OUT  SPH,R30
                 
                 ;DATA STACK POINTER INITIALIZATION
00021f e0c0      	LDI  R28,LOW(__SRAM_START+__DSTACK_SIZE)
000220 e0d5      	LDI  R29,HIGH(__SRAM_START+__DSTACK_SIZE)
                 
000221 940c 19ca 	JMP  _main
                 
                 	.ESEG
                 	.ORG 0
                 
                 	.DSEG
                 	.ORG 0x500
                 
                 	.CSEG
                 ;/*******************************************************
                 ;This program was created by the
                 ;CodeWizardAVR V3.17 UL Advanced
                 ;Automatic Program Generator
                 ; Copyright 1998-2014 Pavel Haiduc, HP InfoTech s.r.l.
                 ;http://www.hpinfotech.com
                 ;
                 ;Project : BlueMatics
                 ;Version : 0.0.8
                 ;Date    : 28.11.2017
                 ;Author  : Viktor Lau
                 ;Company : https://lauviktor.de
                 ;Comments:
                 ;
                 ;
                 ;Chip type               : ATmega128
                 ;Program type            : Application
                 ;AVR Core Clock frequency: 16,000000 MHz
                 ;Memory model            : Small
                 ;External RAM size       : 0
                 ;Data Stack size         : 1024
                 ;*******************************************************/
                 ;
                 ;//Header includes
                 ;#include <mega128.h>
                 	#ifndef __SLEEP_DEFINED__
                 	#define __SLEEP_DEFINED__
                 	.EQU __se_bit=0x20
                 	.EQU __sm_mask=0x1C
                 	.EQU __sm_powerdown=0x10
                 	.EQU __sm_powersave=0x18
                 	.EQU __sm_standby=0x14
                 	.EQU __sm_ext_standby=0x1C
                 	.EQU __sm_adc_noise_red=0x08
                 	.SET power_ctrl_reg=mcucr
                 	#endif
                 ;#include <delay.h>
                 ;#include <stdlib.h>
                 ;#include <string.h>
                 ;#include <stdint.h>
                 ;#include <stdio.h>
                 ;#include <twi.h>
                 ;#include <i2c.h>
                 ;#include <io.h>
                 ;
                 ;#define puts lcd_puts
                 ;//STATES
                 ;#define state_linedetector  0
                 ;#define state_engine  1
                 ;#define state_engine_dir  2
                 ;#define state_distance_sensor  3
                 ;#define state_lightsensor  4
                 ;#define state_wiicam  5
                 ;#define state_irtower  6
                 ;#define state_servo  7
                 ;#define state_ultrasonic  8
                 ;#define state_vor  9
                 ;#define state_zur  10
                 ;#define state_links  11
                 ;#define state_rechts  12
                 ;//state_0 = state_stop
                 ;#define state_1  13
                 ;#define state_2  14
                 ;#define state_3  15
                 ;#define state_4  16
                 ;#define state_5  17
                 ;#define state_6  18
                 ;#define state_7  19
                 ;#define state_8  20
                 ;#define state_90links  22
                 ;#define state_90rechts  23
                 ;#define state_stop 27
                 ;
                 ;
                 ;
                 ;#include "modules/variables.h"
                 
                 	.DSEG
                 ;#include "modules/port_init.h"
                 
                 	.CSEG
                 _adc_isr:
                 ; .FSTART _adc_isr
000223 938a      	ST   -Y,R24
000224 93aa      	ST   -Y,R26
000225 93ba      	ST   -Y,R27
000226 93ea      	ST   -Y,R30
000227 93fa      	ST   -Y,R31
000228 b7ef      	IN   R30,SREG
000229 93ea      	ST   -Y,R30
00022a 91e0 0787 	LDS  R30,_input_index_S0000000000
00022c e7ab      	LDI  R26,LOW(_adc_data)
00022d e0b7      	LDI  R27,HIGH(_adc_data)
00022e e0f0      	LDI  R31,0
00022f 0fee      	LSL  R30
000230 1fff      	ROL  R31
000231 0fae      	ADD  R26,R30
000232 1fbf      	ADC  R27,R31
000233 b1e4      	IN   R30,0x4
000234 b1f5      	IN   R31,0x4+1
000235 93ed      	ST   X+,R30
000236 93fc      	ST   X,R31
000237 91a0 0787 	LDS  R26,_input_index_S0000000000
000239 5faf      	SUBI R26,-LOW(1)
00023a 93a0 0787 	STS  _input_index_S0000000000,R26
00023c 30a6      	CPI  R26,LOW(0x6)
00023d f018      	BRLO _0x5
00023e e0e0      	LDI  R30,LOW(0)
00023f 93e0 0787 	STS  _input_index_S0000000000,R30
                 _0x5:
000241 91e0 0787 	LDS  R30,_input_index_S0000000000
000243 5ce0      	SUBI R30,-LOW(64)
000244 b9e7      	OUT  0x7,R30
                +
000245 e385     +LDI R24 , LOW ( 53 )
                +__DELAY_USB_LOOP :
000246 958a     +DEC R24
000247 f7f1     +BRNE __DELAY_USB_LOOP
                 	__DELAY_USB 53
000248 9a36      	SBI  0x6,6
000249 91e9      	LD   R30,Y+
00024a bfef      	OUT  SREG,R30
00024b 91f9      	LD   R31,Y+
00024c 91e9      	LD   R30,Y+
00024d 91b9      	LD   R27,Y+
00024e 91a9      	LD   R26,Y+
00024f 9189      	LD   R24,Y+
000250 9518      	RETI
                 ; .FEND
                 _ext_int4_isr:
                 ; .FSTART _ext_int4_isr
000251 940e 1cb9 	CALL SUBOPT_0x0
000253 940e 1cc0 	CALL SUBOPT_0x1
000255 32a0      	CPI  R26,LOW(0x4E20)
000256 e4ee      	LDI  R30,HIGH(0x4E20)
000257 07be      	CPC  R27,R30
000258 f42c      	BRGE _0x6
000259 e8aa      	LDI  R26,LOW(_wheelEncoderCounter_right)
00025a e0b7      	LDI  R27,HIGH(_wheelEncoderCounter_right)
00025b 940e 1cc5 	CALL SUBOPT_0x2
00025d c002      	RJMP _0x7
                 _0x6:
00025e 940e 1ccb 	CALL SUBOPT_0x3
                 _0x7:
000260 c48c      	RJMP _0x37E
                 ; .FEND
                 _ext_int6_isr:
                 ; .FSTART _ext_int6_isr
000261 940e 1cb9 	CALL SUBOPT_0x0
000263 940e 1cd1 	CALL SUBOPT_0x4
000265 32a0      	CPI  R26,LOW(0x4E20)
000266 e4ee      	LDI  R30,HIGH(0x4E20)
000267 07be      	CPC  R27,R30
000268 f42c      	BRGE _0x8
000269 e8a8      	LDI  R26,LOW(_wheelEncoderCounter_left)
00026a e0b7      	LDI  R27,HIGH(_wheelEncoderCounter_left)
00026b 940e 1cc5 	CALL SUBOPT_0x2
00026d c002      	RJMP _0x9
                 _0x8:
00026e 940e 1cd6 	CALL SUBOPT_0x5
                 _0x9:
000270 c47c      	RJMP _0x37E
                 ; .FEND
                    .equ __lcd_port=0x15 ;PORTC
                 _port_init:
                 ; .FSTART _port_init
000271 e8ea      	LDI  R30,LOW(138)
000272 bbea      	OUT  0x1A,R30
000273 e0e2      	LDI  R30,LOW(2)
000274 bbe7      	OUT  0x17,R30
000275 eae1      	LDI  R30,LOW(161)
000276 bbe1      	OUT  0x11,R30
000277 e0e4      	LDI  R30,LOW(4)
000278 b9e2      	OUT  0x2,R30
000279 e2e0      	LDI  R30,LOW(32)
00027a 93e0 0061 	STS  97,R30
00027c e1a0      	LDI  R26,LOW(16)
00027d 940e 1c85 	CALL _lcd_init
00027f e4e0      	LDI  R30,LOW(64)
000280 b9e7      	OUT  0x7,R30
000281 ecef      	LDI  R30,LOW(207)
000282 b9e6      	OUT  0x6,R30
000283 e0e0      	LDI  R30,LOW(0)
000284 bde0      	OUT  0x20,R30
000285 e8e0      	LDI  R30,LOW(128)
000286 b9e8      	OUT  0x8,R30
000287 e0e0      	LDI  R30,LOW(0)
000288 93e0 006a 	STS  106,R30
00028a e1e1      	LDI  R30,LOW(17)
00028b bfea      	OUT  0x3A,R30
00028c e5e0      	LDI  R30,LOW(80)
00028d bfe9      	OUT  0x39,R30
00028e e0e0      	LDI  R30,LOW(0)
00028f bfe8      	OUT  0x38,R30
000290 bfe0      	OUT  0x30,R30
000291 e0e6      	LDI  R30,LOW(6)
000292 bfe3      	OUT  0x33,R30
000293 e8e3      	LDI  R30,LOW(131)
000294 bfe2      	OUT  0x32,R30
000295 e0e0      	LDI  R30,LOW(0)
000296 bfe1      	OUT  0x31,R30
000297 e0e1      	LDI  R30,LOW(1)
000298 bdef      	OUT  0x2F,R30
000299 e0ea      	LDI  R30,LOW(10)
00029a bdee      	OUT  0x2E,R30
00029b e0e0      	LDI  R30,LOW(0)
00029c bded      	OUT  0x2D,R30
00029d bdec      	OUT  0x2C,R30
00029e bde7      	OUT  0x27,R30
00029f bde6      	OUT  0x26,R30
0002a0 bdeb      	OUT  0x2B,R30
0002a1 bdea      	OUT  0x2A,R30
0002a2 bde9      	OUT  0x29,R30
0002a3 bde8      	OUT  0x28,R30
0002a4 93e0 0079 	STS  121,R30
0002a6 93e0 0078 	STS  120,R30
0002a8 e0e4      	LDI  R30,LOW(4)
0002a9 bde5      	OUT  0x25,R30
0002aa e0e0      	LDI  R30,LOW(0)
0002ab bde4      	OUT  0x24,R30
0002ac bde3      	OUT  0x23,R30
0002ad 93e0 008b 	STS  139,R30
0002af eceb      	LDI  R30,LOW(203)
0002b0 93e0 008a 	STS  138,R30
0002b2 e0e0      	LDI  R30,LOW(0)
0002b3 93e0 0089 	STS  137,R30
0002b5 93e0 0088 	STS  136,R30
0002b7 93e0 0081 	STS  129,R30
0002b9 93e0 0080 	STS  128,R30
0002bb e6e1      	LDI  R30,LOW(97)
0002bc 93e0 0087 	STS  135,R30
0002be eae8      	LDI  R30,LOW(168)
0002bf 93e0 0086 	STS  134,R30
0002c1 e0e0      	LDI  R30,LOW(0)
0002c2 93e0 0085 	STS  133,R30
0002c4 93e0 0084 	STS  132,R30
0002c6 93e0 0083 	STS  131,R30
0002c8 93e0 0082 	STS  130,R30
0002ca e4e5      	LDI  R30,LOW(69)
0002cb bfe7      	OUT  0x37,R30
0002cc e3e0      	LDI  R30,LOW(48)
0002cd 93e0 007d 	STS  125,R30
0002cf 9478      	sei
0002d0 9508      	RET
                 ; .FEND
                 ;#include "modules/pwm.h"
                 _timer1_ovf_isr:
                 ; .FSTART _timer1_ovf_isr
0002d1 920a      	ST   -Y,R0
0002d2 93aa      	ST   -Y,R26
0002d3 93ba      	ST   -Y,R27
0002d4 93ea      	ST   -Y,R30
0002d5 93fa      	ST   -Y,R31
0002d6 b7ef      	IN   R30,SREG
0002d7 93ea      	ST   -Y,R30
0002d8 e9ec      	LDI  R30,LOW(156)
0002d9 bdec      	OUT  0x2C,R30
0002da edab      	LDI  R26,LOW(_ipwmcounter)
0002db e0b6      	LDI  R27,HIGH(_ipwmcounter)
0002dc 940e 1cc5 	CALL SUBOPT_0x2
0002de 940e 1cdc 	CALL SUBOPT_0x6
0002e0 36a5      	CPI  R26,LOW(0x65)
0002e1 e0e0      	LDI  R30,HIGH(0x65)
0002e2 07be      	CPC  R27,R30
0002e3 f02c      	BRLT _0xA
0002e4 e0e0      	LDI  R30,LOW(0)
0002e5 93e0 06db 	STS  _ipwmcounter,R30
0002e7 93e0 06dc 	STS  _ipwmcounter+1,R30
                 _0xA:
0002e9 91e0 06dd 	LDS  R30,_ipwmcompareleft
0002eb 91f0 06de 	LDS  R31,_ipwmcompareleft+1
0002ed 940e 1cdc 	CALL SUBOPT_0x6
0002ef 17ae      	CP   R26,R30
0002f0 07bf      	CPC  R27,R31
0002f1 f014      	BRLT _0xB
0002f2 98db      	CBI  0x1B,3
0002f3 c001      	RJMP _0xE
                 _0xB:
0002f4 9adb      	SBI  0x1B,3
                 _0xE:
0002f5 91e0 06df 	LDS  R30,_ipwmcompareright
0002f7 91f0 06e0 	LDS  R31,_ipwmcompareright+1
0002f9 940e 1cdc 	CALL SUBOPT_0x6
0002fb 17ae      	CP   R26,R30
0002fc 07bf      	CPC  R27,R31
0002fd f014      	BRLT _0x11
0002fe 98d9      	CBI  0x1B,1
0002ff c001      	RJMP _0x14
                 _0x11:
000300 9ad9      	SBI  0x1B,1
                 _0x14:
000301 91a0 0794 	LDS  R26,_tmr_line
000303 91b0 0795 	LDS  R27,_tmr_line+1
000305 37a0      	CPI  R26,LOW(0x1770)
000306 e1e7      	LDI  R30,HIGH(0x1770)
000307 07be      	CPC  R27,R30
000308 f42c      	BRGE _0x17
000309 e9a4      	LDI  R26,LOW(_tmr_line)
00030a e0b7      	LDI  R27,HIGH(_tmr_line)
00030b 940e 1cc5 	CALL SUBOPT_0x2
00030d c01b      	RJMP _0x18
                 _0x17:
00030e 91a0 0796 	LDS  R26,_val_L_linesearch
000310 91b0 0797 	LDS  R27,_val_L_linesearch+1
000312 3ca8      	CPI  R26,LOW(0xC8)
000313 e0e0      	LDI  R30,HIGH(0xC8)
000314 07be      	CPC  R27,R30
000315 f414      	BRGE _0x1A
000316 97d2      	SBIW R26,50
000317 f40c      	BRGE _0x1B
                 _0x1A:
000318 c005      	RJMP _0x19
                 _0x1B:
000319 e9a6      	LDI  R26,LOW(_val_L_linesearch)
00031a e0b7      	LDI  R27,HIGH(_val_L_linesearch)
00031b 940e 1cc5 	CALL SUBOPT_0x2
00031d c006      	RJMP _0x365
                 _0x19:
00031e e3e2      	LDI  R30,LOW(50)
00031f e0f0      	LDI  R31,HIGH(50)
000320 93e0 0796 	STS  _val_L_linesearch,R30
000322 93f0 0797 	STS  _val_L_linesearch+1,R31
                 _0x365:
000324 e0e0      	LDI  R30,LOW(0)
000325 93e0 0794 	STS  _tmr_line,R30
000327 93e0 0795 	STS  _tmr_line+1,R30
                 _0x18:
000329 91a0 06e3 	LDS  R26,_Wiipwmleft
00032b 91b0 06e4 	LDS  R27,_Wiipwmleft+1
00032d 940e 2259 	CALL __CPW02
00032f f03c      	BRLT _0x1E
000330 91a0 06e5 	LDS  R26,_Wiipwmright
000332 91b0 06e6 	LDS  R27,_Wiipwmright+1
000334 940e 2259 	CALL __CPW02
000336 f50c      	BRGE _0x1D
                 _0x1E:
000337 91a0 06e1 	LDS  R26,_tmr_wiipwm
000339 91b0 06e2 	LDS  R27,_tmr_wiipwm+1
00033b 3ca8      	CPI  R26,LOW(0xC8)
00033c e0e0      	LDI  R30,HIGH(0xC8)
00033d 07be      	CPC  R27,R30
00033e f42c      	BRGE _0x20
00033f eea1      	LDI  R26,LOW(_tmr_wiipwm)
000340 e0b6      	LDI  R27,HIGH(_tmr_wiipwm)
000341 940e 1cc5 	CALL SUBOPT_0x2
000343 c013      	RJMP _0x21
                 _0x20:
000344 eea3      	LDI  R26,LOW(_Wiipwmleft)
000345 e0b6      	LDI  R27,HIGH(_Wiipwmleft)
000346 91ed      	LD   R30,X+
000347 91fd      	LD   R31,X+
000348 9731      	SBIW R30,1
000349 93fe      	ST   -X,R31
00034a 93ee      	ST   -X,R30
00034b eea5      	LDI  R26,LOW(_Wiipwmright)
00034c e0b6      	LDI  R27,HIGH(_Wiipwmright)
00034d 91ed      	LD   R30,X+
00034e 91fd      	LD   R31,X+
00034f 9731      	SBIW R30,1
000350 93fe      	ST   -X,R31
000351 93ee      	ST   -X,R30
000352 e0e0      	LDI  R30,LOW(0)
000353 93e0 06e1 	STS  _tmr_wiipwm,R30
000355 93e0 06e2 	STS  _tmr_wiipwm+1,R30
                 _0x21:
000357 c00d      	RJMP _0x22
                 _0x1D:
000358 e0e0      	LDI  R30,LOW(0)
000359 93e0 06e3 	STS  _Wiipwmleft,R30
00035b 93e0 06e4 	STS  _Wiipwmleft+1,R30
00035d 93e0 06e5 	STS  _Wiipwmright,R30
00035f 93e0 06e6 	STS  _Wiipwmright+1,R30
000361 93e0 06e1 	STS  _tmr_wiipwm,R30
000363 93e0 06e2 	STS  _tmr_wiipwm+1,R30
                 _0x22:
000365 91e9      	LD   R30,Y+
000366 bfef      	OUT  SREG,R30
000367 91f9      	LD   R31,Y+
000368 91e9      	LD   R30,Y+
000369 91b9      	LD   R27,Y+
00036a 91a9      	LD   R26,Y+
00036b 9009      	LD   R0,Y+
00036c 9518      	RETI
                 ; .FEND
                 _pwmmaker:
                 ; .FSTART _pwmmaker
00036d 93ba      	ST   -Y,R27
00036e 93aa      	ST   -Y,R26
                 ;	min_light -> Y+0
00036f 940e 1ce1 	CALL SUBOPT_0x7
000371 940e 1cea 	CALL SUBOPT_0x8
000373 f42c      	BRGE _0x24
000374 940e 1ce1 	CALL SUBOPT_0x7
000376 940e 1cf2 	CALL SUBOPT_0x9
000378 f40c      	BRGE _0x25
                 _0x24:
000379 c01b      	RJMP _0x26
                 _0x25:
00037a 940e 1cfa 	CALL SUBOPT_0xA
00037c 940e 1cea 	CALL SUBOPT_0x8
00037e f42c      	BRGE _0x27
00037f 940e 1cfa 	CALL SUBOPT_0xA
000381 940e 1cf2 	CALL SUBOPT_0x9
000383 f40c      	BRGE _0x28
                 _0x27:
000384 c010      	RJMP _0x26
                 _0x28:
000385 940e 1d03 	CALL SUBOPT_0xB
000387 01df      	MOVW R26,R30
000388 81e8      	LD   R30,Y
000389 81f9      	LDD  R31,Y+1
00038a 17ea      	CP   R30,R26
00038b 07fb      	CPC  R31,R27
00038c f440      	BRSH _0x26
00038d 940e 1d0c 	CALL SUBOPT_0xC
00038f 01df      	MOVW R26,R30
000390 81e8      	LD   R30,Y
000391 81f9      	LDD  R31,Y+1
000392 17ea      	CP   R30,R26
000393 07fb      	CPC  R31,R27
000394 f008      	BRLO _0x29
                 _0x26:
000395 c019      	RJMP _0x23
                 _0x29:
000396 940e 1d03 	CALL SUBOPT_0xB
000398 2766      	CLR  R22
000399 2777      	CLR  R23
00039a 93e0 078c 	STS  _newvalL,R30
00039c 93f0 078d 	STS  _newvalL+1,R31
00039e 9360 078e 	STS  _newvalL+2,R22
0003a0 9370 078f 	STS  _newvalL+3,R23
0003a2 940e 1d0c 	CALL SUBOPT_0xC
0003a4 2766      	CLR  R22
0003a5 2777      	CLR  R23
0003a6 93e0 0790 	STS  _newvalR,R30
0003a8 93f0 0791 	STS  _newvalR+1,R31
0003aa 9360 0792 	STS  _newvalR+2,R22
0003ac 9370 0793 	STS  _newvalR+3,R23
0003ae c011      	RJMP _0x2A
                 _0x23:
0003af e0e0      	LDI  R30,LOW(0)
0003b0 93e0 078c 	STS  _newvalL,R30
0003b2 93e0 078d 	STS  _newvalL+1,R30
0003b4 93e0 078e 	STS  _newvalL+2,R30
0003b6 93e0 078f 	STS  _newvalL+3,R30
0003b8 93e0 0790 	STS  _newvalR,R30
0003ba 93e0 0791 	STS  _newvalR+1,R30
0003bc 93e0 0792 	STS  _newvalR+2,R30
0003be 93e0 0793 	STS  _newvalR+3,R30
                 _0x2A:
0003c0 c265      	RJMP _0x20E0008
                 ; .FEND
                 _movement:
                 ; .FSTART _movement
0003c1 93ba      	ST   -Y,R27
0003c2 93aa      	ST   -Y,R26
                 ;	left -> Y+6
                 ;	right -> Y+4
                 ;	dir_left -> Y+2
                 ;	dir_right -> Y+0
0003c3 81ee      	LDD  R30,Y+6
0003c4 81ff      	LDD  R31,Y+6+1
0003c5 940e 1d15 	CALL SUBOPT_0xD
0003c7 81ec      	LDD  R30,Y+4
0003c8 81fd      	LDD  R31,Y+4+1
0003c9 940e 1d1a 	CALL SUBOPT_0xE
0003cb 81ea      	LDD  R30,Y+2
0003cc 30e0      	CPI  R30,0
0003cd f411      	BRNE _0x2B
0003ce 98df      	CBI  0x1B,7
0003cf c001      	RJMP _0x2C
                 _0x2B:
0003d0 9adf      	SBI  0x1B,7
                 _0x2C:
0003d1 81e8      	LD   R30,Y
0003d2 30e0      	CPI  R30,0
0003d3 f411      	BRNE _0x2D
0003d4 98dd      	CBI  0x1B,5
0003d5 c001      	RJMP _0x2E
                 _0x2D:
0003d6 9add      	SBI  0x1B,5
                 _0x2E:
0003d7 c08f      	RJMP _0x20E000A
                 ; .FEND
                 ;#include "modules/ir.h"
                 _timer0_ovf_isr:
                 ; .FSTART _timer0_ovf_isr
0003d8 940e 1cb9 	CALL SUBOPT_0x0
0003da efee      	LDI  R30,LOW(254)
0003db bfe2      	OUT  0x32,R30
0003dc 91a0 06e7 	LDS  R26,_rc5_time
0003de 5faf      	SUBI R26,-LOW(1)
0003df 93a0 06e7 	STS  _rc5_time,R26
0003e1 34a4      	CPI  R26,LOW(0x44)
0003e2 f0a0      	BRLO _0x2F
                +
0003e3 91e0 06eb+LDS R30 , _tmp + ( 1 )
                 	__GETB1MN _tmp,1
0003e5 74e0      	ANDI R30,LOW(0x40)
0003e6 f421      	BRNE _0x31
                +
0003e7 91e0 06eb+LDS R30 , _tmp + ( 1 )
                 	__GETB1MN _tmp,1
0003e9 72e0      	ANDI R30,LOW(0x20)
0003ea f409      	BRNE _0x32
                 _0x31:
0003eb c006      	RJMP _0x30
                 _0x32:
0003ec 940e 1d1f 	CALL SUBOPT_0xF
0003ee 93e0 06e8 	STS  _rc5_data,R30
0003f0 93f0 06e9 	STS  _rc5_data+1,R31
                 _0x30:
0003f2 e0e0      	LDI  R30,LOW(0)
0003f3 93e0 06ea 	STS  _tmp,R30
0003f5 93e0 06eb 	STS  _tmp+1,R30
                 _0x2F:
0003f7 e0a0      	LDI  R26,0
0003f8 fc20      	SBRC R2,0
0003f9 e0a1      	LDI  R26,1
0003fa e0e0      	LDI  R30,0
0003fb 99ca      	SBIC 0x19,2
0003fc e0e1      	LDI  R30,1
0003fd e0b0      	LDI  R27,0
0003fe e0f0      	LDI  R31,0
0003ff fde7      	SBRC R30,7
000400 efff      	SER  R31
000401 17ea      	CP   R30,R26
000402 07fb      	CPC  R31,R27
000403 f159      	BREQ _0x33
000404 e0e1      	LDI  R30,LOW(1)
000405 262e      	EOR  R2,R30
000406 91a0 06e7 	LDS  R26,_rc5_time
000408 30ab      	CPI  R26,LOW(0xB)
000409 f428      	BRSH _0x34
00040a e0e0      	LDI  R30,LOW(0)
00040b 93e0 06ea 	STS  _tmp,R30
00040d 93e0 06eb 	STS  _tmp+1,R30
                 _0x34:
00040f 940e 1d1f 	CALL SUBOPT_0xF
000411 9730      	SBIW R30,0
000412 f021      	BREQ _0x36
000413 91a0 06e7 	LDS  R26,_rc5_time
000415 32ad      	CPI  R26,LOW(0x2D)
000416 f0c0      	BRLO _0x35
                 _0x36:
                +
000417 91e0 06eb+LDS R30 , _tmp + ( 1 )
                 	__GETB1MN _tmp,1
000419 74e0      	ANDI R30,LOW(0x40)
00041a f441      	BRNE _0x38
00041b 940e 1d1f 	CALL SUBOPT_0xF
00041d 0fee      	LSL  R30
00041e 1fff      	ROL  R31
00041f 93e0 06ea 	STS  _tmp,R30
000421 93f0 06eb 	STS  _tmp+1,R31
                 _0x38:
000423 fc20      	SBRC R2,0
000424 c007      	RJMP _0x39
000425 940e 1d1f 	CALL SUBOPT_0xF
000427 60e1      	ORI  R30,1
000428 93e0 06ea 	STS  _tmp,R30
00042a 93f0 06eb 	STS  _tmp+1,R31
                 _0x39:
00042c e0e0      	LDI  R30,LOW(0)
00042d 93e0 06e7 	STS  _rc5_time,R30
                 _0x35:
                 _0x33:
00042f c2bd      	RJMP _0x37E
                 ; .FEND
                 _rc5_receive:
                 ; .FSTART _rc5_receive
000430 93ba      	ST   -Y,R27
000431 93aa      	ST   -Y,R26
000432 931a      	ST   -Y,R17
000433 930a      	ST   -Y,R16
                 ;	*ucToggle -> Y+6
                 ;	*ucAdress -> Y+4
                 ;	*ucData -> Y+2
                 ;	i -> R16,R17
000434 94f8      	cli
                +
000435 9100 06e8+LDS R16 , 0 + ( _rc5_data )
000437 9110 06e9+LDS R17 , 0 + ( _rc5_data ) + 1
                 	__GETWRMN 16,17,0,_rc5_data
000439 e0e0      	LDI  R30,LOW(0)
00043a 93e0 06e8 	STS  _rc5_data,R30
00043c 93e0 06e9 	STS  _rc5_data+1,R30
00043e 9478      	sei
00043f 2e00      	MOV  R0,R16
000440 2a01      	OR   R0,R17
000441 f109      	BREQ _0x3A
000442 01d8      	MOVW R26,R16
000443 e0eb      	LDI  R30,LOW(11)
000444 940e 21f1 	CALL __LSRW12
000446 70e1      	ANDI R30,LOW(0x1)
000447 81ae      	LDD  R26,Y+6
000448 81bf      	LDD  R27,Y+6+1
000449 93ec      	ST   X,R30
00044a 01d8      	MOVW R26,R16
00044b e0e6      	LDI  R30,LOW(6)
00044c 940e 21f1 	CALL __LSRW12
00044e 71ef      	ANDI R30,LOW(0x1F)
00044f 81ac      	LDD  R26,Y+4
000450 81bd      	LDD  R27,Y+4+1
000451 93ec      	ST   X,R30
000452 2fe0      	MOV  R30,R16
000453 73ef      	ANDI R30,LOW(0x3F)
000454 2fae      	MOV  R26,R30
000455 01f8      	MOVW R30,R16
000456 95e0      	COM  R30
000457 95f0      	COM  R31
000458 940e 2205 	CALL __LSRW3
00045a 940e 2203 	CALL __LSRW4
00045c 74e0      	ANDI R30,LOW(0x40)
00045d 2bea      	OR   R30,R26
00045e 81aa      	LDD  R26,Y+2
00045f 81bb      	LDD  R27,Y+2+1
000460 93ec      	ST   X,R30
000461 01f8      	MOVW R30,R16
000462 c002      	RJMP _0x20E0009
                 _0x3A:
000463 e0e0      	LDI  R30,LOW(0)
000464 e0f0      	LDI  R31,HIGH(0)
                 _0x20E0009:
000465 8119      	LDD  R17,Y+1
000466 8108      	LDD  R16,Y+0
                 _0x20E000A:
000467 9628      	ADIW R28,8
000468 9508      	RET
                 ; .FEND
                 _rc5_display:
                 ; .FSTART _rc5_display
000469 940e 1c16 	CALL _lcd_clear
                +
00046b e0a0     +LDI R26 , LOW ( _0x3C + ( 0 ) )
00046c e0b5     +LDI R27 , HIGH ( _0x3C + ( 0 ) )
                 	__POINTW2MN _0x3C,0
00046d 940e 1d24 	CALL SUBOPT_0x10
00046f 91a0 06ec 	LDS  R26,_ucToggle
000471 5da0      	SUBI R26,-LOW(48)
000472 940e 1c2b 	CALL _lcd_putchar
000474 e2a0      	LDI  R26,LOW(32)
000475 940e 1c2b 	CALL _lcd_putchar
000477 91e0 06ed 	LDS  R30,_ucAdress
000479 940e 1d2b 	CALL SUBOPT_0x11
00047b e2a0      	LDI  R26,LOW(32)
00047c 940e 1c2b 	CALL _lcd_putchar
00047e 91e0 06ee 	LDS  R30,_ucData
000480 940e 1d2b 	CALL SUBOPT_0x11
000482 9508      	RET
                 ; .FEND
                 
                 	.DSEG
                 _0x3C:
000500           	.BYTE 0x5
                 
                 	.CSEG
                 _ondata:
                 ; .FSTART _ondata
000483 eeec      	LDI  R30,LOW(_ucToggle)
000484 e0f6      	LDI  R31,HIGH(_ucToggle)
000485 93fa      	ST   -Y,R31
000486 93ea      	ST   -Y,R30
000487 eeed      	LDI  R30,LOW(_ucAdress)
000488 e0f6      	LDI  R31,HIGH(_ucAdress)
000489 93fa      	ST   -Y,R31
00048a 93ea      	ST   -Y,R30
00048b eeae      	LDI  R26,LOW(_ucData)
00048c e0b6      	LDI  R27,HIGH(_ucData)
00048d dfa2      	RCALL _rc5_receive
00048e 9730      	SBIW R30,0
00048f f079      	BREQ _0x3D
000490 91e0 06ee 	LDS  R30,_ucData
000492 e0f0      	LDI  R31,0
000493 9730      	SBIW R30,0
000494 f451      	BRNE _0x40
000495 e1eb      	LDI  R30,LOW(27)
000496 e0f0      	LDI  R31,HIGH(27)
000497 93e0 06c3 	STS  _currstate,R30
000499 93f0 06c4 	STS  _currstate+1,R31
00049b e6a4      	LDI  R26,LOW(100)
00049c e0b0      	LDI  R27,0
00049d 940e 20e2 	CALL _delay_ms
                 _0x40:
                 _0x3D:
00049f 91a0 06ee 	LDS  R26,_ucData
0004a1 30a1      	CPI  R26,LOW(0x1)
0004a2 f421      	BRNE _0x42
0004a3 e0ed      	LDI  R30,LOW(13)
0004a4 e0f0      	LDI  R31,HIGH(13)
0004a5 940e 1d36 	CALL SUBOPT_0x12
                 _0x42:
0004a7 91a0 06ee 	LDS  R26,_ucData
0004a9 30a2      	CPI  R26,LOW(0x2)
0004aa f421      	BRNE _0x43
0004ab e0ee      	LDI  R30,LOW(14)
0004ac e0f0      	LDI  R31,HIGH(14)
0004ad 940e 1d36 	CALL SUBOPT_0x12
                 _0x43:
0004af 91a0 06ee 	LDS  R26,_ucData
0004b1 30a3      	CPI  R26,LOW(0x3)
0004b2 f421      	BRNE _0x44
0004b3 e0ef      	LDI  R30,LOW(15)
0004b4 e0f0      	LDI  R31,HIGH(15)
0004b5 940e 1d36 	CALL SUBOPT_0x12
                 _0x44:
0004b7 91a0 06ee 	LDS  R26,_ucData
0004b9 30a4      	CPI  R26,LOW(0x4)
0004ba f421      	BRNE _0x45
0004bb e1e0      	LDI  R30,LOW(16)
0004bc e0f0      	LDI  R31,HIGH(16)
0004bd 940e 1d36 	CALL SUBOPT_0x12
                 _0x45:
0004bf 91a0 06ee 	LDS  R26,_ucData
0004c1 30a5      	CPI  R26,LOW(0x5)
0004c2 f421      	BRNE _0x46
0004c3 e1e1      	LDI  R30,LOW(17)
0004c4 e0f0      	LDI  R31,HIGH(17)
0004c5 940e 1d36 	CALL SUBOPT_0x12
                 _0x46:
0004c7 91a0 06ee 	LDS  R26,_ucData
0004c9 30a6      	CPI  R26,LOW(0x6)
0004ca f421      	BRNE _0x47
0004cb e1e2      	LDI  R30,LOW(18)
0004cc e0f0      	LDI  R31,HIGH(18)
0004cd 940e 1d36 	CALL SUBOPT_0x12
                 _0x47:
0004cf 91a0 06ee 	LDS  R26,_ucData
0004d1 30a7      	CPI  R26,LOW(0x7)
0004d2 f421      	BRNE _0x48
0004d3 e1e3      	LDI  R30,LOW(19)
0004d4 e0f0      	LDI  R31,HIGH(19)
0004d5 940e 1d36 	CALL SUBOPT_0x12
                 _0x48:
0004d7 91a0 06ee 	LDS  R26,_ucData
0004d9 30a8      	CPI  R26,LOW(0x8)
0004da f421      	BRNE _0x49
0004db e1e4      	LDI  R30,LOW(20)
0004dc e0f0      	LDI  R31,HIGH(20)
0004dd 940e 1d36 	CALL SUBOPT_0x12
                 _0x49:
0004df 91a0 06ee 	LDS  R26,_ucData
0004e1 31a2      	CPI  R26,LOW(0x12)
0004e2 f421      	BRNE _0x4A
0004e3 e0ec      	LDI  R30,LOW(12)
0004e4 e0f0      	LDI  R31,HIGH(12)
0004e5 940e 1d36 	CALL SUBOPT_0x12
                 _0x4A:
0004e7 91a0 06ee 	LDS  R26,_ucData
0004e9 31a3      	CPI  R26,LOW(0x13)
0004ea f421      	BRNE _0x4B
0004eb e0eb      	LDI  R30,LOW(11)
0004ec e0f0      	LDI  R31,HIGH(11)
0004ed 940e 1d36 	CALL SUBOPT_0x12
                 _0x4B:
0004ef 91a0 06ee 	LDS  R26,_ucData
0004f1 31a6      	CPI  R26,LOW(0x16)
0004f2 f421      	BRNE _0x4C
0004f3 e0e9      	LDI  R30,LOW(9)
0004f4 e0f0      	LDI  R31,HIGH(9)
0004f5 940e 1d36 	CALL SUBOPT_0x12
                 _0x4C:
0004f7 91a0 06ee 	LDS  R26,_ucData
0004f9 31a7      	CPI  R26,LOW(0x17)
0004fa f421      	BRNE _0x4D
0004fb e0ea      	LDI  R30,LOW(10)
0004fc e0f0      	LDI  R31,HIGH(10)
0004fd 940e 1d36 	CALL SUBOPT_0x12
                 _0x4D:
0004ff 9508      	RET
                 ; .FEND
                 ;#include "modules/servo.h"
                 _timer2_ovf_isr:
                 ; .FSTART _timer2_ovf_isr
000500 93ea      	ST   -Y,R30
000501 93fa      	ST   -Y,R31
000502 b7ef      	IN   R30,SREG
000503 93ea      	ST   -Y,R30
000504 9897      	CBI  0x12,7
                +
000505 1486     +CP R8 , R6
000506 0497     +CPC R9 , R7
                 	__CPWRR 8,9,6,7
000507 f429      	BRNE _0x51
000508 e6e4      	LDI  R30,LOW(100)
000509 e0f0      	LDI  R31,HIGH(100)
00050a 15e4      	CP   R30,R4
00050b 05f5      	CPC  R31,R5
00050c f439      	BRNE _0x50
                 _0x51:
00050d 0143      	MOVW R8,R6
00050e e0e1      	LDI  R30,LOW(1)
00050f e0f0      	LDI  R31,HIGH(1)
000510 012f      	MOVW R4,R30
000511 bc64      	OUT  0x24,R6
000512 9a97      	SBI  0x12,7
000513 c005      	RJMP _0x55
                 _0x50:
000514 01f2      	MOVW R30,R4
000515 9632      	ADIW R30,2
000516 012f      	MOVW R4,R30
000517 e0e0      	LDI  R30,LOW(0)
000518 bde4      	OUT  0x24,R30
                 _0x55:
000519 91e9      	LD   R30,Y+
00051a bfef      	OUT  SREG,R30
00051b 91f9      	LD   R31,Y+
00051c 91e9      	LD   R30,Y+
00051d 9518      	RETI
                 ; .FEND
                 _fnDisplay:
                 ; .FSTART _fnDisplay
00051e 972a      	SBIW R28,10
                 ;	str -> Y+0
00051f 940e 1c16 	CALL _lcd_clear
                +
000521 e0a5     +LDI R26 , LOW ( _0x56 + ( 0 ) )
000522 e0b5     +LDI R27 , HIGH ( _0x56 + ( 0 ) )
                 	__POINTW2MN _0x56,0
000523 940e 1d24 	CALL SUBOPT_0x10
000525 01f3      	MOVW R30,R6
000526 5aea      	SUBI R30,LOW(170)
000527 40f0      	SBCI R31,HIGH(170)
000528 93fa      	ST   -Y,R31
000529 93ea      	ST   -Y,R30
00052a e9ab      	LDI  R26,LOW(_strTemp)
00052b e0b6      	LDI  R27,HIGH(_strTemp)
00052c 940e 19dc 	CALL _itoa
00052e e9ab      	LDI  R26,LOW(_strTemp)
00052f e0b6      	LDI  R27,HIGH(_strTemp)
000530 940e 1c52 	CALL _lcd_puts
000532 c236      	RJMP _0x20E0007
                 ; .FEND
                 
                 	.DSEG
                 _0x56:
000505           	.BYTE 0xF
                 
                 	.CSEG
                 _fnServo:
                 ; .FSTART _fnServo
000533 91a0 06c5 	LDS  R26,_state
000535 91b0 06c6 	LDS  R27,_state+1
000537 9758      	SBIW R26,24
000538 f441      	BRNE _0x57
000539 edec      	LDI  R30,LOW(220)
00053a e0f0      	LDI  R31,HIGH(220)
00053b 166e      	CP   R6,R30
00053c 067f      	CPC  R7,R31
00053d f41c      	BRGE _0x58
00053e 01f3      	MOVW R30,R6
00053f 9631      	ADIW R30,1
000540 013f      	MOVW R6,R30
                 _0x58:
                 _0x57:
000541 91a0 06c5 	LDS  R26,_state
000543 91b0 06c6 	LDS  R27,_state+1
000545 9759      	SBIW R26,25
000546 f441      	BRNE _0x59
000547 e7e8      	LDI  R30,LOW(120)
000548 e0f0      	LDI  R31,HIGH(120)
000549 15e6      	CP   R30,R6
00054a 05f7      	CPC  R31,R7
00054b f41c      	BRGE _0x5A
00054c 01f3      	MOVW R30,R6
00054d 9731      	SBIW R30,1
00054e 013f      	MOVW R6,R30
                 _0x5A:
                 _0x59:
00054f 9508      	RET
                 ; .FEND
                 ;#include "modules/esp_main_func.h"
                 _esp_states:
                 ; .FSTART _esp_states
000550 91a0 06c3 	LDS  R26,_currstate
000552 91b0 06c4 	LDS  R27,_currstate+1
000554 9710      	SBIW R26,0
000555 f419      	BRNE _0x5B
000556 e1eb      	LDI  R30,LOW(27)
000557 e0f0      	LDI  R31,HIGH(27)
000558 c005      	RJMP _0x366
                 _0x5B:
000559 91e0 06c3 	LDS  R30,_currstate
00055b 91f0 06c4 	LDS  R31,_currstate+1
00055d 9731      	SBIW R30,1
                 _0x366:
00055e 93e0 06c5 	STS  _state,R30
000560 93f0 06c6 	STS  _state+1,R31
000562 9508      	RET
                 ; .FEND
                 _esp_mainfunctions:
                 ; .FSTART _esp_mainfunctions
000563 9900      	SBIC 0x0,0
000564 c003      	RJMP _0x5E
000565 e0e1      	LDI  R30,LOW(1)
000566 e0f0      	LDI  R31,HIGH(1)
000567 c002      	RJMP _0x367
                 _0x5E:
000568 e0e0      	LDI  R30,LOW(0)
000569 e0f0      	LDI  R31,HIGH(0)
                 _0x367:
00056a 93e0 06c7 	STS  _line_left,R30
00056c 93f0 06c8 	STS  _line_left+1,R31
00056e 9902      	SBIC 0x0,2
00056f c003      	RJMP _0x61
000570 e0e1      	LDI  R30,LOW(1)
000571 e0f0      	LDI  R31,HIGH(1)
000572 c002      	RJMP _0x368
                 _0x61:
000573 e0e0      	LDI  R30,LOW(0)
000574 e0f0      	LDI  R31,HIGH(0)
                 _0x368:
000575 93e0 06c9 	STS  _line_mleft,R30
000577 93f0 06ca 	STS  _line_mleft+1,R31
000579 9904      	SBIC 0x0,4
00057a c003      	RJMP _0x64
00057b e0e1      	LDI  R30,LOW(1)
00057c e0f0      	LDI  R31,HIGH(1)
00057d c002      	RJMP _0x369
                 _0x64:
00057e e0e0      	LDI  R30,LOW(0)
00057f e0f0      	LDI  R31,HIGH(0)
                 _0x369:
000580 93e0 06cb 	STS  _line_mright,R30
000582 93f0 06cc 	STS  _line_mright+1,R31
000584 9906      	SBIC 0x0,6
000585 c003      	RJMP _0x67
000586 e0e1      	LDI  R30,LOW(1)
000587 e0f0      	LDI  R31,HIGH(1)
000588 c002      	RJMP _0x36A
                 _0x67:
000589 e0e0      	LDI  R30,LOW(0)
00058a e0f0      	LDI  R31,HIGH(0)
                 _0x36A:
00058b 93e0 06cd 	STS  _line_right,R30
00058d 93f0 06ce 	STS  _line_right+1,R31
00058f 91e0 06c7 	LDS  R30,_line_left
000591 91f0 06c8 	LDS  R31,_line_left+1
000593 eea8      	LDI  R26,LOW(1000)
000594 e0b3      	LDI  R27,HIGH(1000)
000595 940e 222f 	CALL __MULW12
000597 01bf      	MOVW R22,R30
000598 91e0 06c9 	LDS  R30,_line_mleft
00059a 91f0 06ca 	LDS  R31,_line_mleft+1
00059c 940e 1d3b 	CALL SUBOPT_0x13
00059e 91e0 06cb 	LDS  R30,_line_mright
0005a0 91f0 06cc 	LDS  R31,_line_mright+1
0005a2 940e 1d42 	CALL SUBOPT_0x14
0005a4 91a0 06cd 	LDS  R26,_line_right
0005a6 91b0 06ce 	LDS  R27,_line_right+1
0005a8 0fea      	ADD  R30,R26
0005a9 1ffb      	ADC  R31,R27
0005aa 93e0 06d7 	STS  _linesensorvaluetemp,R30
0005ac 93f0 06d8 	STS  _linesensorvaluetemp+1,R31
0005ae 99b0      	SBIC 0x16,0
0005af c003      	RJMP _0x6A
0005b0 e0e1      	LDI  R30,LOW(1)
0005b1 e0f0      	LDI  R31,HIGH(1)
0005b2 c002      	RJMP _0x36B
                 _0x6A:
0005b3 e0e0      	LDI  R30,LOW(0)
0005b4 e0f0      	LDI  R31,HIGH(0)
                 _0x36B:
0005b5 93e0 06cf 	STS  _dist_left,R30
0005b7 93f0 06d0 	STS  _dist_left+1,R31
0005b9 99b2      	SBIC 0x16,2
0005ba c003      	RJMP _0x6D
0005bb e0e1      	LDI  R30,LOW(1)
0005bc e0f0      	LDI  R31,HIGH(1)
0005bd c002      	RJMP _0x36C
                 _0x6D:
0005be e0e0      	LDI  R30,LOW(0)
0005bf e0f0      	LDI  R31,HIGH(0)
                 _0x36C:
0005c0 93e0 06d1 	STS  _dist_fleft,R30
0005c2 93f0 06d2 	STS  _dist_fleft+1,R31
0005c4 99b4      	SBIC 0x16,4
0005c5 c003      	RJMP _0x70
0005c6 e0e1      	LDI  R30,LOW(1)
0005c7 e0f0      	LDI  R31,HIGH(1)
0005c8 c002      	RJMP _0x36D
                 _0x70:
0005c9 e0e0      	LDI  R30,LOW(0)
0005ca e0f0      	LDI  R31,HIGH(0)
                 _0x36D:
0005cb 93e0 06d3 	STS  _dist_fright,R30
0005cd 93f0 06d4 	STS  _dist_fright+1,R31
0005cf 99b6      	SBIC 0x16,6
0005d0 c003      	RJMP _0x73
0005d1 e0e1      	LDI  R30,LOW(1)
0005d2 e0f0      	LDI  R31,HIGH(1)
0005d3 c002      	RJMP _0x36E
                 _0x73:
0005d4 e0e0      	LDI  R30,LOW(0)
0005d5 e0f0      	LDI  R31,HIGH(0)
                 _0x36E:
0005d6 93e0 06d5 	STS  _dist_right,R30
0005d8 93f0 06d6 	STS  _dist_right+1,R31
0005da 91e0 06cf 	LDS  R30,_dist_left
0005dc 91f0 06d0 	LDS  R31,_dist_left+1
0005de eea8      	LDI  R26,LOW(1000)
0005df e0b3      	LDI  R27,HIGH(1000)
0005e0 940e 222f 	CALL __MULW12
0005e2 01bf      	MOVW R22,R30
0005e3 91e0 06d1 	LDS  R30,_dist_fleft
0005e5 91f0 06d2 	LDS  R31,_dist_fleft+1
0005e7 940e 1d3b 	CALL SUBOPT_0x13
0005e9 91e0 06d3 	LDS  R30,_dist_fright
0005eb 91f0 06d4 	LDS  R31,_dist_fright+1
0005ed 940e 1d42 	CALL SUBOPT_0x14
0005ef 91a0 06d5 	LDS  R26,_dist_right
0005f1 91b0 06d6 	LDS  R27,_dist_right+1
0005f3 0fea      	ADD  R30,R26
0005f4 1ffb      	ADC  R31,R27
0005f5 93e0 06d9 	STS  _distanzsensorvaluetemp,R30
0005f7 93f0 06da 	STS  _distanzsensorvaluetemp+1,R31
0005f9 9508      	RET
                 ; .FEND
                 ;#include "modules/wiicam.h"
                 _wii_cam_init:
                 ; .FSTART _wii_cam_init
0005fa e3e0      	LDI  R30,LOW(48)
0005fb 93ea      	ST   -Y,R30
0005fc e0a1      	LDI  R26,LOW(1)
0005fd d016      	RCALL _write2Byte
0005fe e3e0      	LDI  R30,LOW(48)
0005ff 93ea      	ST   -Y,R30
000600 e0a8      	LDI  R26,LOW(8)
000601 d012      	RCALL _write2Byte
000602 e0e6      	LDI  R30,LOW(6)
000603 93ea      	ST   -Y,R30
000604 e9a0      	LDI  R26,LOW(144)
000605 d00e      	RCALL _write2Byte
000606 e0e8      	LDI  R30,LOW(8)
000607 93ea      	ST   -Y,R30
000608 eca0      	LDI  R26,LOW(192)
000609 d00a      	RCALL _write2Byte
00060a e1ea      	LDI  R30,LOW(26)
00060b 93ea      	ST   -Y,R30
00060c e4a0      	LDI  R26,LOW(64)
00060d d006      	RCALL _write2Byte
00060e e3e3      	LDI  R30,LOW(51)
00060f 93ea      	ST   -Y,R30
000610 e3a3      	LDI  R26,LOW(51)
000611 d002      	RCALL _write2Byte
000612 e6a4      	LDI  R26,LOW(100)
000613 c222      	RJMP _0x20E0006
                 ; .FEND
                 _write2Byte:
                 ; .FSTART _write2Byte
000614 93aa      	ST   -Y,R26
                 ;	b1 -> Y+1
                 ;	b2 -> Y+0
000615 940e 2096 	CALL _i2c_start
000617 eba0      	LDI  R26,LOW(176)
000618 940e 20ca 	CALL _i2c_write
00061a 81a9      	LDD  R26,Y+1
00061b 940e 20ca 	CALL _i2c_write
00061d 81a8      	LD   R26,Y
00061e 940e 20ca 	CALL _i2c_write
000620 940e 20a5 	CALL _i2c_stop
000622 e0aa      	LDI  R26,LOW(10)
000623 e0b0      	LDI  R27,0
000624 940e 20e2 	CALL _delay_ms
                 _0x20E0008:
000626 9622      	ADIW R28,2
000627 9508      	RET
                 ; .FEND
                 _readData:
                 ; .FSTART _readData
000628 931a      	ST   -Y,R17
                 ;	i -> R17
000629 e010      	LDI  R17,0
00062a 940e 2096 	CALL _i2c_start
00062c eba0      	LDI  R26,LOW(176)
00062d 940e 20ca 	CALL _i2c_write
00062f e3a6      	LDI  R26,LOW(54)
000630 940e 20ca 	CALL _i2c_write
000632 940e 20a5 	CALL _i2c_stop
000634 e0a1      	LDI  R26,LOW(1)
000635 e0b0      	LDI  R27,0
000636 940e 20e2 	CALL _delay_ms
000638 940e 2096 	CALL _i2c_start
00063a eba1      	LDI  R26,LOW(177)
00063b 940e 20ca 	CALL _i2c_write
00063d e010      	LDI  R17,LOW(0)
                 _0x77:
00063e 301f      	CPI  R17,15
00063f f490      	BRSH _0x78
000640 2fe1      	MOV  R30,R17
000641 e4a0      	LDI  R26,LOW(_data)
000642 e0b7      	LDI  R27,HIGH(_data)
000643 e0f0      	LDI  R31,0
000644 940e 1d49 	CALL SUBOPT_0x15
000646 93ff      	PUSH R31
000647 93ef      	PUSH R30
000648 e0a1      	LDI  R26,LOW(1)
000649 940e 20af 	CALL _i2c_read
00064b 91af      	POP  R26
00064c 91bf      	POP  R27
00064d e0f0      	LDI  R31,0
00064e 93ed      	ST   X+,R30
00064f 93fc      	ST   X,R31
000650 5f1f      	SUBI R17,-1
000651 cfec      	RJMP _0x77
                 _0x78:
000652 e0a0      	LDI  R26,LOW(0)
000653 940e 20af 	CALL _i2c_read
                +
000655 e5ae     +LDI R26 , LOW ( _data + ( 30 ) )
000656 e0b7     +LDI R27 , HIGH ( _data + ( 30 ) )
                 	__POINTW2MN _data,30
000657 e0f0      	LDI  R31,0
000658 93ed      	ST   X+,R30
000659 93fc      	ST   X,R31
00065a 940e 20a5 	CALL _i2c_stop
00065c 9119      	LD   R17,Y+
00065d 9508      	RET
                 ; .FEND
                 _convertdata:
                 ; .FSTART _convertdata
00065e 931a      	ST   -Y,R17
00065f 930a      	ST   -Y,R16
                 ;	i -> R16,R17
                +
000660 e000     +LDI R16 , LOW ( 0 )
000661 e010     +LDI R17 , HIGH ( 0 )
                 	__GETWRN 16,17,0
                +
000662 e000     +LDI R16 , LOW ( 0 )
000663 e010     +LDI R17 , HIGH ( 0 )
                 	__GETWRN 16,17,0
                 _0x7A:
                +
000664 3004     +CPI R16 , LOW ( 4 )
000665 e0e0     +LDI R30 , HIGH ( 4 )
000666 071e     +CPC R17 , R30
                 	__CPWRN 16,17,4
000667 f00c      	BRLT PC+2
000668 c048      	RJMP _0x7B
000669 940e 1d4e 	CALL SUBOPT_0x16
00066b 940e 1d54 	CALL SUBOPT_0x17
00066d 73e0      	ANDI R30,LOW(0x30)
00066e 70f0      	ANDI R31,HIGH(0x30)
00066f 940e 21fa 	CALL __LSLW4
000671 93e0 0779 	STS  _temp,R30
000673 93f0 077a 	STS  _temp+1,R31
000675 01f8      	MOVW R30,R16
000676 e6a5      	LDI  R26,LOW(_x)
000677 e0b7      	LDI  R27,HIGH(_x)
000678 940e 1d49 	CALL SUBOPT_0x15
00067a 01bf      	MOVW R22,R30
00067b 940e 1d4e 	CALL SUBOPT_0x16
00067d 01df      	MOVW R26,R30
00067e 0faa      	LSL  R26
00067f 1fbb      	ROL  R27
                +
000680 5bae     +SUBI R26 , LOW ( - _data - ( 2 ) )
000681 4fb8     +SBCI R27 , HIGH ( - _data - ( 2 ) )
                 	__ADDW2MN _data,2
000682 940e 1d5c 	CALL SUBOPT_0x18
000684 940e 1d4e 	CALL SUBOPT_0x16
000686 940e 1d54 	CALL SUBOPT_0x17
000688 7ce0      	ANDI R30,LOW(0xC0)
000689 70f0      	ANDI R31,HIGH(0xC0)
00068a 940e 21fe 	CALL __LSLW2
00068c 93e0 0779 	STS  _temp,R30
00068e 93f0 077a 	STS  _temp+1,R31
000690 01f8      	MOVW R30,R16
000691 e6ad      	LDI  R26,LOW(_y)
000692 e0b7      	LDI  R27,HIGH(_y)
000693 940e 1d49 	CALL SUBOPT_0x15
000695 01bf      	MOVW R22,R30
000696 940e 1d4e 	CALL SUBOPT_0x16
000698 01df      	MOVW R26,R30
000699 0faa      	LSL  R26
00069a 1fbb      	ROL  R27
                +
00069b 5bac     +SUBI R26 , LOW ( - _data - ( 4 ) )
00069c 4fb8     +SBCI R27 , HIGH ( - _data - ( 4 ) )
                 	__ADDW2MN _data,4
00069d 940e 1d5c 	CALL SUBOPT_0x18
00069f 01f8      	MOVW R30,R16
0006a0 58eb      	SUBI R30,LOW(-_sWIICAM)
0006a1 4ff8      	SBCI R31,HIGH(-_sWIICAM)
0006a2 01bf      	MOVW R22,R30
0006a3 940e 1d4e 	CALL SUBOPT_0x16
0006a5 01df      	MOVW R26,R30
0006a6 0faa      	LSL  R26
0006a7 1fbb      	ROL  R27
                +
0006a8 5baa     +SUBI R26 , LOW ( - _data - ( 6 ) )
0006a9 4fb8     +SBCI R27 , HIGH ( - _data - ( 6 ) )
                 	__ADDW2MN _data,6
0006aa 91ec      	LD   R30,X
0006ab 70ef      	ANDI R30,LOW(0xF)
0006ac 01db      	MOVW R26,R22
0006ad 93ec      	ST   X,R30
                +
0006ae 5f0f     +SUBI R16 , LOW ( - 1 )
0006af 4f1f     +SBCI R17 , HIGH ( - 1 )
                 	__ADDWRN 16,17,1
0006b0 cfb3      	RJMP _0x7A
                 _0x7B:
0006b1 9109      	LD   R16,Y+
0006b2 9119      	LD   R17,Y+
0006b3 9508      	RET
                 ; .FEND
                 ;#include "modules/ultrasonic.h"
                 _timer3_capt_isr:
                 ; .FSTART _timer3_capt_isr
0006b4 940e 1cb9 	CALL SUBOPT_0x0
0006b6 91e0 0080 	LDS  R30,128
0006b8 93e0 073e 	STS  _icr3,R30
0006ba 91e0 0081 	LDS  R30,129
                +
0006bc 93e0 073f+STS _icr3 + ( 1 ) , R30
                 	__PUTB1MN _icr3,1
0006be 9b0f      	SBIS 0x1,7
0006bf c00e      	RJMP _0x7C
0006c0 91e0 073e 	LDS  R30,_icr3
0006c2 91f0 073f 	LDS  R31,_icr3+1
0006c4 93e0 0738 	STS  _iRisingEdge,R30
0006c6 93f0 0739 	STS  _iRisingEdge+1,R31
0006c8 91e0 008a 	LDS  R30,138
0006ca 7bef      	ANDI R30,0xBF
0006cb 93e0 008a 	STS  138,R30
0006cd c01f      	RJMP _0x7D
                 _0x7C:
0006ce 91e0 073e 	LDS  R30,_icr3
0006d0 91f0 073f 	LDS  R31,_icr3+1
0006d2 93e0 073a 	STS  _iFallingEdge,R30
0006d4 93f0 073b 	STS  _iFallingEdge+1,R31
0006d6 91e0 008a 	LDS  R30,138
0006d8 64e0      	ORI  R30,0x40
0006d9 93e0 008a 	STS  138,R30
0006db 91a0 0738 	LDS  R26,_iRisingEdge
0006dd 91b0 0739 	LDS  R27,_iRisingEdge+1
0006df 91e0 073a 	LDS  R30,_iFallingEdge
0006e1 91f0 073b 	LDS  R31,_iFallingEdge+1
0006e3 1bea      	SUB  R30,R26
0006e4 0bfb      	SBC  R31,R27
0006e5 940e 21fe 	CALL __LSLW2
0006e7 93e0 073c 	STS  _iTime,R30
0006e9 93f0 073d 	STS  _iTime+1,R31
0006eb 9468      	SET
0006ec f822      	BLD  R2,2
                 _0x7D:
                 _0x37E:
0006ed 91e9      	LD   R30,Y+
0006ee bfef      	OUT  SREG,R30
0006ef 91f9      	LD   R31,Y+
0006f0 91e9      	LD   R30,Y+
0006f1 91b9      	LD   R27,Y+
0006f2 91a9      	LD   R26,Y+
0006f3 9518      	RETI
                 ; .FEND
                 _timer3_compa_isr:
                 ; .FSTART _timer3_compa_isr
0006f4 938a      	ST   -Y,R24
0006f5 93ea      	ST   -Y,R30
0006f6 b7ef      	IN   R30,SREG
0006f7 9ac1      	SBI  0x18,1
                +
0006f8 e385     +LDI R24 , LOW ( 53 )
                +__DELAY_USB_LOOP :
0006f9 958a     +DEC R24
0006fa f7f1     +BRNE __DELAY_USB_LOOP
                 	__DELAY_USB 53
0006fb 98c1      	CBI  0x18,1
0006fc bfef      	OUT  SREG,R30
0006fd 91e9      	LD   R30,Y+
0006fe 9189      	LD   R24,Y+
0006ff 9518      	RETI
                 ; .FEND
                 ;#include "modules/states/states.h"
                 _STATE_LINE_SENSOR:
                 ; .FSTART _STATE_LINE_SENSOR
000700 940e 1c16 	CALL _lcd_clear
000702 9900      	SBIC 0x0,0
000703 c003      	RJMP _0x82
                +
000704 e1a4     +LDI R26 , LOW ( _0x83 + ( 0 ) )
000705 e0b5     +LDI R27 , HIGH ( _0x83 + ( 0 ) )
                 	__POINTW2MN _0x83,0
000706 c002      	RJMP _0x36F
                 _0x82:
                +
000707 e1ac     +LDI R26 , LOW ( _0x83 + ( 8 ) )
000708 e0b5     +LDI R27 , HIGH ( _0x83 + ( 8 ) )
                 	__POINTW2MN _0x83,8
                 _0x36F:
000709 940e 1c52 	CALL _lcd_puts
00070b 9906      	SBIC 0x0,6
00070c c003      	RJMP _0x85
                +
00070d e2a4     +LDI R26 , LOW ( _0x83 + ( 16 ) )
00070e e0b5     +LDI R27 , HIGH ( _0x83 + ( 16 ) )
                 	__POINTW2MN _0x83,16
00070f c002      	RJMP _0x370
                 _0x85:
                +
000710 e2ae     +LDI R26 , LOW ( _0x83 + ( 26 ) )
000711 e0b5     +LDI R27 , HIGH ( _0x83 + ( 26 ) )
                 	__POINTW2MN _0x83,26
                 _0x370:
000712 940e 1c52 	CALL _lcd_puts
000714 940e 1d68 	CALL SUBOPT_0x19
000716 9902      	SBIC 0x0,2
000717 c003      	RJMP _0x87
                +
000718 e3a8     +LDI R26 , LOW ( _0x83 + ( 36 ) )
000719 e0b5     +LDI R27 , HIGH ( _0x83 + ( 36 ) )
                 	__POINTW2MN _0x83,36
00071a c002      	RJMP _0x371
                 _0x87:
                +
00071b e4a1     +LDI R26 , LOW ( _0x83 + ( 45 ) )
00071c e0b5     +LDI R27 , HIGH ( _0x83 + ( 45 ) )
                 	__POINTW2MN _0x83,45
                 _0x371:
00071d 940e 1c52 	CALL _lcd_puts
00071f 9904      	SBIC 0x0,4
000720 c003      	RJMP _0x89
                +
000721 e4aa     +LDI R26 , LOW ( _0x83 + ( 54 ) )
000722 e0b5     +LDI R27 , HIGH ( _0x83 + ( 54 ) )
                 	__POINTW2MN _0x83,54
000723 c002      	RJMP _0x372
                 _0x89:
                +
000724 e5a3     +LDI R26 , LOW ( _0x83 + ( 63 ) )
000725 e0b5     +LDI R27 , HIGH ( _0x83 + ( 63 ) )
                 	__POINTW2MN _0x83,63
                 _0x372:
000726 940e 1c52 	CALL _lcd_puts
000728 9508      	RET
                 ; .FEND
                 
                 	.DSEG
                 _0x83:
000514           	.BYTE 0x48
                 
                 	.CSEG
                 _STATE_ENGINE:
                 ; .FSTART _STATE_ENGINE
000729 9761      	SBIW R28,17
                 ;	str -> Y+0
00072a 940e 1d6d 	CALL SUBOPT_0x1A
00072c f439      	BRNE _0x8B
                +
00072d e5ac     +LDI R26 , LOW ( _0x8C + ( 0 ) )
00072e e0b5     +LDI R27 , HIGH ( _0x8C + ( 0 ) )
                 	__POINTW2MN _0x8C,0
00072f 940e 1c52 	CALL _lcd_puts
000731 98df      	CBI  0x1B,7
000732 98dd      	CBI  0x1B,5
000733 c006      	RJMP _0x91
                 _0x8B:
                +
000734 e6ad     +LDI R26 , LOW ( _0x8C + ( 17 ) )
000735 e0b5     +LDI R27 , HIGH ( _0x8C + ( 17 ) )
                 	__POINTW2MN _0x8C,17
000736 940e 1c52 	CALL _lcd_puts
000738 9adf      	SBI  0x1B,7
000739 9add      	SBI  0x1B,5
                 _0x91:
00073a 940e 1d68 	CALL SUBOPT_0x19
                +
00073c e7ae     +LDI R26 , LOW ( _0x8C + ( 34 ) )
00073d e0b5     +LDI R27 , HIGH ( _0x8C + ( 34 ) )
                 	__POINTW2MN _0x8C,34
00073e 940e 1d7b 	CALL SUBOPT_0x1B
                +
000740 e8a1     +LDI R26 , LOW ( _0x8C + ( 37 ) )
000741 e0b5     +LDI R27 , HIGH ( _0x8C + ( 37 ) )
                 	__POINTW2MN _0x8C,37
000742 940e 1d8a 	CALL SUBOPT_0x1C
000744 99ce      	SBIC 0x19,6
000745 c002      	RJMP _0x96
000746 940e 1d99 	CALL SUBOPT_0x1D
                 _0x96:
000748 9661      	ADIW R28,17
000749 9508      	RET
                 ; .FEND
                 
                 	.DSEG
                 _0x8C:
00055c           	.BYTE 0x29
                 
                 	.CSEG
                 _STATE_ENGINE_DIR:
                 ; .FSTART _STATE_ENGINE_DIR
00074a 972a      	SBIW R28,10
                 ;	str -> Y+0
00074b 940e 1d6d 	CALL SUBOPT_0x1A
00074d f439      	BRNE _0x97
                +
00074e e8a5     +LDI R26 , LOW ( _0x98 + ( 0 ) )
00074f e0b5     +LDI R27 , HIGH ( _0x98 + ( 0 ) )
                 	__POINTW2MN _0x98,0
000750 940e 1c52 	CALL _lcd_puts
000752 98df      	CBI  0x1B,7
000753 9add      	SBI  0x1B,5
000754 c006      	RJMP _0x9D
                 _0x97:
                +
000755 e9a5     +LDI R26 , LOW ( _0x98 + ( 16 ) )
000756 e0b5     +LDI R27 , HIGH ( _0x98 + ( 16 ) )
                 	__POINTW2MN _0x98,16
000757 940e 1c52 	CALL _lcd_puts
000759 9adf      	SBI  0x1B,7
00075a 98dd      	CBI  0x1B,5
                 _0x9D:
00075b 940e 1d68 	CALL SUBOPT_0x19
                +
00075d eaa4     +LDI R26 , LOW ( _0x98 + ( 31 ) )
00075e e0b5     +LDI R27 , HIGH ( _0x98 + ( 31 ) )
                 	__POINTW2MN _0x98,31
00075f 940e 1d7b 	CALL SUBOPT_0x1B
                +
000761 eaa7     +LDI R26 , LOW ( _0x98 + ( 34 ) )
000762 e0b5     +LDI R27 , HIGH ( _0x98 + ( 34 ) )
                 	__POINTW2MN _0x98,34
000763 940e 1d8a 	CALL SUBOPT_0x1C
000765 99ce      	SBIC 0x19,6
000766 c002      	RJMP _0xA2
000767 940e 1d99 	CALL SUBOPT_0x1D
                 _0xA2:
                 _0x20E0007:
000769 962a      	ADIW R28,10
00076a 9508      	RET
                 ; .FEND
                 
                 	.DSEG
                 _0x98:
000585           	.BYTE 0x26
                 
                 	.CSEG
                 _STATE_DISTANCE_SENSOR:
                 ; .FSTART _STATE_DISTANCE_SENSOR
00076b 940e 1c16 	CALL _lcd_clear
00076d 99b0      	SBIC 0x16,0
00076e c003      	RJMP _0xA3
                +
00076f eaab     +LDI R26 , LOW ( _0xA4 + ( 0 ) )
000770 e0b5     +LDI R27 , HIGH ( _0xA4 + ( 0 ) )
                 	__POINTW2MN _0xA4,0
000771 c002      	RJMP _0x373
                 _0xA3:
                +
000772 eba3     +LDI R26 , LOW ( _0xA4 + ( 8 ) )
000773 e0b5     +LDI R27 , HIGH ( _0xA4 + ( 8 ) )
                 	__POINTW2MN _0xA4,8
                 _0x373:
000774 940e 1c52 	CALL _lcd_puts
000776 99b6      	SBIC 0x16,6
000777 c003      	RJMP _0xA6
                +
000778 ebab     +LDI R26 , LOW ( _0xA4 + ( 16 ) )
000779 e0b5     +LDI R27 , HIGH ( _0xA4 + ( 16 ) )
                 	__POINTW2MN _0xA4,16
00077a c002      	RJMP _0x374
                 _0xA6:
                +
00077b eca5     +LDI R26 , LOW ( _0xA4 + ( 26 ) )
00077c e0b5     +LDI R27 , HIGH ( _0xA4 + ( 26 ) )
                 	__POINTW2MN _0xA4,26
                 _0x374:
00077d 940e 1c52 	CALL _lcd_puts
00077f 940e 1d68 	CALL SUBOPT_0x19
000781 99b2      	SBIC 0x16,2
000782 c003      	RJMP _0xA8
                +
000783 ecaf     +LDI R26 , LOW ( _0xA4 + ( 36 ) )
000784 e0b5     +LDI R27 , HIGH ( _0xA4 + ( 36 ) )
                 	__POINTW2MN _0xA4,36
000785 c002      	RJMP _0x375
                 _0xA8:
                +
000786 eda8     +LDI R26 , LOW ( _0xA4 + ( 45 ) )
000787 e0b5     +LDI R27 , HIGH ( _0xA4 + ( 45 ) )
                 	__POINTW2MN _0xA4,45
                 _0x375:
000788 940e 1c52 	CALL _lcd_puts
00078a 99b4      	SBIC 0x16,4
00078b c003      	RJMP _0xAA
                +
00078c eea1     +LDI R26 , LOW ( _0xA4 + ( 54 ) )
00078d e0b5     +LDI R27 , HIGH ( _0xA4 + ( 54 ) )
                 	__POINTW2MN _0xA4,54
00078e c002      	RJMP _0x376
                 _0xAA:
                +
00078f eeaa     +LDI R26 , LOW ( _0xA4 + ( 63 ) )
000790 e0b5     +LDI R27 , HIGH ( _0xA4 + ( 63 ) )
                 	__POINTW2MN _0xA4,63
                 _0x376:
000791 940e 1c52 	CALL _lcd_puts
000793 9508      	RET
                 ; .FEND
                 
                 	.DSEG
                 _0xA4:
0005ab           	.BYTE 0x48
                 
                 	.CSEG
                 _STATE_LIGHTSENSOR:
                 ; .FSTART _STATE_LIGHTSENSOR
000794 972a      	SBIW R28,10
000795 940e 225f 	CALL __SAVELOCR4
                 ;	right -> R16,R17
                 ;	left -> R18,R19
                 ;	str -> Y+4
                +
000797 91e0 0781+LDS R30 , _adc_data + ( 6 )
000799 91f0 0782+LDS R31 , _adc_data + ( 6 ) + 1
                 	__GETW1MN _adc_data,6
00079b 018f      	MOVW R16,R30
                +
00079c 91e0 077d+LDS R30 , _adc_data + ( 2 )
00079e 91f0 077e+LDS R31 , _adc_data + ( 2 ) + 1
                 	__GETW1MN _adc_data,2
0007a0 019f      	MOVW R18,R30
0007a1 940e 1c16 	CALL _lcd_clear
                +
0007a3 efa3     +LDI R26 , LOW ( _0xAC + ( 0 ) )
0007a4 e0b5     +LDI R27 , HIGH ( _0xAC + ( 0 ) )
                 	__POINTW2MN _0xAC,0
0007a5 940e 1c52 	CALL _lcd_puts
0007a7 933a      	ST   -Y,R19
0007a8 932a      	ST   -Y,R18
0007a9 940e 1da9 	CALL SUBOPT_0x1E
0007ab 940e 1d24 	CALL SUBOPT_0x10
                +
0007ad efa9     +LDI R26 , LOW ( _0xAC + ( 6 ) )
0007ae e0b5     +LDI R27 , HIGH ( _0xAC + ( 6 ) )
                 	__POINTW2MN _0xAC,6
0007af 940e 1c52 	CALL _lcd_puts
0007b1 931a      	ST   -Y,R17
0007b2 930a      	ST   -Y,R16
0007b3 940e 1da9 	CALL SUBOPT_0x1E
0007b5 940e 1c52 	CALL _lcd_puts
0007b7 940e 2266 	CALL __LOADLOCR4
0007b9 962e      	ADIW R28,14
0007ba 9508      	RET
                 ; .FEND
                 
                 	.DSEG
                 _0xAC:
0005f3           	.BYTE 0xD
                 
                 	.CSEG
                 _STATE_WIICAM:
                 ; .FSTART _STATE_WIICAM
0007bb 940e 225f 	CALL __SAVELOCR4
                 ;	iWII -> R17
                 ;	pwmleft -> R16
                 ;	pwmright -> R19
0007bd e010      	LDI  R17,0
0007be de69      	RCALL _readData
0007bf de9e      	RCALL _convertdata
0007c0 e010      	LDI  R17,LOW(0)
                 _0xAE:
0007c1 3014      	CPI  R17,4
0007c2 f008      	BRLO PC+2
0007c3 c05f      	RJMP _0xAF
0007c4 3014      	CPI  R17,4
0007c5 f558      	BRSH _0xB0
0007c6 940e 1db0 	CALL SUBOPT_0x1F
0007c8 3fef      	CPI  R30,LOW(0x3FF)
0007c9 e0a3      	LDI  R26,HIGH(0x3FF)
0007ca 07fa      	CPC  R31,R26
0007cb f031      	BREQ _0xB2
0007cc 940e 1dbb 	CALL SUBOPT_0x20
0007ce 3fef      	CPI  R30,LOW(0x3FF)
0007cf e0a3      	LDI  R26,HIGH(0x3FF)
0007d0 07fa      	CPC  R31,R26
0007d1 f409      	BRNE _0xB1
                 _0xB2:
0007d2 c01d      	RJMP _0xB4
                 _0xB1:
0007d3 940e 1db0 	CALL SUBOPT_0x1F
0007d5 940e 1dc6 	CALL SUBOPT_0x21
0007d7 e1a4      	LDI  R26,LOW(20)
0007d8 021a      	MULS R17,R26
0007d9 920a      	ST   -Y,R0
0007da 940e 1dce 	CALL SUBOPT_0x22
0007dc 940e 1dbb 	CALL SUBOPT_0x20
0007de 940e 1dd5 	CALL SUBOPT_0x23
0007e0 e1a4      	LDI  R26,LOW(20)
0007e1 021a      	MULS R17,R26
0007e2 01f0      	MOVW R30,R0
0007e3 5fe8      	SUBI R30,-LOW(8)
0007e4 93ea      	ST   -Y,R30
0007e5 940e 1dce 	CALL SUBOPT_0x22
0007e7 940e 1ddd 	CALL SUBOPT_0x24
0007e9 e1a4      	LDI  R26,LOW(20)
0007ea 021a      	MULS R17,R26
0007eb 01f0      	MOVW R30,R0
0007ec 5fe0      	SUBI R30,-LOW(16)
0007ed 93ea      	ST   -Y,R30
0007ee 940e 1dce 	CALL SUBOPT_0x22
                 _0xB4:
0007f0 c030      	RJMP _0xB5
                 _0xB0:
0007f1 940e 1db0 	CALL SUBOPT_0x1F
0007f3 3fef      	CPI  R30,LOW(0x3FF)
0007f4 e0a3      	LDI  R26,HIGH(0x3FF)
0007f5 07fa      	CPC  R31,R26
0007f6 f031      	BREQ _0xB7
0007f7 940e 1dbb 	CALL SUBOPT_0x20
0007f9 3fef      	CPI  R30,LOW(0x3FF)
0007fa e0a3      	LDI  R26,HIGH(0x3FF)
0007fb 07fa      	CPC  R31,R26
0007fc f409      	BRNE _0xB6
                 _0xB7:
0007fd c023      	RJMP _0xB9
                 _0xB6:
0007fe 940e 1db0 	CALL SUBOPT_0x1F
000800 940e 1dc6 	CALL SUBOPT_0x21
000802 2fe1      	MOV  R30,R17
000803 50e2      	SUBI R30,LOW(2)
000804 e1a4      	LDI  R26,LOW(20)
000805 02ea      	MULS R30,R26
000806 920a      	ST   -Y,R0
000807 940e 1de9 	CALL SUBOPT_0x25
000809 940e 1dbb 	CALL SUBOPT_0x20
00080b 940e 1dd5 	CALL SUBOPT_0x23
00080d 2fe1      	MOV  R30,R17
00080e 50e2      	SUBI R30,LOW(2)
00080f e1a4      	LDI  R26,LOW(20)
000810 02ea      	MULS R30,R26
000811 01f0      	MOVW R30,R0
000812 5fe8      	SUBI R30,-LOW(8)
000813 93ea      	ST   -Y,R30
000814 940e 1de9 	CALL SUBOPT_0x25
000816 940e 1ddd 	CALL SUBOPT_0x24
000818 2fe1      	MOV  R30,R17
000819 50e2      	SUBI R30,LOW(2)
00081a e1a4      	LDI  R26,LOW(20)
00081b 02ea      	MULS R30,R26
00081c 01f0      	MOVW R30,R0
00081d 5fe0      	SUBI R30,-LOW(16)
00081e 93ea      	ST   -Y,R30
00081f 940e 1de9 	CALL SUBOPT_0x25
                 _0xB9:
                 _0xB5:
000821 5f1f      	SUBI R17,-1
000822 cf9e      	RJMP _0xAE
                 _0xAF:
000823 e1ae      	LDI  R26,LOW(30)
000824 e0b0      	LDI  R27,0
000825 940e 20e2 	CALL _delay_ms
000827 9bc3      	SBIS 0x18,3
000828 c002      	RJMP _0xBA
000829 98c3      	CBI  0x18,3
00082a c001      	RJMP _0xBB
                 _0xBA:
00082b 9ac3      	SBI  0x18,3
                 _0xBB:
00082c 940e 2266 	CALL __LOADLOCR4
00082e 9624      	ADIW R28,4
00082f 9508      	RET
                 ; .FEND
                 _STATE_IRTOWER:
                 ; .FSTART _STATE_IRTOWER
000830 dc38      	RCALL _rc5_display
000831 9508      	RET
                 ; .FEND
                 _STATE_SERVO:
                 ; .FSTART _STATE_SERVO
000832 940e 1c16 	CALL _lcd_clear
000834 dce9      	RCALL _fnDisplay
000835 eca8      	LDI  R26,LOW(200)
                 _0x20E0006:
000836 e0b0      	LDI  R27,0
000837 940e 20e2 	CALL _delay_ms
000839 9508      	RET
                 ; .FEND
                 _STATE_ULTRASONIC:
                 ; .FSTART _STATE_ULTRASONIC
00083a fe22      	SBRS R2,2
00083b c029      	RJMP _0xBC
00083c 940e 1d68 	CALL SUBOPT_0x19
00083e 91a0 073c 	LDS  R26,_iTime
000840 91b0 073d 	LDS  R27,_iTime+1
000842 37a1      	CPI  R26,LOW(0x1771)
000843 e1e7      	LDI  R30,HIGH(0x1771)
000844 07be      	CPC  R27,R30
000845 f4b8      	BRSH _0xBD
000846 940e 1c16 	CALL _lcd_clear
                +
000848 e8a3     +LDI R26 , LOW ( 2 * _0x0 + ( 213 ) )
000849 e0b1     +LDI R27 , HIGH ( 2 * _0x0 + ( 213 ) )
                 	__POINTW2FN _0x0,213
00084a 940e 1c61 	CALL _lcd_putsf
00084c 940e 1d68 	CALL SUBOPT_0x19
00084e 940e 1df0 	CALL SUBOPT_0x26
000850 940e 211b 	CALL __CFD1
000852 93fa      	ST   -Y,R31
000853 93ea      	ST   -Y,R30
000854 e2a7      	LDI  R26,LOW(_strULTRA)
000855 e0b7      	LDI  R27,HIGH(_strULTRA)
000856 940e 19dc 	CALL _itoa
000858 e2a7      	LDI  R26,LOW(_strULTRA)
000859 e0b7      	LDI  R27,HIGH(_strULTRA)
00085a 940e 1c52 	CALL _lcd_puts
00085c c006      	RJMP _0xBE
                 _0xBD:
00085d 940e 1c16 	CALL _lcd_clear
                +
00085f e9a3     +LDI R26 , LOW ( 2 * _0x0 + ( 229 ) )
000860 e0b1     +LDI R27 , HIGH ( 2 * _0x0 + ( 229 ) )
                 	__POINTW2FN _0x0,229
000861 940e 1c61 	CALL _lcd_putsf
                 _0xBE:
000863 94e8      	CLT
000864 f822      	BLD  R2,2
                 _0xBC:
000865 9508      	RET
                 ; .FEND
                 _STATE_VOR:
                 ; .FSTART _STATE_VOR
000866 940e 1e01 	CALL SUBOPT_0x27
000868 940e 1e08 	CALL SUBOPT_0x28
00086a 940e 1e0d 	CALL SUBOPT_0x29
00086c f031      	BREQ _0xBF
00086d 940e 1e13 	CALL SUBOPT_0x2A
00086f 940e 1e13 	CALL SUBOPT_0x2A
000871 940e 1e18 	CALL SUBOPT_0x2B
                 _0xBF:
000873 940e 1e20 	CALL SUBOPT_0x2C
000875 17ae      	CP   R26,R30
000876 07bf      	CPC  R27,R31
000877 f434      	BRGE _0xC0
000878 940e 1e13 	CALL SUBOPT_0x2A
00087a 940e 1e22 	CALL SUBOPT_0x2D
00087c 940e 1e18 	CALL SUBOPT_0x2B
                 _0xC0:
00087e 940e 1e20 	CALL SUBOPT_0x2C
000880 17ea      	CP   R30,R26
000881 07fb      	CPC  R31,R27
000882 f434      	BRGE _0xC1
000883 940e 1e22 	CALL SUBOPT_0x2D
000885 940e 1e13 	CALL SUBOPT_0x2A
000887 940e 1e18 	CALL SUBOPT_0x2B
                 _0xC1:
000889 9508      	RET
                 ; .FEND
                 _STATE_ZUR:
                 ; .FSTART _STATE_ZUR
00088a 940e 1e01 	CALL SUBOPT_0x27
00088c 940e 1e27 	CALL SUBOPT_0x2E
00088e f031      	BREQ _0xC2
00088f 940e 1e13 	CALL SUBOPT_0x2A
000891 940e 1e13 	CALL SUBOPT_0x2A
000893 940e 1e29 	CALL SUBOPT_0x2F
                 _0xC2:
000895 940e 1e20 	CALL SUBOPT_0x2C
000897 17ae      	CP   R26,R30
000898 07bf      	CPC  R27,R31
000899 f434      	BRGE _0xC3
00089a 940e 1e13 	CALL SUBOPT_0x2A
00089c 940e 1e22 	CALL SUBOPT_0x2D
00089e 940e 1e29 	CALL SUBOPT_0x2F
                 _0xC3:
0008a0 940e 1e20 	CALL SUBOPT_0x2C
0008a2 17ea      	CP   R30,R26
0008a3 07fb      	CPC  R31,R27
0008a4 f434      	BRGE _0xC4
0008a5 940e 1e22 	CALL SUBOPT_0x2D
0008a7 940e 1e13 	CALL SUBOPT_0x2A
0008a9 940e 1e29 	CALL SUBOPT_0x2F
                 _0xC4:
0008ab 9508      	RET
                 ; .FEND
                 _STATE_LINKS:
                 ; .FSTART _STATE_LINKS
0008ac 940e 1e13 	CALL SUBOPT_0x2A
0008ae 940e 1e13 	CALL SUBOPT_0x2A
0008b0 940e 1e31 	CALL SUBOPT_0x30
0008b2 e0a0      	LDI  R26,LOW(0)
0008b3 c007      	RJMP _0x20E0005
                 ; .FEND
                 _STATE_RECHTS:
                 ; .FSTART _STATE_RECHTS
0008b4 940e 1e13 	CALL SUBOPT_0x2A
0008b6 940e 1e13 	CALL SUBOPT_0x2A
0008b8 940e 1e36 	CALL SUBOPT_0x31
0008ba e0a1      	LDI  R26,LOW(1)
                 _0x20E0005:
0008bb e0b0      	LDI  R27,0
0008bc db04      	RCALL _movement
0008bd 9508      	RET
                 ; .FEND
                 _STATE_90RECHTS:
                 ; .FSTART _STATE_90RECHTS
0008be 940e 1cd6 	CALL SUBOPT_0x5
0008c0 940e 1ccb 	CALL SUBOPT_0x3
                 _0xC6:
0008c2 e0e0      	LDI  R30,LOW(0)
0008c3 93e0 06dd 	STS  _ipwmcompareleft,R30
0008c5 93e0 06de 	STS  _ipwmcompareleft+1,R30
0008c7 e6e4      	LDI  R30,LOW(100)
0008c8 e0f0      	LDI  R31,HIGH(100)
0008c9 940e 1d1a 	CALL SUBOPT_0xE
0008cb 98df      	CBI  0x1B,7
0008cc 9add      	SBI  0x1B,5
0008cd 940e 1e3b 	CALL SUBOPT_0x32
                +
0008cf e0a0     +LDI R26 , LOW ( _0xCC + ( 0 ) )
0008d0 e0b6     +LDI R27 , HIGH ( _0xCC + ( 0 ) )
                 	__POINTW2MN _0xCC,0
0008d1 940e 1e3e 	CALL SUBOPT_0x33
                +
0008d3 e0a3     +LDI R26 , LOW ( _0xCC + ( 3 ) )
0008d4 e0b6     +LDI R27 , HIGH ( _0xCC + ( 3 ) )
                 	__POINTW2MN _0xCC,3
0008d5 940e 1e4b 	CALL SUBOPT_0x34
0008d7 940e 1cc0 	CALL SUBOPT_0x1
0008d9 9751      	SBIW R26,17
0008da f33c      	BRLT _0xC6
0008db 9508      	RET
                 ; .FEND
                 
                 	.DSEG
                 _0xCC:
000600           	.BYTE 0x7
                 
                 	.CSEG
                 _STATE_90LINKS:
                 ; .FSTART _STATE_90LINKS
0008dc 940e 1cd6 	CALL SUBOPT_0x5
0008de 940e 1ccb 	CALL SUBOPT_0x3
                 _0xCE:
0008e0 e6e4      	LDI  R30,LOW(100)
0008e1 e0f0      	LDI  R31,HIGH(100)
0008e2 940e 1d15 	CALL SUBOPT_0xD
0008e4 e0e0      	LDI  R30,LOW(0)
0008e5 93e0 06df 	STS  _ipwmcompareright,R30
0008e7 93e0 06e0 	STS  _ipwmcompareright+1,R30
0008e9 9adf      	SBI  0x1B,7
0008ea 98dd      	CBI  0x1B,5
0008eb 940e 1e3b 	CALL SUBOPT_0x32
                +
0008ed e0a7     +LDI R26 , LOW ( _0xD4 + ( 0 ) )
0008ee e0b6     +LDI R27 , HIGH ( _0xD4 + ( 0 ) )
                 	__POINTW2MN _0xD4,0
0008ef 940e 1e3e 	CALL SUBOPT_0x33
                +
0008f1 e0aa     +LDI R26 , LOW ( _0xD4 + ( 3 ) )
0008f2 e0b6     +LDI R27 , HIGH ( _0xD4 + ( 3 ) )
                 	__POINTW2MN _0xD4,3
0008f3 940e 1e4b 	CALL SUBOPT_0x34
0008f5 940e 1cd1 	CALL SUBOPT_0x4
0008f7 9751      	SBIW R26,17
0008f8 f33c      	BRLT _0xCE
0008f9 9508      	RET
                 ; .FEND
                 
                 	.DSEG
                 _0xD4:
000607           	.BYTE 0x7
                 
                 	.CSEG
                 _detector:
                 ; .FSTART _detector
0008fa 9bcc      	SBIS 0x19,4
0008fb c00a      	RJMP _0xD6
0008fc 9bce      	SBIS 0x19,6
0008fd c008      	RJMP _0xD6
0008fe 9bb0      	SBIS 0x16,0
0008ff c006      	RJMP _0xD6
000900 9bb6      	SBIS 0x16,6
000901 c004      	RJMP _0xD6
000902 9bb2      	SBIS 0x16,2
000903 c002      	RJMP _0xD6
000904 99b4      	SBIC 0x16,4
000905 c001      	RJMP _0xD7
                 _0xD6:
000906 c005      	RJMP _0xD5
                 _0xD7:
000907 e0e0      	LDI  R30,LOW(0)
000908 93e0 0798 	STS  _detector_value,R30
00090a 93e0 0799 	STS  _detector_value+1,R30
                 _0xD5:
00090c 9bcc      	SBIS 0x19,4
00090d c00a      	RJMP _0xD9
00090e 9bce      	SBIS 0x19,6
00090f c008      	RJMP _0xD9
000910 9bb0      	SBIS 0x16,0
000911 c006      	RJMP _0xD9
000912 9bb6      	SBIS 0x16,6
000913 c004      	RJMP _0xD9
000914 9bb2      	SBIS 0x16,2
000915 c002      	RJMP _0xD9
000916 9bb4      	SBIS 0x16,4
000917 c001      	RJMP _0xDA
                 _0xD9:
000918 c002      	RJMP _0xD8
                 _0xDA:
000919 940e 1e5b 	CALL SUBOPT_0x35
                 _0xD8:
00091b 9bcc      	SBIS 0x19,4
00091c c00a      	RJMP _0xDC
00091d 9bce      	SBIS 0x19,6
00091e c008      	RJMP _0xDC
00091f 9bb0      	SBIS 0x16,0
000920 c006      	RJMP _0xDC
000921 9bb6      	SBIS 0x16,6
000922 c004      	RJMP _0xDC
000923 99b2      	SBIC 0x16,2
000924 c002      	RJMP _0xDC
000925 99b4      	SBIC 0x16,4
000926 c001      	RJMP _0xDD
                 _0xDC:
000927 c002      	RJMP _0xDB
                 _0xDD:
000928 940e 1e62 	CALL SUBOPT_0x36
                 _0xDB:
00092a 9bcc      	SBIS 0x19,4
00092b c00a      	RJMP _0xDF
00092c 9bce      	SBIS 0x19,6
00092d c008      	RJMP _0xDF
00092e 9bb0      	SBIS 0x16,0
00092f c006      	RJMP _0xDF
000930 99b6      	SBIC 0x16,6
000931 c004      	RJMP _0xDF
000932 9bb2      	SBIS 0x16,2
000933 c002      	RJMP _0xDF
000934 99b4      	SBIC 0x16,4
000935 c001      	RJMP _0xE0
                 _0xDF:
000936 c002      	RJMP _0xDE
                 _0xE0:
000937 940e 1e69 	CALL SUBOPT_0x37
                 _0xDE:
000939 9bcc      	SBIS 0x19,4
00093a c00a      	RJMP _0xE2
00093b 9bce      	SBIS 0x19,6
00093c c008      	RJMP _0xE2
00093d 99b0      	SBIC 0x16,0
00093e c006      	RJMP _0xE2
00093f 9bb6      	SBIS 0x16,6
000940 c004      	RJMP _0xE2
000941 9bb2      	SBIS 0x16,2
000942 c002      	RJMP _0xE2
000943 99b4      	SBIC 0x16,4
000944 c001      	RJMP _0xE3
                 _0xE2:
000945 c002      	RJMP _0xE1
                 _0xE3:
000946 940e 1e70 	CALL SUBOPT_0x38
                 _0xE1:
000948 9bcc      	SBIS 0x19,4
000949 c00a      	RJMP _0xE5
00094a 99ce      	SBIC 0x19,6
00094b c008      	RJMP _0xE5
00094c 9bb0      	SBIS 0x16,0
00094d c006      	RJMP _0xE5
00094e 9bb6      	SBIS 0x16,6
00094f c004      	RJMP _0xE5
000950 9bb2      	SBIS 0x16,2
000951 c002      	RJMP _0xE5
000952 99b4      	SBIC 0x16,4
000953 c001      	RJMP _0xE6
                 _0xE5:
000954 c002      	RJMP _0xE4
                 _0xE6:
000955 940e 1e77 	CALL SUBOPT_0x39
                 _0xE4:
000957 99cc      	SBIC 0x19,4
000958 c00a      	RJMP _0xE8
000959 9bce      	SBIS 0x19,6
00095a c008      	RJMP _0xE8
00095b 9bb0      	SBIS 0x16,0
00095c c006      	RJMP _0xE8
00095d 9bb6      	SBIS 0x16,6
00095e c004      	RJMP _0xE8
00095f 9bb2      	SBIS 0x16,2
000960 c002      	RJMP _0xE8
000961 99b4      	SBIC 0x16,4
000962 c001      	RJMP _0xE9
                 _0xE8:
000963 c002      	RJMP _0xE7
                 _0xE9:
000964 940e 1e7e 	CALL SUBOPT_0x3A
                 _0xE7:
000966 9bcc      	SBIS 0x19,4
000967 c00a      	RJMP _0xEB
000968 9bce      	SBIS 0x19,6
000969 c008      	RJMP _0xEB
00096a 9bb0      	SBIS 0x16,0
00096b c006      	RJMP _0xEB
00096c 9bb6      	SBIS 0x16,6
00096d c004      	RJMP _0xEB
00096e 99b2      	SBIC 0x16,2
00096f c002      	RJMP _0xEB
000970 9bb4      	SBIS 0x16,4
000971 c001      	RJMP _0xEC
                 _0xEB:
000972 c002      	RJMP _0xEA
                 _0xEC:
000973 940e 1e85 	CALL SUBOPT_0x3B
                 _0xEA:
000975 9bcc      	SBIS 0x19,4
000976 c00a      	RJMP _0xEE
000977 9bce      	SBIS 0x19,6
000978 c008      	RJMP _0xEE
000979 9bb0      	SBIS 0x16,0
00097a c006      	RJMP _0xEE
00097b 99b6      	SBIC 0x16,6
00097c c004      	RJMP _0xEE
00097d 99b2      	SBIC 0x16,2
00097e c002      	RJMP _0xEE
00097f 99b4      	SBIC 0x16,4
000980 c001      	RJMP _0xEF
                 _0xEE:
000981 c002      	RJMP _0xED
                 _0xEF:
000982 940e 1e8c 	CALL SUBOPT_0x3C
                 _0xED:
000984 9bcc      	SBIS 0x19,4
000985 c00a      	RJMP _0xF1
000986 9bce      	SBIS 0x19,6
000987 c008      	RJMP _0xF1
000988 99b0      	SBIC 0x16,0
000989 c006      	RJMP _0xF1
00098a 99b6      	SBIC 0x16,6
00098b c004      	RJMP _0xF1
00098c 9bb2      	SBIS 0x16,2
00098d c002      	RJMP _0xF1
00098e 99b4      	SBIC 0x16,4
00098f c001      	RJMP _0xF2
                 _0xF1:
000990 c002      	RJMP _0xF0
                 _0xF2:
000991 940e 1e93 	CALL SUBOPT_0x3D
                 _0xF0:
000993 9bcc      	SBIS 0x19,4
000994 c00a      	RJMP _0xF4
000995 99ce      	SBIC 0x19,6
000996 c008      	RJMP _0xF4
000997 99b0      	SBIC 0x16,0
000998 c006      	RJMP _0xF4
000999 9bb6      	SBIS 0x16,6
00099a c004      	RJMP _0xF4
00099b 9bb2      	SBIS 0x16,2
00099c c002      	RJMP _0xF4
00099d 99b4      	SBIC 0x16,4
00099e c001      	RJMP _0xF5
                 _0xF4:
00099f c002      	RJMP _0xF3
                 _0xF5:
0009a0 940e 1e9a 	CALL SUBOPT_0x3E
                 _0xF3:
0009a2 99cc      	SBIC 0x19,4
0009a3 c00a      	RJMP _0xF7
0009a4 99ce      	SBIC 0x19,6
0009a5 c008      	RJMP _0xF7
0009a6 9bb0      	SBIS 0x16,0
0009a7 c006      	RJMP _0xF7
0009a8 9bb6      	SBIS 0x16,6
0009a9 c004      	RJMP _0xF7
0009aa 9bb2      	SBIS 0x16,2
0009ab c002      	RJMP _0xF7
0009ac 99b4      	SBIC 0x16,4
0009ad c001      	RJMP _0xF8
                 _0xF7:
0009ae c002      	RJMP _0xF6
                 _0xF8:
0009af 940e 1ea1 	CALL SUBOPT_0x3F
                 _0xF6:
0009b1 9bcc      	SBIS 0x19,4
0009b2 c00a      	RJMP _0xFA
0009b3 9bce      	SBIS 0x19,6
0009b4 c008      	RJMP _0xFA
0009b5 9bb0      	SBIS 0x16,0
0009b6 c006      	RJMP _0xFA
0009b7 99b6      	SBIC 0x16,6
0009b8 c004      	RJMP _0xFA
0009b9 99b2      	SBIC 0x16,2
0009ba c002      	RJMP _0xFA
0009bb 9bb4      	SBIS 0x16,4
0009bc c001      	RJMP _0xFB
                 _0xFA:
0009bd c002      	RJMP _0xF9
                 _0xFB:
0009be 940e 1ea8 	CALL SUBOPT_0x40
                 _0xF9:
0009c0 9bcc      	SBIS 0x19,4
0009c1 c00a      	RJMP _0xFD
0009c2 9bce      	SBIS 0x19,6
0009c3 c008      	RJMP _0xFD
0009c4 99b0      	SBIC 0x16,0
0009c5 c006      	RJMP _0xFD
0009c6 99b6      	SBIC 0x16,6
0009c7 c004      	RJMP _0xFD
0009c8 99b2      	SBIC 0x16,2
0009c9 c002      	RJMP _0xFD
0009ca 99b4      	SBIC 0x16,4
0009cb c001      	RJMP _0xFE
                 _0xFD:
0009cc c002      	RJMP _0xFC
                 _0xFE:
0009cd 940e 1eaf 	CALL SUBOPT_0x41
                 _0xFC:
0009cf 9bcc      	SBIS 0x19,4
0009d0 c00a      	RJMP _0x100
0009d1 99ce      	SBIC 0x19,6
0009d2 c008      	RJMP _0x100
0009d3 99b0      	SBIC 0x16,0
0009d4 c006      	RJMP _0x100
0009d5 99b6      	SBIC 0x16,6
0009d6 c004      	RJMP _0x100
0009d7 9bb2      	SBIS 0x16,2
0009d8 c002      	RJMP _0x100
0009d9 99b4      	SBIC 0x16,4
0009da c001      	RJMP _0x101
                 _0x100:
0009db c002      	RJMP _0xFF
                 _0x101:
0009dc 940e 1eb6 	CALL SUBOPT_0x42
                 _0xFF:
0009de 99cc      	SBIC 0x19,4
0009df c00a      	RJMP _0x103
0009e0 99ce      	SBIC 0x19,6
0009e1 c008      	RJMP _0x103
0009e2 99b0      	SBIC 0x16,0
0009e3 c006      	RJMP _0x103
0009e4 9bb6      	SBIS 0x16,6
0009e5 c004      	RJMP _0x103
0009e6 9bb2      	SBIS 0x16,2
0009e7 c002      	RJMP _0x103
0009e8 99b4      	SBIC 0x16,4
0009e9 c001      	RJMP _0x104
                 _0x103:
0009ea c002      	RJMP _0x102
                 _0x104:
0009eb 940e 1ebd 	CALL SUBOPT_0x43
                 _0x102:
0009ed 9bcc      	SBIS 0x19,4
0009ee c00a      	RJMP _0x106
0009ef 9bce      	SBIS 0x19,6
0009f0 c008      	RJMP _0x106
0009f1 99b0      	SBIC 0x16,0
0009f2 c006      	RJMP _0x106
0009f3 99b6      	SBIC 0x16,6
0009f4 c004      	RJMP _0x106
0009f5 99b2      	SBIC 0x16,2
0009f6 c002      	RJMP _0x106
0009f7 9bb4      	SBIS 0x16,4
0009f8 c001      	RJMP _0x107
                 _0x106:
0009f9 c002      	RJMP _0x105
                 _0x107:
0009fa 940e 1ec4 	CALL SUBOPT_0x44
                 _0x105:
0009fc 9bcc      	SBIS 0x19,4
0009fd c00a      	RJMP _0x109
0009fe 99ce      	SBIC 0x19,6
0009ff c008      	RJMP _0x109
000a00 99b0      	SBIC 0x16,0
000a01 c006      	RJMP _0x109
000a02 99b6      	SBIC 0x16,6
000a03 c004      	RJMP _0x109
000a04 99b2      	SBIC 0x16,2
000a05 c002      	RJMP _0x109
000a06 99b4      	SBIC 0x16,4
000a07 c001      	RJMP _0x10A
                 _0x109:
000a08 c002      	RJMP _0x108
                 _0x10A:
000a09 940e 1ecb 	CALL SUBOPT_0x45
                 _0x108:
000a0b 99cc      	SBIC 0x19,4
000a0c c00a      	RJMP _0x10C
000a0d 99ce      	SBIC 0x19,6
000a0e c008      	RJMP _0x10C
000a0f 99b0      	SBIC 0x16,0
000a10 c006      	RJMP _0x10C
000a11 99b6      	SBIC 0x16,6
000a12 c004      	RJMP _0x10C
000a13 9bb2      	SBIS 0x16,2
000a14 c002      	RJMP _0x10C
000a15 99b4      	SBIC 0x16,4
000a16 c001      	RJMP _0x10D
                 _0x10C:
000a17 c002      	RJMP _0x10B
                 _0x10D:
000a18 940e 1ed2 	CALL SUBOPT_0x46
                 _0x10B:
000a1a 9bcc      	SBIS 0x19,4
000a1b c00a      	RJMP _0x10F
000a1c 99ce      	SBIC 0x19,6
000a1d c008      	RJMP _0x10F
000a1e 99b0      	SBIC 0x16,0
000a1f c006      	RJMP _0x10F
000a20 99b6      	SBIC 0x16,6
000a21 c004      	RJMP _0x10F
000a22 99b2      	SBIC 0x16,2
000a23 c002      	RJMP _0x10F
000a24 9bb4      	SBIS 0x16,4
000a25 c001      	RJMP _0x110
                 _0x10F:
000a26 c002      	RJMP _0x10E
                 _0x110:
000a27 940e 1ed9 	CALL SUBOPT_0x47
                 _0x10E:
000a29 99cc      	SBIC 0x19,4
000a2a c00a      	RJMP _0x112
000a2b 99ce      	SBIC 0x19,6
000a2c c008      	RJMP _0x112
000a2d 99b0      	SBIC 0x16,0
000a2e c006      	RJMP _0x112
000a2f 99b6      	SBIC 0x16,6
000a30 c004      	RJMP _0x112
000a31 99b2      	SBIC 0x16,2
000a32 c002      	RJMP _0x112
000a33 99b4      	SBIC 0x16,4
000a34 c001      	RJMP _0x113
                 _0x112:
000a35 c002      	RJMP _0x111
                 _0x113:
000a36 940e 1ee0 	CALL SUBOPT_0x48
                 _0x111:
000a38 99cc      	SBIC 0x19,4
000a39 c00a      	RJMP _0x115
000a3a 99ce      	SBIC 0x19,6
000a3b c008      	RJMP _0x115
000a3c 99b0      	SBIC 0x16,0
000a3d c006      	RJMP _0x115
000a3e 99b6      	SBIC 0x16,6
000a3f c004      	RJMP _0x115
000a40 99b2      	SBIC 0x16,2
000a41 c002      	RJMP _0x115
000a42 9bb4      	SBIS 0x16,4
000a43 c001      	RJMP _0x116
                 _0x115:
000a44 c002      	RJMP _0x114
                 _0x116:
000a45 940e 1ee7 	CALL SUBOPT_0x49
                 _0x114:
000a47 9bcc      	SBIS 0x19,4
000a48 c00a      	RJMP _0x118
000a49 9bce      	SBIS 0x19,6
000a4a c008      	RJMP _0x118
000a4b 9bb0      	SBIS 0x16,0
000a4c c006      	RJMP _0x118
000a4d 99b6      	SBIC 0x16,6
000a4e c004      	RJMP _0x118
000a4f 9bb2      	SBIS 0x16,2
000a50 c002      	RJMP _0x118
000a51 9bb4      	SBIS 0x16,4
000a52 c001      	RJMP _0x119
                 _0x118:
000a53 c002      	RJMP _0x117
                 _0x119:
000a54 940e 1eee 	CALL SUBOPT_0x4A
                 _0x117:
000a56 9bcc      	SBIS 0x19,4
000a57 c00a      	RJMP _0x11B
000a58 9bce      	SBIS 0x19,6
000a59 c008      	RJMP _0x11B
000a5a 99b0      	SBIC 0x16,0
000a5b c006      	RJMP _0x11B
000a5c 9bb6      	SBIS 0x16,6
000a5d c004      	RJMP _0x11B
000a5e 99b2      	SBIC 0x16,2
000a5f c002      	RJMP _0x11B
000a60 99b4      	SBIC 0x16,4
000a61 c001      	RJMP _0x11C
                 _0x11B:
000a62 c002      	RJMP _0x11A
                 _0x11C:
000a63 940e 1ef5 	CALL SUBOPT_0x4B
                 _0x11A:
000a65 9bcc      	SBIS 0x19,4
000a66 c00a      	RJMP _0x11E
000a67 99ce      	SBIC 0x19,6
000a68 c008      	RJMP _0x11E
000a69 9bb0      	SBIS 0x16,0
000a6a c006      	RJMP _0x11E
000a6b 99b6      	SBIC 0x16,6
000a6c c004      	RJMP _0x11E
000a6d 9bb2      	SBIS 0x16,2
000a6e c002      	RJMP _0x11E
000a6f 99b4      	SBIC 0x16,4
000a70 c001      	RJMP _0x11F
                 _0x11E:
000a71 c002      	RJMP _0x11D
                 _0x11F:
000a72 940e 1efc 	CALL SUBOPT_0x4C
                 _0x11D:
000a74 99cc      	SBIC 0x19,4
000a75 c00a      	RJMP _0x121
000a76 9bce      	SBIS 0x19,6
000a77 c008      	RJMP _0x121
000a78 99b0      	SBIC 0x16,0
000a79 c006      	RJMP _0x121
000a7a 9bb6      	SBIS 0x16,6
000a7b c004      	RJMP _0x121
000a7c 9bb2      	SBIS 0x16,2
000a7d c002      	RJMP _0x121
000a7e 99b4      	SBIC 0x16,4
000a7f c001      	RJMP _0x122
                 _0x121:
000a80 c002      	RJMP _0x120
                 _0x122:
000a81 940e 1f03 	CALL SUBOPT_0x4D
                 _0x120:
000a83 9bcc      	SBIS 0x19,4
000a84 c00a      	RJMP _0x124
000a85 9bce      	SBIS 0x19,6
000a86 c008      	RJMP _0x124
000a87 99b0      	SBIC 0x16,0
000a88 c006      	RJMP _0x124
000a89 9bb6      	SBIS 0x16,6
000a8a c004      	RJMP _0x124
000a8b 9bb2      	SBIS 0x16,2
000a8c c002      	RJMP _0x124
000a8d 9bb4      	SBIS 0x16,4
000a8e c001      	RJMP _0x125
                 _0x124:
000a8f c002      	RJMP _0x123
                 _0x125:
000a90 940e 1f0a 	CALL SUBOPT_0x4E
                 _0x123:
000a92 9bcc      	SBIS 0x19,4
000a93 c00a      	RJMP _0x127
000a94 99ce      	SBIC 0x19,6
000a95 c008      	RJMP _0x127
000a96 9bb0      	SBIS 0x16,0
000a97 c006      	RJMP _0x127
000a98 9bb6      	SBIS 0x16,6
000a99 c004      	RJMP _0x127
000a9a 99b2      	SBIC 0x16,2
000a9b c002      	RJMP _0x127
000a9c 99b4      	SBIC 0x16,4
000a9d c001      	RJMP _0x128
                 _0x127:
000a9e c002      	RJMP _0x126
                 _0x128:
000a9f 940e 1f11 	CALL SUBOPT_0x4F
                 _0x126:
000aa1 99cc      	SBIC 0x19,4
000aa2 c00a      	RJMP _0x12A
000aa3 9bce      	SBIS 0x19,6
000aa4 c008      	RJMP _0x12A
000aa5 9bb0      	SBIS 0x16,0
000aa6 c006      	RJMP _0x12A
000aa7 99b6      	SBIC 0x16,6
000aa8 c004      	RJMP _0x12A
000aa9 9bb2      	SBIS 0x16,2
000aaa c002      	RJMP _0x12A
000aab 99b4      	SBIC 0x16,4
000aac c001      	RJMP _0x12B
                 _0x12A:
000aad c002      	RJMP _0x129
                 _0x12B:
000aae 940e 1f18 	CALL SUBOPT_0x50
                 _0x129:
000ab0 9bcc      	SBIS 0x19,4
000ab1 c00a      	RJMP _0x12D
000ab2 99ce      	SBIC 0x19,6
000ab3 c008      	RJMP _0x12D
000ab4 9bb0      	SBIS 0x16,0
000ab5 c006      	RJMP _0x12D
000ab6 9bb6      	SBIS 0x16,6
000ab7 c004      	RJMP _0x12D
000ab8 9bb2      	SBIS 0x16,2
000ab9 c002      	RJMP _0x12D
000aba 9bb4      	SBIS 0x16,4
000abb c001      	RJMP _0x12E
                 _0x12D:
000abc c002      	RJMP _0x12C
                 _0x12E:
000abd 940e 1f1f 	CALL SUBOPT_0x51
                 _0x12C:
000abf 99cc      	SBIC 0x19,4
000ac0 c00a      	RJMP _0x130
000ac1 9bce      	SBIS 0x19,6
000ac2 c008      	RJMP _0x130
000ac3 9bb0      	SBIS 0x16,0
000ac4 c006      	RJMP _0x130
000ac5 9bb6      	SBIS 0x16,6
000ac6 c004      	RJMP _0x130
000ac7 99b2      	SBIC 0x16,2
000ac8 c002      	RJMP _0x130
000ac9 99b4      	SBIC 0x16,4
000aca c001      	RJMP _0x131
                 _0x130:
000acb c002      	RJMP _0x12F
                 _0x131:
000acc 940e 1f26 	CALL SUBOPT_0x52
                 _0x12F:
000ace 99cc      	SBIC 0x19,4
000acf c00a      	RJMP _0x133
000ad0 9bce      	SBIS 0x19,6
000ad1 c008      	RJMP _0x133
000ad2 9bb0      	SBIS 0x16,0
000ad3 c006      	RJMP _0x133
000ad4 9bb6      	SBIS 0x16,6
000ad5 c004      	RJMP _0x133
000ad6 9bb2      	SBIS 0x16,2
000ad7 c002      	RJMP _0x133
000ad8 9bb4      	SBIS 0x16,4
000ad9 c001      	RJMP _0x134
                 _0x133:
000ada c002      	RJMP _0x132
                 _0x134:
000adb 940e 1f2d 	CALL SUBOPT_0x53
                 _0x132:
000add 99cc      	SBIC 0x19,4
000ade c00a      	RJMP _0x136
000adf 99ce      	SBIC 0x19,6
000ae0 c008      	RJMP _0x136
000ae1 99b0      	SBIC 0x16,0
000ae2 c006      	RJMP _0x136
000ae3 99b6      	SBIC 0x16,6
000ae4 c004      	RJMP _0x136
000ae5 9bb2      	SBIS 0x16,2
000ae6 c002      	RJMP _0x136
000ae7 9bb4      	SBIS 0x16,4
000ae8 c001      	RJMP _0x137
                 _0x136:
000ae9 c002      	RJMP _0x135
                 _0x137:
000aea 940e 1f34 	CALL SUBOPT_0x54
                 _0x135:
000aec 99cc      	SBIC 0x19,4
000aed c00a      	RJMP _0x139
000aee 99ce      	SBIC 0x19,6
000aef c008      	RJMP _0x139
000af0 99b0      	SBIC 0x16,0
000af1 c006      	RJMP _0x139
000af2 9bb6      	SBIS 0x16,6
000af3 c004      	RJMP _0x139
000af4 99b2      	SBIC 0x16,2
000af5 c002      	RJMP _0x139
000af6 9bb4      	SBIS 0x16,4
000af7 c001      	RJMP _0x13A
                 _0x139:
000af8 c002      	RJMP _0x138
                 _0x13A:
000af9 940e 1f3b 	CALL SUBOPT_0x55
                 _0x138:
000afb 99cc      	SBIC 0x19,4
000afc c00a      	RJMP _0x13C
000afd 99ce      	SBIC 0x19,6
000afe c008      	RJMP _0x13C
000aff 9bb0      	SBIS 0x16,0
000b00 c006      	RJMP _0x13C
000b01 99b6      	SBIC 0x16,6
000b02 c004      	RJMP _0x13C
000b03 99b2      	SBIC 0x16,2
000b04 c002      	RJMP _0x13C
000b05 9bb4      	SBIS 0x16,4
000b06 c001      	RJMP _0x13D
                 _0x13C:
000b07 c002      	RJMP _0x13B
                 _0x13D:
000b08 940e 1f42 	CALL SUBOPT_0x56
                 _0x13B:
000b0a 99cc      	SBIC 0x19,4
000b0b c00a      	RJMP _0x13F
000b0c 9bce      	SBIS 0x19,6
000b0d c008      	RJMP _0x13F
000b0e 99b0      	SBIC 0x16,0
000b0f c006      	RJMP _0x13F
000b10 99b6      	SBIC 0x16,6
000b11 c004      	RJMP _0x13F
000b12 99b2      	SBIC 0x16,2
000b13 c002      	RJMP _0x13F
000b14 9bb4      	SBIS 0x16,4
000b15 c001      	RJMP _0x140
                 _0x13F:
000b16 c002      	RJMP _0x13E
                 _0x140:
000b17 940e 1f49 	CALL SUBOPT_0x57
                 _0x13E:
000b19 99cc      	SBIC 0x19,4
000b1a c00a      	RJMP _0x142
000b1b 99ce      	SBIC 0x19,6
000b1c c008      	RJMP _0x142
000b1d 99b0      	SBIC 0x16,0
000b1e c006      	RJMP _0x142
000b1f 9bb6      	SBIS 0x16,6
000b20 c004      	RJMP _0x142
000b21 9bb2      	SBIS 0x16,2
000b22 c002      	RJMP _0x142
000b23 9bb4      	SBIS 0x16,4
000b24 c001      	RJMP _0x143
                 _0x142:
000b25 c002      	RJMP _0x141
                 _0x143:
000b26 940e 1f50 	CALL SUBOPT_0x58
                 _0x141:
000b28 99cc      	SBIC 0x19,4
000b29 c00a      	RJMP _0x145
000b2a 99ce      	SBIC 0x19,6
000b2b c008      	RJMP _0x145
000b2c 9bb0      	SBIS 0x16,0
000b2d c006      	RJMP _0x145
000b2e 9bb6      	SBIS 0x16,6
000b2f c004      	RJMP _0x145
000b30 99b2      	SBIC 0x16,2
000b31 c002      	RJMP _0x145
000b32 9bb4      	SBIS 0x16,4
000b33 c001      	RJMP _0x146
                 _0x145:
000b34 c002      	RJMP _0x144
                 _0x146:
000b35 940e 1f57 	CALL SUBOPT_0x59
                 _0x144:
000b37 99cc      	SBIC 0x19,4
000b38 c00a      	RJMP _0x148
000b39 9bce      	SBIS 0x19,6
000b3a c008      	RJMP _0x148
000b3b 9bb0      	SBIS 0x16,0
000b3c c006      	RJMP _0x148
000b3d 99b6      	SBIC 0x16,6
000b3e c004      	RJMP _0x148
000b3f 99b2      	SBIC 0x16,2
000b40 c002      	RJMP _0x148
000b41 9bb4      	SBIS 0x16,4
000b42 c001      	RJMP _0x149
                 _0x148:
000b43 c002      	RJMP _0x147
                 _0x149:
000b44 940e 1f5e 	CALL SUBOPT_0x5A
                 _0x147:
000b46 99cc      	SBIC 0x19,4
000b47 c00a      	RJMP _0x14B
000b48 9bce      	SBIS 0x19,6
000b49 c008      	RJMP _0x14B
000b4a 99b0      	SBIC 0x16,0
000b4b c006      	RJMP _0x14B
000b4c 9bb6      	SBIS 0x16,6
000b4d c004      	RJMP _0x14B
000b4e 99b2      	SBIC 0x16,2
000b4f c002      	RJMP _0x14B
000b50 99b4      	SBIC 0x16,4
000b51 c001      	RJMP _0x14C
                 _0x14B:
000b52 c002      	RJMP _0x14A
                 _0x14C:
000b53 940e 1f65 	CALL SUBOPT_0x5B
                 _0x14A:
000b55 9bcc      	SBIS 0x19,4
000b56 c00a      	RJMP _0x14E
000b57 99ce      	SBIC 0x19,6
000b58 c008      	RJMP _0x14E
000b59 9bb0      	SBIS 0x16,0
000b5a c006      	RJMP _0x14E
000b5b 99b6      	SBIC 0x16,6
000b5c c004      	RJMP _0x14E
000b5d 9bb2      	SBIS 0x16,2
000b5e c002      	RJMP _0x14E
000b5f 9bb4      	SBIS 0x16,4
000b60 c001      	RJMP _0x14F
                 _0x14E:
000b61 c002      	RJMP _0x14D
                 _0x14F:
000b62 940e 1f6c 	CALL SUBOPT_0x5C
                 _0x14D:
000b64 99cc      	SBIC 0x19,4
000b65 c00a      	RJMP _0x151
000b66 9bce      	SBIS 0x19,6
000b67 c008      	RJMP _0x151
000b68 9bb0      	SBIS 0x16,0
000b69 c006      	RJMP _0x151
000b6a 99b6      	SBIC 0x16,6
000b6b c004      	RJMP _0x151
000b6c 99b2      	SBIC 0x16,2
000b6d c002      	RJMP _0x151
000b6e 99b4      	SBIC 0x16,4
000b6f c001      	RJMP _0x152
                 _0x151:
000b70 c002      	RJMP _0x150
                 _0x152:
000b71 940e 1f73 	CALL SUBOPT_0x5D
                 _0x150:
000b73 9bcc      	SBIS 0x19,4
000b74 c00a      	RJMP _0x154
000b75 99ce      	SBIC 0x19,6
000b76 c008      	RJMP _0x154
000b77 99b0      	SBIC 0x16,0
000b78 c006      	RJMP _0x154
000b79 9bb6      	SBIS 0x16,6
000b7a c004      	RJMP _0x154
000b7b 9bb2      	SBIS 0x16,2
000b7c c002      	RJMP _0x154
000b7d 9bb4      	SBIS 0x16,4
000b7e c001      	RJMP _0x155
                 _0x154:
000b7f c002      	RJMP _0x153
                 _0x155:
000b80 940e 1f7a 	CALL SUBOPT_0x5E
                 _0x153:
000b82 99cc      	SBIC 0x19,4
000b83 c00a      	RJMP _0x157
000b84 99ce      	SBIC 0x19,6
000b85 c008      	RJMP _0x157
000b86 9bb0      	SBIS 0x16,0
000b87 c006      	RJMP _0x157
000b88 99b6      	SBIC 0x16,6
000b89 c004      	RJMP _0x157
000b8a 9bb2      	SBIS 0x16,2
000b8b c002      	RJMP _0x157
000b8c 9bb4      	SBIS 0x16,4
000b8d c001      	RJMP _0x158
                 _0x157:
000b8e c002      	RJMP _0x156
                 _0x158:
000b8f 940e 1f81 	CALL SUBOPT_0x5F
                 _0x156:
000b91 99cc      	SBIC 0x19,4
000b92 c00a      	RJMP _0x15A
000b93 99ce      	SBIC 0x19,6
000b94 c008      	RJMP _0x15A
000b95 9bb0      	SBIS 0x16,0
000b96 c006      	RJMP _0x15A
000b97 99b6      	SBIC 0x16,6
000b98 c004      	RJMP _0x15A
000b99 99b2      	SBIC 0x16,2
000b9a c002      	RJMP _0x15A
000b9b 99b4      	SBIC 0x16,4
000b9c c001      	RJMP _0x15B
                 _0x15A:
000b9d c002      	RJMP _0x159
                 _0x15B:
000b9e 940e 1f88 	CALL SUBOPT_0x60
                 _0x159:
000ba0 99cc      	SBIC 0x19,4
000ba1 c00a      	RJMP _0x15D
000ba2 9bce      	SBIS 0x19,6
000ba3 c008      	RJMP _0x15D
000ba4 99b0      	SBIC 0x16,0
000ba5 c006      	RJMP _0x15D
000ba6 99b6      	SBIC 0x16,6
000ba7 c004      	RJMP _0x15D
000ba8 9bb2      	SBIS 0x16,2
000ba9 c002      	RJMP _0x15D
000baa 9bb4      	SBIS 0x16,4
000bab c001      	RJMP _0x15E
                 _0x15D:
000bac c002      	RJMP _0x15C
                 _0x15E:
000bad 940e 1f8f 	CALL SUBOPT_0x61
                 _0x15C:
000baf 99cc      	SBIC 0x19,4
000bb0 c00a      	RJMP _0x160
000bb1 9bce      	SBIS 0x19,6
000bb2 c008      	RJMP _0x160
000bb3 99b0      	SBIC 0x16,0
000bb4 c006      	RJMP _0x160
000bb5 99b6      	SBIC 0x16,6
000bb6 c004      	RJMP _0x160
000bb7 99b2      	SBIC 0x16,2
000bb8 c002      	RJMP _0x160
000bb9 99b4      	SBIC 0x16,4
000bba c001      	RJMP _0x161
                 _0x160:
000bbb c002      	RJMP _0x15F
                 _0x161:
000bbc 940e 1f96 	CALL SUBOPT_0x62
                 _0x15F:
000bbe 9bcc      	SBIS 0x19,4
000bbf c00a      	RJMP _0x163
000bc0 99ce      	SBIC 0x19,6
000bc1 c008      	RJMP _0x163
000bc2 99b0      	SBIC 0x16,0
000bc3 c006      	RJMP _0x163
000bc4 99b6      	SBIC 0x16,6
000bc5 c004      	RJMP _0x163
000bc6 9bb2      	SBIS 0x16,2
000bc7 c002      	RJMP _0x163
000bc8 9bb4      	SBIS 0x16,4
000bc9 c001      	RJMP _0x164
                 _0x163:
000bca c002      	RJMP _0x162
                 _0x164:
000bcb 940e 1f9d 	CALL SUBOPT_0x63
                 _0x162:
000bcd 9bcc      	SBIS 0x19,4
000bce c00a      	RJMP _0x166
000bcf 99ce      	SBIC 0x19,6
000bd0 c008      	RJMP _0x166
000bd1 99b0      	SBIC 0x16,0
000bd2 c006      	RJMP _0x166
000bd3 9bb6      	SBIS 0x16,6
000bd4 c004      	RJMP _0x166
000bd5 99b2      	SBIC 0x16,2
000bd6 c002      	RJMP _0x166
000bd7 9bb4      	SBIS 0x16,4
000bd8 c001      	RJMP _0x167
                 _0x166:
000bd9 c002      	RJMP _0x165
                 _0x167:
000bda 940e 1fa4 	CALL SUBOPT_0x64
                 _0x165:
000bdc 99cc      	SBIC 0x19,4
000bdd c00a      	RJMP _0x169
000bde 99ce      	SBIC 0x19,6
000bdf c008      	RJMP _0x169
000be0 9bb0      	SBIS 0x16,0
000be1 c006      	RJMP _0x169
000be2 9bb6      	SBIS 0x16,6
000be3 c004      	RJMP _0x169
000be4 99b2      	SBIC 0x16,2
000be5 c002      	RJMP _0x169
000be6 99b4      	SBIC 0x16,4
000be7 c001      	RJMP _0x16A
                 _0x169:
000be8 c002      	RJMP _0x168
                 _0x16A:
000be9 940e 1fab 	CALL SUBOPT_0x65
                 _0x168:
000beb 9bcc      	SBIS 0x19,4
000bec c00a      	RJMP _0x16C
000bed 99ce      	SBIC 0x19,6
000bee c008      	RJMP _0x16C
000bef 99b0      	SBIC 0x16,0
000bf0 c006      	RJMP _0x16C
000bf1 9bb6      	SBIS 0x16,6
000bf2 c004      	RJMP _0x16C
000bf3 9bb2      	SBIS 0x16,2
000bf4 c002      	RJMP _0x16C
000bf5 9bb4      	SBIS 0x16,4
000bf6 c001      	RJMP _0x16D
                 _0x16C:
000bf7 c002      	RJMP _0x16B
                 _0x16D:
000bf8 940e 1fb2 	CALL SUBOPT_0x66
                 _0x16B:
000bfa 99cc      	SBIC 0x19,4
000bfb c00a      	RJMP _0x16F
000bfc 99ce      	SBIC 0x19,6
000bfd c008      	RJMP _0x16F
000bfe 9bb0      	SBIS 0x16,0
000bff c006      	RJMP _0x16F
000c00 9bb6      	SBIS 0x16,6
000c01 c004      	RJMP _0x16F
000c02 99b2      	SBIC 0x16,2
000c03 c002      	RJMP _0x16F
000c04 99b4      	SBIC 0x16,4
000c05 c001      	RJMP _0x170
                 _0x16F:
000c06 c002      	RJMP _0x16E
                 _0x170:
000c07 940e 1fb9 	CALL SUBOPT_0x67
                 _0x16E:
000c09 99cc      	SBIC 0x19,4
000c0a c00a      	RJMP _0x172
000c0b 99ce      	SBIC 0x19,6
000c0c c008      	RJMP _0x172
000c0d 9bb0      	SBIS 0x16,0
000c0e c006      	RJMP _0x172
000c0f 99b6      	SBIC 0x16,6
000c10 c004      	RJMP _0x172
000c11 9bb2      	SBIS 0x16,2
000c12 c002      	RJMP _0x172
000c13 99b4      	SBIC 0x16,4
000c14 c001      	RJMP _0x173
                 _0x172:
000c15 c002      	RJMP _0x171
                 _0x173:
000c16 940e 1fc0 	CALL SUBOPT_0x68
                 _0x171:
000c18 99cc      	SBIC 0x19,4
000c19 c00a      	RJMP _0x175
000c1a 99ce      	SBIC 0x19,6
000c1b c008      	RJMP _0x175
000c1c 99b0      	SBIC 0x16,0
000c1d c006      	RJMP _0x175
000c1e 9bb6      	SBIS 0x16,6
000c1f c004      	RJMP _0x175
000c20 99b2      	SBIC 0x16,2
000c21 c002      	RJMP _0x175
000c22 99b4      	SBIC 0x16,4
000c23 c001      	RJMP _0x176
                 _0x175:
000c24 c002      	RJMP _0x174
                 _0x176:
000c25 940e 1fc7 	CALL SUBOPT_0x69
                 _0x174:
000c27 9bcc      	SBIS 0x19,4
000c28 c00a      	RJMP _0x178
000c29 9bce      	SBIS 0x19,6
000c2a c008      	RJMP _0x178
000c2b 99b0      	SBIC 0x16,0
000c2c c006      	RJMP _0x178
000c2d 99b6      	SBIC 0x16,6
000c2e c004      	RJMP _0x178
000c2f 9bb2      	SBIS 0x16,2
000c30 c002      	RJMP _0x178
000c31 9bb4      	SBIS 0x16,4
000c32 c001      	RJMP _0x179
                 _0x178:
000c33 c002      	RJMP _0x177
                 _0x179:
000c34 940e 1fce 	CALL SUBOPT_0x6A
                 _0x177:
000c36 99cc      	SBIC 0x19,4
000c37 c00a      	RJMP _0x17B
000c38 9bce      	SBIS 0x19,6
000c39 c008      	RJMP _0x17B
000c3a 9bb0      	SBIS 0x16,0
000c3b c006      	RJMP _0x17B
000c3c 9bb6      	SBIS 0x16,6
000c3d c004      	RJMP _0x17B
000c3e 99b2      	SBIC 0x16,2
000c3f c002      	RJMP _0x17B
000c40 9bb4      	SBIS 0x16,4
000c41 c001      	RJMP _0x17C
                 _0x17B:
000c42 c002      	RJMP _0x17A
                 _0x17C:
000c43 940e 1fd5 	CALL SUBOPT_0x6B
                 _0x17A:
000c45 99cc      	SBIC 0x19,4
000c46 c00a      	RJMP _0x17E
000c47 9bce      	SBIS 0x19,6
000c48 c008      	RJMP _0x17E
000c49 99b0      	SBIC 0x16,0
000c4a c006      	RJMP _0x17E
000c4b 9bb6      	SBIS 0x16,6
000c4c c004      	RJMP _0x17E
000c4d 99b2      	SBIC 0x16,2
000c4e c002      	RJMP _0x17E
000c4f 9bb4      	SBIS 0x16,4
000c50 c001      	RJMP _0x17F
                 _0x17E:
000c51 c002      	RJMP _0x17D
                 _0x17F:
000c52 940e 1fdc 	CALL SUBOPT_0x6C
                 _0x17D:
000c54 9bcc      	SBIS 0x19,4
000c55 c00a      	RJMP _0x181
000c56 9bce      	SBIS 0x19,6
000c57 c008      	RJMP _0x181
000c58 99b0      	SBIC 0x16,0
000c59 c006      	RJMP _0x181
000c5a 9bb6      	SBIS 0x16,6
000c5b c004      	RJMP _0x181
000c5c 99b2      	SBIC 0x16,2
000c5d c002      	RJMP _0x181
000c5e 9bb4      	SBIS 0x16,4
000c5f c001      	RJMP _0x182
                 _0x181:
000c60 c002      	RJMP _0x180
                 _0x182:
000c61 940e 1fe3 	CALL SUBOPT_0x6D
                 _0x180:
000c63 9bcc      	SBIS 0x19,4
000c64 c00a      	RJMP _0x184
000c65 99ce      	SBIC 0x19,6
000c66 c008      	RJMP _0x184
000c67 9bb0      	SBIS 0x16,0
000c68 c006      	RJMP _0x184
000c69 99b6      	SBIC 0x16,6
000c6a c004      	RJMP _0x184
000c6b 99b2      	SBIC 0x16,2
000c6c c002      	RJMP _0x184
000c6d 9bb4      	SBIS 0x16,4
000c6e c001      	RJMP _0x185
                 _0x184:
000c6f c002      	RJMP _0x183
                 _0x185:
000c70 940e 1fea 	CALL SUBOPT_0x6E
                 _0x183:
000c72 9bcc      	SBIS 0x19,4
000c73 c00a      	RJMP _0x187
000c74 99ce      	SBIC 0x19,6
000c75 c008      	RJMP _0x187
000c76 9bb0      	SBIS 0x16,0
000c77 c006      	RJMP _0x187
000c78 9bb6      	SBIS 0x16,6
000c79 c004      	RJMP _0x187
000c7a 99b2      	SBIC 0x16,2
000c7b c002      	RJMP _0x187
000c7c 9bb4      	SBIS 0x16,4
000c7d c001      	RJMP _0x188
                 _0x187:
000c7e c002      	RJMP _0x186
                 _0x188:
000c7f 940e 1ff1 	CALL SUBOPT_0x6F
                 _0x186:
000c81 99cc      	SBIC 0x19,4
000c82 c00a      	RJMP _0x18A
000c83 9bce      	SBIS 0x19,6
000c84 c008      	RJMP _0x18A
000c85 99b0      	SBIC 0x16,0
000c86 c006      	RJMP _0x18A
000c87 99b6      	SBIC 0x16,6
000c88 c004      	RJMP _0x18A
000c89 9bb2      	SBIS 0x16,2
000c8a c002      	RJMP _0x18A
000c8b 99b4      	SBIC 0x16,4
000c8c c001      	RJMP _0x18B
                 _0x18A:
000c8d c002      	RJMP _0x189
                 _0x18B:
000c8e 940e 1ff8 	CALL SUBOPT_0x70
                 _0x189:
000c90 940e 1df0 	CALL SUBOPT_0x26
000c92 940e 1fff 	CALL SUBOPT_0x71
000c94 f410      	BRSH _0x18C
000c95 940e 2008 	CALL SUBOPT_0x72
                 _0x18C:
000c97 9508      	RET
                 ; .FEND
                 _line_detector:
                 ; .FSTART _line_detector
000c98 9bcc      	SBIS 0x19,4
000c99 c00a      	RJMP _0x18E
000c9a 9bce      	SBIS 0x19,6
000c9b c008      	RJMP _0x18E
000c9c 9bb0      	SBIS 0x16,0
000c9d c006      	RJMP _0x18E
000c9e 9bb6      	SBIS 0x16,6
000c9f c004      	RJMP _0x18E
000ca0 9bb2      	SBIS 0x16,2
000ca1 c002      	RJMP _0x18E
000ca2 9bb4      	SBIS 0x16,4
000ca3 c001      	RJMP _0x18F
                 _0x18E:
000ca4 c002      	RJMP _0x18D
                 _0x18F:
000ca5 940e 1e5b 	CALL SUBOPT_0x35
                 _0x18D:
000ca7 9bcc      	SBIS 0x19,4
000ca8 c00a      	RJMP _0x191
000ca9 9bce      	SBIS 0x19,6
000caa c008      	RJMP _0x191
000cab 9bb0      	SBIS 0x16,0
000cac c006      	RJMP _0x191
000cad 9bb6      	SBIS 0x16,6
000cae c004      	RJMP _0x191
000caf 99b2      	SBIC 0x16,2
000cb0 c002      	RJMP _0x191
000cb1 99b4      	SBIC 0x16,4
000cb2 c001      	RJMP _0x192
                 _0x191:
000cb3 c002      	RJMP _0x190
                 _0x192:
000cb4 940e 1e62 	CALL SUBOPT_0x36
                 _0x190:
000cb6 9bcc      	SBIS 0x19,4
000cb7 c00a      	RJMP _0x194
000cb8 9bce      	SBIS 0x19,6
000cb9 c008      	RJMP _0x194
000cba 9bb0      	SBIS 0x16,0
000cbb c006      	RJMP _0x194
000cbc 99b6      	SBIC 0x16,6
000cbd c004      	RJMP _0x194
000cbe 9bb2      	SBIS 0x16,2
000cbf c002      	RJMP _0x194
000cc0 99b4      	SBIC 0x16,4
000cc1 c001      	RJMP _0x195
                 _0x194:
000cc2 c002      	RJMP _0x193
                 _0x195:
000cc3 940e 1e69 	CALL SUBOPT_0x37
                 _0x193:
000cc5 9bcc      	SBIS 0x19,4
000cc6 c00a      	RJMP _0x197
000cc7 9bce      	SBIS 0x19,6
000cc8 c008      	RJMP _0x197
000cc9 99b0      	SBIC 0x16,0
000cca c006      	RJMP _0x197
000ccb 9bb6      	SBIS 0x16,6
000ccc c004      	RJMP _0x197
000ccd 9bb2      	SBIS 0x16,2
000cce c002      	RJMP _0x197
000ccf 99b4      	SBIC 0x16,4
000cd0 c001      	RJMP _0x198
                 _0x197:
000cd1 c002      	RJMP _0x196
                 _0x198:
000cd2 940e 1e70 	CALL SUBOPT_0x38
                 _0x196:
000cd4 9bcc      	SBIS 0x19,4
000cd5 c00a      	RJMP _0x19A
000cd6 99ce      	SBIC 0x19,6
000cd7 c008      	RJMP _0x19A
000cd8 9bb0      	SBIS 0x16,0
000cd9 c006      	RJMP _0x19A
000cda 9bb6      	SBIS 0x16,6
000cdb c004      	RJMP _0x19A
000cdc 9bb2      	SBIS 0x16,2
000cdd c002      	RJMP _0x19A
000cde 99b4      	SBIC 0x16,4
000cdf c001      	RJMP _0x19B
                 _0x19A:
000ce0 c002      	RJMP _0x199
                 _0x19B:
000ce1 940e 1e77 	CALL SUBOPT_0x39
                 _0x199:
000ce3 99cc      	SBIC 0x19,4
000ce4 c00a      	RJMP _0x19D
000ce5 9bce      	SBIS 0x19,6
000ce6 c008      	RJMP _0x19D
000ce7 9bb0      	SBIS 0x16,0
000ce8 c006      	RJMP _0x19D
000ce9 9bb6      	SBIS 0x16,6
000cea c004      	RJMP _0x19D
000ceb 9bb2      	SBIS 0x16,2
000cec c002      	RJMP _0x19D
000ced 99b4      	SBIC 0x16,4
000cee c001      	RJMP _0x19E
                 _0x19D:
000cef c002      	RJMP _0x19C
                 _0x19E:
000cf0 940e 1e7e 	CALL SUBOPT_0x3A
                 _0x19C:
000cf2 9bcc      	SBIS 0x19,4
000cf3 c00a      	RJMP _0x1A0
000cf4 9bce      	SBIS 0x19,6
000cf5 c008      	RJMP _0x1A0
000cf6 9bb0      	SBIS 0x16,0
000cf7 c006      	RJMP _0x1A0
000cf8 9bb6      	SBIS 0x16,6
000cf9 c004      	RJMP _0x1A0
000cfa 99b2      	SBIC 0x16,2
000cfb c002      	RJMP _0x1A0
000cfc 9bb4      	SBIS 0x16,4
000cfd c001      	RJMP _0x1A1
                 _0x1A0:
000cfe c002      	RJMP _0x19F
                 _0x1A1:
000cff 940e 1e85 	CALL SUBOPT_0x3B
                 _0x19F:
000d01 9bcc      	SBIS 0x19,4
000d02 c00a      	RJMP _0x1A3
000d03 9bce      	SBIS 0x19,6
000d04 c008      	RJMP _0x1A3
000d05 9bb0      	SBIS 0x16,0
000d06 c006      	RJMP _0x1A3
000d07 99b6      	SBIC 0x16,6
000d08 c004      	RJMP _0x1A3
000d09 99b2      	SBIC 0x16,2
000d0a c002      	RJMP _0x1A3
000d0b 99b4      	SBIC 0x16,4
000d0c c001      	RJMP _0x1A4
                 _0x1A3:
000d0d c002      	RJMP _0x1A2
                 _0x1A4:
000d0e 940e 1e8c 	CALL SUBOPT_0x3C
                 _0x1A2:
000d10 9bcc      	SBIS 0x19,4
000d11 c00a      	RJMP _0x1A6
000d12 9bce      	SBIS 0x19,6
000d13 c008      	RJMP _0x1A6
000d14 99b0      	SBIC 0x16,0
000d15 c006      	RJMP _0x1A6
000d16 99b6      	SBIC 0x16,6
000d17 c004      	RJMP _0x1A6
000d18 9bb2      	SBIS 0x16,2
000d19 c002      	RJMP _0x1A6
000d1a 99b4      	SBIC 0x16,4
000d1b c001      	RJMP _0x1A7
                 _0x1A6:
000d1c c002      	RJMP _0x1A5
                 _0x1A7:
000d1d 940e 1e93 	CALL SUBOPT_0x3D
                 _0x1A5:
000d1f 9bcc      	SBIS 0x19,4
000d20 c00a      	RJMP _0x1A9
000d21 99ce      	SBIC 0x19,6
000d22 c008      	RJMP _0x1A9
000d23 99b0      	SBIC 0x16,0
000d24 c006      	RJMP _0x1A9
000d25 9bb6      	SBIS 0x16,6
000d26 c004      	RJMP _0x1A9
000d27 9bb2      	SBIS 0x16,2
000d28 c002      	RJMP _0x1A9
000d29 99b4      	SBIC 0x16,4
000d2a c001      	RJMP _0x1AA
                 _0x1A9:
000d2b c002      	RJMP _0x1A8
                 _0x1AA:
000d2c 940e 1e9a 	CALL SUBOPT_0x3E
                 _0x1A8:
000d2e 99cc      	SBIC 0x19,4
000d2f c00a      	RJMP _0x1AC
000d30 99ce      	SBIC 0x19,6
000d31 c008      	RJMP _0x1AC
000d32 9bb0      	SBIS 0x16,0
000d33 c006      	RJMP _0x1AC
000d34 9bb6      	SBIS 0x16,6
000d35 c004      	RJMP _0x1AC
000d36 9bb2      	SBIS 0x16,2
000d37 c002      	RJMP _0x1AC
000d38 99b4      	SBIC 0x16,4
000d39 c001      	RJMP _0x1AD
                 _0x1AC:
000d3a c002      	RJMP _0x1AB
                 _0x1AD:
000d3b 940e 1ea1 	CALL SUBOPT_0x3F
                 _0x1AB:
000d3d 9bcc      	SBIS 0x19,4
000d3e c00a      	RJMP _0x1AF
000d3f 9bce      	SBIS 0x19,6
000d40 c008      	RJMP _0x1AF
000d41 9bb0      	SBIS 0x16,0
000d42 c006      	RJMP _0x1AF
000d43 99b6      	SBIC 0x16,6
000d44 c004      	RJMP _0x1AF
000d45 99b2      	SBIC 0x16,2
000d46 c002      	RJMP _0x1AF
000d47 9bb4      	SBIS 0x16,4
000d48 c001      	RJMP _0x1B0
                 _0x1AF:
000d49 c002      	RJMP _0x1AE
                 _0x1B0:
000d4a 940e 1ea8 	CALL SUBOPT_0x40
                 _0x1AE:
000d4c 9bcc      	SBIS 0x19,4
000d4d c00a      	RJMP _0x1B2
000d4e 9bce      	SBIS 0x19,6
000d4f c008      	RJMP _0x1B2
000d50 99b0      	SBIC 0x16,0
000d51 c006      	RJMP _0x1B2
000d52 99b6      	SBIC 0x16,6
000d53 c004      	RJMP _0x1B2
000d54 99b2      	SBIC 0x16,2
000d55 c002      	RJMP _0x1B2
000d56 99b4      	SBIC 0x16,4
000d57 c001      	RJMP _0x1B3
                 _0x1B2:
000d58 c002      	RJMP _0x1B1
                 _0x1B3:
000d59 940e 1eaf 	CALL SUBOPT_0x41
                 _0x1B1:
000d5b 9bcc      	SBIS 0x19,4
000d5c c00a      	RJMP _0x1B5
000d5d 99ce      	SBIC 0x19,6
000d5e c008      	RJMP _0x1B5
000d5f 99b0      	SBIC 0x16,0
000d60 c006      	RJMP _0x1B5
000d61 99b6      	SBIC 0x16,6
000d62 c004      	RJMP _0x1B5
000d63 9bb2      	SBIS 0x16,2
000d64 c002      	RJMP _0x1B5
000d65 99b4      	SBIC 0x16,4
000d66 c001      	RJMP _0x1B6
                 _0x1B5:
000d67 c002      	RJMP _0x1B4
                 _0x1B6:
000d68 940e 1eb6 	CALL SUBOPT_0x42
                 _0x1B4:
000d6a 99cc      	SBIC 0x19,4
000d6b c00a      	RJMP _0x1B8
000d6c 99ce      	SBIC 0x19,6
000d6d c008      	RJMP _0x1B8
000d6e 99b0      	SBIC 0x16,0
000d6f c006      	RJMP _0x1B8
000d70 9bb6      	SBIS 0x16,6
000d71 c004      	RJMP _0x1B8
000d72 9bb2      	SBIS 0x16,2
000d73 c002      	RJMP _0x1B8
000d74 99b4      	SBIC 0x16,4
000d75 c001      	RJMP _0x1B9
                 _0x1B8:
000d76 c002      	RJMP _0x1B7
                 _0x1B9:
000d77 940e 1ebd 	CALL SUBOPT_0x43
                 _0x1B7:
000d79 9bcc      	SBIS 0x19,4
000d7a c00a      	RJMP _0x1BB
000d7b 9bce      	SBIS 0x19,6
000d7c c008      	RJMP _0x1BB
000d7d 99b0      	SBIC 0x16,0
000d7e c006      	RJMP _0x1BB
000d7f 99b6      	SBIC 0x16,6
000d80 c004      	RJMP _0x1BB
000d81 99b2      	SBIC 0x16,2
000d82 c002      	RJMP _0x1BB
000d83 9bb4      	SBIS 0x16,4
000d84 c001      	RJMP _0x1BC
                 _0x1BB:
000d85 c002      	RJMP _0x1BA
                 _0x1BC:
000d86 940e 1ec4 	CALL SUBOPT_0x44
                 _0x1BA:
000d88 9bcc      	SBIS 0x19,4
000d89 c00a      	RJMP _0x1BE
000d8a 99ce      	SBIC 0x19,6
000d8b c008      	RJMP _0x1BE
000d8c 99b0      	SBIC 0x16,0
000d8d c006      	RJMP _0x1BE
000d8e 99b6      	SBIC 0x16,6
000d8f c004      	RJMP _0x1BE
000d90 99b2      	SBIC 0x16,2
000d91 c002      	RJMP _0x1BE
000d92 99b4      	SBIC 0x16,4
000d93 c001      	RJMP _0x1BF
                 _0x1BE:
000d94 c002      	RJMP _0x1BD
                 _0x1BF:
000d95 940e 1ecb 	CALL SUBOPT_0x45
                 _0x1BD:
000d97 99cc      	SBIC 0x19,4
000d98 c00a      	RJMP _0x1C1
000d99 99ce      	SBIC 0x19,6
000d9a c008      	RJMP _0x1C1
000d9b 99b0      	SBIC 0x16,0
000d9c c006      	RJMP _0x1C1
000d9d 99b6      	SBIC 0x16,6
000d9e c004      	RJMP _0x1C1
000d9f 9bb2      	SBIS 0x16,2
000da0 c002      	RJMP _0x1C1
000da1 99b4      	SBIC 0x16,4
000da2 c001      	RJMP _0x1C2
                 _0x1C1:
000da3 c002      	RJMP _0x1C0
                 _0x1C2:
000da4 940e 1ed2 	CALL SUBOPT_0x46
                 _0x1C0:
000da6 9bcc      	SBIS 0x19,4
000da7 c00a      	RJMP _0x1C4
000da8 99ce      	SBIC 0x19,6
000da9 c008      	RJMP _0x1C4
000daa 99b0      	SBIC 0x16,0
000dab c006      	RJMP _0x1C4
000dac 99b6      	SBIC 0x16,6
000dad c004      	RJMP _0x1C4
000dae 99b2      	SBIC 0x16,2
000daf c002      	RJMP _0x1C4
000db0 9bb4      	SBIS 0x16,4
000db1 c001      	RJMP _0x1C5
                 _0x1C4:
000db2 c002      	RJMP _0x1C3
                 _0x1C5:
000db3 940e 1ed9 	CALL SUBOPT_0x47
                 _0x1C3:
000db5 99cc      	SBIC 0x19,4
000db6 c00a      	RJMP _0x1C7
000db7 99ce      	SBIC 0x19,6
000db8 c008      	RJMP _0x1C7
000db9 99b0      	SBIC 0x16,0
000dba c006      	RJMP _0x1C7
000dbb 99b6      	SBIC 0x16,6
000dbc c004      	RJMP _0x1C7
000dbd 99b2      	SBIC 0x16,2
000dbe c002      	RJMP _0x1C7
000dbf 99b4      	SBIC 0x16,4
000dc0 c001      	RJMP _0x1C8
                 _0x1C7:
000dc1 c002      	RJMP _0x1C6
                 _0x1C8:
000dc2 940e 1ee0 	CALL SUBOPT_0x48
                 _0x1C6:
000dc4 99cc      	SBIC 0x19,4
000dc5 c00a      	RJMP _0x1CA
000dc6 99ce      	SBIC 0x19,6
000dc7 c008      	RJMP _0x1CA
000dc8 99b0      	SBIC 0x16,0
000dc9 c006      	RJMP _0x1CA
000dca 99b6      	SBIC 0x16,6
000dcb c004      	RJMP _0x1CA
000dcc 99b2      	SBIC 0x16,2
000dcd c002      	RJMP _0x1CA
000dce 9bb4      	SBIS 0x16,4
000dcf c001      	RJMP _0x1CB
                 _0x1CA:
000dd0 c002      	RJMP _0x1C9
                 _0x1CB:
000dd1 940e 1ee7 	CALL SUBOPT_0x49
                 _0x1C9:
000dd3 9bcc      	SBIS 0x19,4
000dd4 c00a      	RJMP _0x1CD
000dd5 9bce      	SBIS 0x19,6
000dd6 c008      	RJMP _0x1CD
000dd7 9bb0      	SBIS 0x16,0
000dd8 c006      	RJMP _0x1CD
000dd9 99b6      	SBIC 0x16,6
000dda c004      	RJMP _0x1CD
000ddb 9bb2      	SBIS 0x16,2
000ddc c002      	RJMP _0x1CD
000ddd 9bb4      	SBIS 0x16,4
000dde c001      	RJMP _0x1CE
                 _0x1CD:
000ddf c002      	RJMP _0x1CC
                 _0x1CE:
000de0 940e 1eee 	CALL SUBOPT_0x4A
                 _0x1CC:
000de2 9bcc      	SBIS 0x19,4
000de3 c00a      	RJMP _0x1D0
000de4 9bce      	SBIS 0x19,6
000de5 c008      	RJMP _0x1D0
000de6 99b0      	SBIC 0x16,0
000de7 c006      	RJMP _0x1D0
000de8 9bb6      	SBIS 0x16,6
000de9 c004      	RJMP _0x1D0
000dea 99b2      	SBIC 0x16,2
000deb c002      	RJMP _0x1D0
000dec 99b4      	SBIC 0x16,4
000ded c001      	RJMP _0x1D1
                 _0x1D0:
000dee c002      	RJMP _0x1CF
                 _0x1D1:
000def 940e 1ef5 	CALL SUBOPT_0x4B
                 _0x1CF:
000df1 9bcc      	SBIS 0x19,4
000df2 c00a      	RJMP _0x1D3
000df3 99ce      	SBIC 0x19,6
000df4 c008      	RJMP _0x1D3
000df5 9bb0      	SBIS 0x16,0
000df6 c006      	RJMP _0x1D3
000df7 99b6      	SBIC 0x16,6
000df8 c004      	RJMP _0x1D3
000df9 9bb2      	SBIS 0x16,2
000dfa c002      	RJMP _0x1D3
000dfb 99b4      	SBIC 0x16,4
000dfc c001      	RJMP _0x1D4
                 _0x1D3:
000dfd c002      	RJMP _0x1D2
                 _0x1D4:
000dfe 940e 1efc 	CALL SUBOPT_0x4C
                 _0x1D2:
000e00 99cc      	SBIC 0x19,4
000e01 c00a      	RJMP _0x1D6
000e02 9bce      	SBIS 0x19,6
000e03 c008      	RJMP _0x1D6
000e04 99b0      	SBIC 0x16,0
000e05 c006      	RJMP _0x1D6
000e06 9bb6      	SBIS 0x16,6
000e07 c004      	RJMP _0x1D6
000e08 9bb2      	SBIS 0x16,2
000e09 c002      	RJMP _0x1D6
000e0a 99b4      	SBIC 0x16,4
000e0b c001      	RJMP _0x1D7
                 _0x1D6:
000e0c c002      	RJMP _0x1D5
                 _0x1D7:
000e0d 940e 1f03 	CALL SUBOPT_0x4D
                 _0x1D5:
000e0f 9bcc      	SBIS 0x19,4
000e10 c00a      	RJMP _0x1D9
000e11 9bce      	SBIS 0x19,6
000e12 c008      	RJMP _0x1D9
000e13 99b0      	SBIC 0x16,0
000e14 c006      	RJMP _0x1D9
000e15 9bb6      	SBIS 0x16,6
000e16 c004      	RJMP _0x1D9
000e17 9bb2      	SBIS 0x16,2
000e18 c002      	RJMP _0x1D9
000e19 9bb4      	SBIS 0x16,4
000e1a c001      	RJMP _0x1DA
                 _0x1D9:
000e1b c002      	RJMP _0x1D8
                 _0x1DA:
000e1c 940e 1f0a 	CALL SUBOPT_0x4E
                 _0x1D8:
000e1e 9bcc      	SBIS 0x19,4
000e1f c00a      	RJMP _0x1DC
000e20 99ce      	SBIC 0x19,6
000e21 c008      	RJMP _0x1DC
000e22 9bb0      	SBIS 0x16,0
000e23 c006      	RJMP _0x1DC
000e24 9bb6      	SBIS 0x16,6
000e25 c004      	RJMP _0x1DC
000e26 99b2      	SBIC 0x16,2
000e27 c002      	RJMP _0x1DC
000e28 99b4      	SBIC 0x16,4
000e29 c001      	RJMP _0x1DD
                 _0x1DC:
000e2a c002      	RJMP _0x1DB
                 _0x1DD:
000e2b 940e 1f11 	CALL SUBOPT_0x4F
                 _0x1DB:
000e2d 99cc      	SBIC 0x19,4
000e2e c00a      	RJMP _0x1DF
000e2f 9bce      	SBIS 0x19,6
000e30 c008      	RJMP _0x1DF
000e31 9bb0      	SBIS 0x16,0
000e32 c006      	RJMP _0x1DF
000e33 99b6      	SBIC 0x16,6
000e34 c004      	RJMP _0x1DF
000e35 9bb2      	SBIS 0x16,2
000e36 c002      	RJMP _0x1DF
000e37 99b4      	SBIC 0x16,4
000e38 c001      	RJMP _0x1E0
                 _0x1DF:
000e39 c002      	RJMP _0x1DE
                 _0x1E0:
000e3a 940e 1f18 	CALL SUBOPT_0x50
                 _0x1DE:
000e3c 9bcc      	SBIS 0x19,4
000e3d c00a      	RJMP _0x1E2
000e3e 99ce      	SBIC 0x19,6
000e3f c008      	RJMP _0x1E2
000e40 9bb0      	SBIS 0x16,0
000e41 c006      	RJMP _0x1E2
000e42 9bb6      	SBIS 0x16,6
000e43 c004      	RJMP _0x1E2
000e44 9bb2      	SBIS 0x16,2
000e45 c002      	RJMP _0x1E2
000e46 9bb4      	SBIS 0x16,4
000e47 c001      	RJMP _0x1E3
                 _0x1E2:
000e48 c002      	RJMP _0x1E1
                 _0x1E3:
000e49 940e 1f1f 	CALL SUBOPT_0x51
                 _0x1E1:
000e4b 99cc      	SBIC 0x19,4
000e4c c00a      	RJMP _0x1E5
000e4d 9bce      	SBIS 0x19,6
000e4e c008      	RJMP _0x1E5
000e4f 9bb0      	SBIS 0x16,0
000e50 c006      	RJMP _0x1E5
000e51 9bb6      	SBIS 0x16,6
000e52 c004      	RJMP _0x1E5
000e53 99b2      	SBIC 0x16,2
000e54 c002      	RJMP _0x1E5
000e55 99b4      	SBIC 0x16,4
000e56 c001      	RJMP _0x1E6
                 _0x1E5:
000e57 c002      	RJMP _0x1E4
                 _0x1E6:
000e58 940e 1f26 	CALL SUBOPT_0x52
                 _0x1E4:
000e5a 99cc      	SBIC 0x19,4
000e5b c00a      	RJMP _0x1E8
000e5c 9bce      	SBIS 0x19,6
000e5d c008      	RJMP _0x1E8
000e5e 9bb0      	SBIS 0x16,0
000e5f c006      	RJMP _0x1E8
000e60 9bb6      	SBIS 0x16,6
000e61 c004      	RJMP _0x1E8
000e62 9bb2      	SBIS 0x16,2
000e63 c002      	RJMP _0x1E8
000e64 9bb4      	SBIS 0x16,4
000e65 c001      	RJMP _0x1E9
                 _0x1E8:
000e66 c002      	RJMP _0x1E7
                 _0x1E9:
000e67 940e 1f2d 	CALL SUBOPT_0x53
                 _0x1E7:
000e69 99cc      	SBIC 0x19,4
000e6a c00a      	RJMP _0x1EB
000e6b 99ce      	SBIC 0x19,6
000e6c c008      	RJMP _0x1EB
000e6d 99b0      	SBIC 0x16,0
000e6e c006      	RJMP _0x1EB
000e6f 99b6      	SBIC 0x16,6
000e70 c004      	RJMP _0x1EB
000e71 9bb2      	SBIS 0x16,2
000e72 c002      	RJMP _0x1EB
000e73 9bb4      	SBIS 0x16,4
000e74 c001      	RJMP _0x1EC
                 _0x1EB:
000e75 c002      	RJMP _0x1EA
                 _0x1EC:
000e76 940e 1f34 	CALL SUBOPT_0x54
                 _0x1EA:
000e78 99cc      	SBIC 0x19,4
000e79 c00a      	RJMP _0x1EE
000e7a 99ce      	SBIC 0x19,6
000e7b c008      	RJMP _0x1EE
000e7c 99b0      	SBIC 0x16,0
000e7d c006      	RJMP _0x1EE
000e7e 9bb6      	SBIS 0x16,6
000e7f c004      	RJMP _0x1EE
000e80 99b2      	SBIC 0x16,2
000e81 c002      	RJMP _0x1EE
000e82 9bb4      	SBIS 0x16,4
000e83 c001      	RJMP _0x1EF
                 _0x1EE:
000e84 c002      	RJMP _0x1ED
                 _0x1EF:
000e85 940e 1f3b 	CALL SUBOPT_0x55
                 _0x1ED:
000e87 99cc      	SBIC 0x19,4
000e88 c00a      	RJMP _0x1F1
000e89 99ce      	SBIC 0x19,6
000e8a c008      	RJMP _0x1F1
000e8b 9bb0      	SBIS 0x16,0
000e8c c006      	RJMP _0x1F1
000e8d 99b6      	SBIC 0x16,6
000e8e c004      	RJMP _0x1F1
000e8f 99b2      	SBIC 0x16,2
000e90 c002      	RJMP _0x1F1
000e91 9bb4      	SBIS 0x16,4
000e92 c001      	RJMP _0x1F2
                 _0x1F1:
000e93 c002      	RJMP _0x1F0
                 _0x1F2:
000e94 940e 1f42 	CALL SUBOPT_0x56
                 _0x1F0:
000e96 99cc      	SBIC 0x19,4
000e97 c00a      	RJMP _0x1F4
000e98 9bce      	SBIS 0x19,6
000e99 c008      	RJMP _0x1F4
000e9a 99b0      	SBIC 0x16,0
000e9b c006      	RJMP _0x1F4
000e9c 99b6      	SBIC 0x16,6
000e9d c004      	RJMP _0x1F4
000e9e 99b2      	SBIC 0x16,2
000e9f c002      	RJMP _0x1F4
000ea0 9bb4      	SBIS 0x16,4
000ea1 c001      	RJMP _0x1F5
                 _0x1F4:
000ea2 c002      	RJMP _0x1F3
                 _0x1F5:
000ea3 940e 1f49 	CALL SUBOPT_0x57
                 _0x1F3:
000ea5 99cc      	SBIC 0x19,4
000ea6 c00a      	RJMP _0x1F7
000ea7 99ce      	SBIC 0x19,6
000ea8 c008      	RJMP _0x1F7
000ea9 99b0      	SBIC 0x16,0
000eaa c006      	RJMP _0x1F7
000eab 9bb6      	SBIS 0x16,6
000eac c004      	RJMP _0x1F7
000ead 9bb2      	SBIS 0x16,2
000eae c002      	RJMP _0x1F7
000eaf 9bb4      	SBIS 0x16,4
000eb0 c001      	RJMP _0x1F8
                 _0x1F7:
000eb1 c002      	RJMP _0x1F6
                 _0x1F8:
000eb2 940e 1f50 	CALL SUBOPT_0x58
                 _0x1F6:
000eb4 99cc      	SBIC 0x19,4
000eb5 c00a      	RJMP _0x1FA
000eb6 99ce      	SBIC 0x19,6
000eb7 c008      	RJMP _0x1FA
000eb8 9bb0      	SBIS 0x16,0
000eb9 c006      	RJMP _0x1FA
000eba 9bb6      	SBIS 0x16,6
000ebb c004      	RJMP _0x1FA
000ebc 99b2      	SBIC 0x16,2
000ebd c002      	RJMP _0x1FA
000ebe 9bb4      	SBIS 0x16,4
000ebf c001      	RJMP _0x1FB
                 _0x1FA:
000ec0 c002      	RJMP _0x1F9
                 _0x1FB:
000ec1 940e 1f57 	CALL SUBOPT_0x59
                 _0x1F9:
000ec3 99cc      	SBIC 0x19,4
000ec4 c00a      	RJMP _0x1FD
000ec5 9bce      	SBIS 0x19,6
000ec6 c008      	RJMP _0x1FD
000ec7 9bb0      	SBIS 0x16,0
000ec8 c006      	RJMP _0x1FD
000ec9 99b6      	SBIC 0x16,6
000eca c004      	RJMP _0x1FD
000ecb 99b2      	SBIC 0x16,2
000ecc c002      	RJMP _0x1FD
000ecd 9bb4      	SBIS 0x16,4
000ece c001      	RJMP _0x1FE
                 _0x1FD:
000ecf c002      	RJMP _0x1FC
                 _0x1FE:
000ed0 940e 1f5e 	CALL SUBOPT_0x5A
                 _0x1FC:
000ed2 99cc      	SBIC 0x19,4
000ed3 c00a      	RJMP _0x200
000ed4 9bce      	SBIS 0x19,6
000ed5 c008      	RJMP _0x200
000ed6 99b0      	SBIC 0x16,0
000ed7 c006      	RJMP _0x200
000ed8 9bb6      	SBIS 0x16,6
000ed9 c004      	RJMP _0x200
000eda 99b2      	SBIC 0x16,2
000edb c002      	RJMP _0x200
000edc 99b4      	SBIC 0x16,4
000edd c001      	RJMP _0x201
                 _0x200:
000ede c002      	RJMP _0x1FF
                 _0x201:
000edf 940e 1f65 	CALL SUBOPT_0x5B
                 _0x1FF:
000ee1 9bcc      	SBIS 0x19,4
000ee2 c00a      	RJMP _0x203
000ee3 99ce      	SBIC 0x19,6
000ee4 c008      	RJMP _0x203
000ee5 9bb0      	SBIS 0x16,0
000ee6 c006      	RJMP _0x203
000ee7 99b6      	SBIC 0x16,6
000ee8 c004      	RJMP _0x203
000ee9 9bb2      	SBIS 0x16,2
000eea c002      	RJMP _0x203
000eeb 9bb4      	SBIS 0x16,4
000eec c001      	RJMP _0x204
                 _0x203:
000eed c002      	RJMP _0x202
                 _0x204:
000eee 940e 1f6c 	CALL SUBOPT_0x5C
                 _0x202:
000ef0 99cc      	SBIC 0x19,4
000ef1 c00a      	RJMP _0x206
000ef2 9bce      	SBIS 0x19,6
000ef3 c008      	RJMP _0x206
000ef4 9bb0      	SBIS 0x16,0
000ef5 c006      	RJMP _0x206
000ef6 99b6      	SBIC 0x16,6
000ef7 c004      	RJMP _0x206
000ef8 99b2      	SBIC 0x16,2
000ef9 c002      	RJMP _0x206
000efa 99b4      	SBIC 0x16,4
000efb c001      	RJMP _0x207
                 _0x206:
000efc c002      	RJMP _0x205
                 _0x207:
000efd 940e 1f73 	CALL SUBOPT_0x5D
                 _0x205:
000eff 9bcc      	SBIS 0x19,4
000f00 c00a      	RJMP _0x209
000f01 99ce      	SBIC 0x19,6
000f02 c008      	RJMP _0x209
000f03 99b0      	SBIC 0x16,0
000f04 c006      	RJMP _0x209
000f05 9bb6      	SBIS 0x16,6
000f06 c004      	RJMP _0x209
000f07 9bb2      	SBIS 0x16,2
000f08 c002      	RJMP _0x209
000f09 9bb4      	SBIS 0x16,4
000f0a c001      	RJMP _0x20A
                 _0x209:
000f0b c002      	RJMP _0x208
                 _0x20A:
000f0c 940e 1f7a 	CALL SUBOPT_0x5E
                 _0x208:
000f0e 99cc      	SBIC 0x19,4
000f0f c00a      	RJMP _0x20C
000f10 99ce      	SBIC 0x19,6
000f11 c008      	RJMP _0x20C
000f12 9bb0      	SBIS 0x16,0
000f13 c006      	RJMP _0x20C
000f14 99b6      	SBIC 0x16,6
000f15 c004      	RJMP _0x20C
000f16 9bb2      	SBIS 0x16,2
000f17 c002      	RJMP _0x20C
000f18 9bb4      	SBIS 0x16,4
000f19 c001      	RJMP _0x20D
                 _0x20C:
000f1a c002      	RJMP _0x20B
                 _0x20D:
000f1b 940e 1f81 	CALL SUBOPT_0x5F
                 _0x20B:
000f1d 99cc      	SBIC 0x19,4
000f1e c00a      	RJMP _0x20F
000f1f 99ce      	SBIC 0x19,6
000f20 c008      	RJMP _0x20F
000f21 9bb0      	SBIS 0x16,0
000f22 c006      	RJMP _0x20F
000f23 99b6      	SBIC 0x16,6
000f24 c004      	RJMP _0x20F
000f25 99b2      	SBIC 0x16,2
000f26 c002      	RJMP _0x20F
000f27 99b4      	SBIC 0x16,4
000f28 c001      	RJMP _0x210
                 _0x20F:
000f29 c002      	RJMP _0x20E
                 _0x210:
000f2a 940e 1f88 	CALL SUBOPT_0x60
                 _0x20E:
000f2c 99cc      	SBIC 0x19,4
000f2d c00a      	RJMP _0x212
000f2e 9bce      	SBIS 0x19,6
000f2f c008      	RJMP _0x212
000f30 99b0      	SBIC 0x16,0
000f31 c006      	RJMP _0x212
000f32 99b6      	SBIC 0x16,6
000f33 c004      	RJMP _0x212
000f34 9bb2      	SBIS 0x16,2
000f35 c002      	RJMP _0x212
000f36 9bb4      	SBIS 0x16,4
000f37 c001      	RJMP _0x213
                 _0x212:
000f38 c002      	RJMP _0x211
                 _0x213:
000f39 940e 1f8f 	CALL SUBOPT_0x61
                 _0x211:
000f3b 99cc      	SBIC 0x19,4
000f3c c00a      	RJMP _0x215
000f3d 9bce      	SBIS 0x19,6
000f3e c008      	RJMP _0x215
000f3f 99b0      	SBIC 0x16,0
000f40 c006      	RJMP _0x215
000f41 99b6      	SBIC 0x16,6
000f42 c004      	RJMP _0x215
000f43 99b2      	SBIC 0x16,2
000f44 c002      	RJMP _0x215
000f45 99b4      	SBIC 0x16,4
000f46 c001      	RJMP _0x216
                 _0x215:
000f47 c002      	RJMP _0x214
                 _0x216:
000f48 940e 1f96 	CALL SUBOPT_0x62
                 _0x214:
000f4a 9bcc      	SBIS 0x19,4
000f4b c00a      	RJMP _0x218
000f4c 99ce      	SBIC 0x19,6
000f4d c008      	RJMP _0x218
000f4e 99b0      	SBIC 0x16,0
000f4f c006      	RJMP _0x218
000f50 99b6      	SBIC 0x16,6
000f51 c004      	RJMP _0x218
000f52 9bb2      	SBIS 0x16,2
000f53 c002      	RJMP _0x218
000f54 9bb4      	SBIS 0x16,4
000f55 c001      	RJMP _0x219
                 _0x218:
000f56 c002      	RJMP _0x217
                 _0x219:
000f57 940e 1f9d 	CALL SUBOPT_0x63
                 _0x217:
000f59 9bcc      	SBIS 0x19,4
000f5a c00a      	RJMP _0x21B
000f5b 99ce      	SBIC 0x19,6
000f5c c008      	RJMP _0x21B
000f5d 99b0      	SBIC 0x16,0
000f5e c006      	RJMP _0x21B
000f5f 9bb6      	SBIS 0x16,6
000f60 c004      	RJMP _0x21B
000f61 99b2      	SBIC 0x16,2
000f62 c002      	RJMP _0x21B
000f63 9bb4      	SBIS 0x16,4
000f64 c001      	RJMP _0x21C
                 _0x21B:
000f65 c002      	RJMP _0x21A
                 _0x21C:
000f66 940e 1fa4 	CALL SUBOPT_0x64
                 _0x21A:
000f68 99cc      	SBIC 0x19,4
000f69 c00a      	RJMP _0x21E
000f6a 99ce      	SBIC 0x19,6
000f6b c008      	RJMP _0x21E
000f6c 9bb0      	SBIS 0x16,0
000f6d c006      	RJMP _0x21E
000f6e 9bb6      	SBIS 0x16,6
000f6f c004      	RJMP _0x21E
000f70 99b2      	SBIC 0x16,2
000f71 c002      	RJMP _0x21E
000f72 99b4      	SBIC 0x16,4
000f73 c001      	RJMP _0x21F
                 _0x21E:
000f74 c002      	RJMP _0x21D
                 _0x21F:
000f75 940e 1fab 	CALL SUBOPT_0x65
                 _0x21D:
000f77 9bcc      	SBIS 0x19,4
000f78 c00a      	RJMP _0x221
000f79 99ce      	SBIC 0x19,6
000f7a c008      	RJMP _0x221
000f7b 99b0      	SBIC 0x16,0
000f7c c006      	RJMP _0x221
000f7d 9bb6      	SBIS 0x16,6
000f7e c004      	RJMP _0x221
000f7f 9bb2      	SBIS 0x16,2
000f80 c002      	RJMP _0x221
000f81 9bb4      	SBIS 0x16,4
000f82 c001      	RJMP _0x222
                 _0x221:
000f83 c002      	RJMP _0x220
                 _0x222:
000f84 940e 1fb2 	CALL SUBOPT_0x66
                 _0x220:
000f86 99cc      	SBIC 0x19,4
000f87 c00a      	RJMP _0x224
000f88 99ce      	SBIC 0x19,6
000f89 c008      	RJMP _0x224
000f8a 9bb0      	SBIS 0x16,0
000f8b c006      	RJMP _0x224
000f8c 9bb6      	SBIS 0x16,6
000f8d c004      	RJMP _0x224
000f8e 99b2      	SBIC 0x16,2
000f8f c002      	RJMP _0x224
000f90 99b4      	SBIC 0x16,4
000f91 c001      	RJMP _0x225
                 _0x224:
000f92 c002      	RJMP _0x223
                 _0x225:
000f93 940e 1fb9 	CALL SUBOPT_0x67
                 _0x223:
000f95 99cc      	SBIC 0x19,4
000f96 c00a      	RJMP _0x227
000f97 99ce      	SBIC 0x19,6
000f98 c008      	RJMP _0x227
000f99 9bb0      	SBIS 0x16,0
000f9a c006      	RJMP _0x227
000f9b 99b6      	SBIC 0x16,6
000f9c c004      	RJMP _0x227
000f9d 9bb2      	SBIS 0x16,2
000f9e c002      	RJMP _0x227
000f9f 99b4      	SBIC 0x16,4
000fa0 c001      	RJMP _0x228
                 _0x227:
000fa1 c002      	RJMP _0x226
                 _0x228:
000fa2 940e 1fc0 	CALL SUBOPT_0x68
                 _0x226:
000fa4 99cc      	SBIC 0x19,4
000fa5 c00a      	RJMP _0x22A
000fa6 99ce      	SBIC 0x19,6
000fa7 c008      	RJMP _0x22A
000fa8 99b0      	SBIC 0x16,0
000fa9 c006      	RJMP _0x22A
000faa 9bb6      	SBIS 0x16,6
000fab c004      	RJMP _0x22A
000fac 99b2      	SBIC 0x16,2
000fad c002      	RJMP _0x22A
000fae 99b4      	SBIC 0x16,4
000faf c001      	RJMP _0x22B
                 _0x22A:
000fb0 c002      	RJMP _0x229
                 _0x22B:
000fb1 940e 1fc7 	CALL SUBOPT_0x69
                 _0x229:
000fb3 9bcc      	SBIS 0x19,4
000fb4 c00a      	RJMP _0x22D
000fb5 9bce      	SBIS 0x19,6
000fb6 c008      	RJMP _0x22D
000fb7 99b0      	SBIC 0x16,0
000fb8 c006      	RJMP _0x22D
000fb9 99b6      	SBIC 0x16,6
000fba c004      	RJMP _0x22D
000fbb 9bb2      	SBIS 0x16,2
000fbc c002      	RJMP _0x22D
000fbd 9bb4      	SBIS 0x16,4
000fbe c001      	RJMP _0x22E
                 _0x22D:
000fbf c002      	RJMP _0x22C
                 _0x22E:
000fc0 940e 1fce 	CALL SUBOPT_0x6A
                 _0x22C:
000fc2 99cc      	SBIC 0x19,4
000fc3 c00a      	RJMP _0x230
000fc4 9bce      	SBIS 0x19,6
000fc5 c008      	RJMP _0x230
000fc6 9bb0      	SBIS 0x16,0
000fc7 c006      	RJMP _0x230
000fc8 9bb6      	SBIS 0x16,6
000fc9 c004      	RJMP _0x230
000fca 99b2      	SBIC 0x16,2
000fcb c002      	RJMP _0x230
000fcc 9bb4      	SBIS 0x16,4
000fcd c001      	RJMP _0x231
                 _0x230:
000fce c002      	RJMP _0x22F
                 _0x231:
000fcf 940e 1fd5 	CALL SUBOPT_0x6B
                 _0x22F:
000fd1 99cc      	SBIC 0x19,4
000fd2 c00a      	RJMP _0x233
000fd3 9bce      	SBIS 0x19,6
000fd4 c008      	RJMP _0x233
000fd5 99b0      	SBIC 0x16,0
000fd6 c006      	RJMP _0x233
000fd7 9bb6      	SBIS 0x16,6
000fd8 c004      	RJMP _0x233
000fd9 99b2      	SBIC 0x16,2
000fda c002      	RJMP _0x233
000fdb 9bb4      	SBIS 0x16,4
000fdc c001      	RJMP _0x234
                 _0x233:
000fdd c002      	RJMP _0x232
                 _0x234:
000fde 940e 1fdc 	CALL SUBOPT_0x6C
                 _0x232:
000fe0 9bcc      	SBIS 0x19,4
000fe1 c00a      	RJMP _0x236
000fe2 9bce      	SBIS 0x19,6
000fe3 c008      	RJMP _0x236
000fe4 99b0      	SBIC 0x16,0
000fe5 c006      	RJMP _0x236
000fe6 9bb6      	SBIS 0x16,6
000fe7 c004      	RJMP _0x236
000fe8 99b2      	SBIC 0x16,2
000fe9 c002      	RJMP _0x236
000fea 9bb4      	SBIS 0x16,4
000feb c001      	RJMP _0x237
                 _0x236:
000fec c002      	RJMP _0x235
                 _0x237:
000fed 940e 1fe3 	CALL SUBOPT_0x6D
                 _0x235:
000fef 9bcc      	SBIS 0x19,4
000ff0 c00a      	RJMP _0x239
000ff1 99ce      	SBIC 0x19,6
000ff2 c008      	RJMP _0x239
000ff3 9bb0      	SBIS 0x16,0
000ff4 c006      	RJMP _0x239
000ff5 99b6      	SBIC 0x16,6
000ff6 c004      	RJMP _0x239
000ff7 99b2      	SBIC 0x16,2
000ff8 c002      	RJMP _0x239
000ff9 9bb4      	SBIS 0x16,4
000ffa c001      	RJMP _0x23A
                 _0x239:
000ffb c002      	RJMP _0x238
                 _0x23A:
000ffc 940e 1fea 	CALL SUBOPT_0x6E
                 _0x238:
000ffe 9bcc      	SBIS 0x19,4
000fff c00a      	RJMP _0x23C
001000 99ce      	SBIC 0x19,6
001001 c008      	RJMP _0x23C
001002 9bb0      	SBIS 0x16,0
001003 c006      	RJMP _0x23C
001004 9bb6      	SBIS 0x16,6
001005 c004      	RJMP _0x23C
001006 99b2      	SBIC 0x16,2
001007 c002      	RJMP _0x23C
001008 9bb4      	SBIS 0x16,4
001009 c001      	RJMP _0x23D
                 _0x23C:
00100a c002      	RJMP _0x23B
                 _0x23D:
00100b 940e 1ff1 	CALL SUBOPT_0x6F
                 _0x23B:
00100d 99cc      	SBIC 0x19,4
00100e c00a      	RJMP _0x23F
00100f 9bce      	SBIS 0x19,6
001010 c008      	RJMP _0x23F
001011 99b0      	SBIC 0x16,0
001012 c006      	RJMP _0x23F
001013 99b6      	SBIC 0x16,6
001014 c004      	RJMP _0x23F
001015 9bb2      	SBIS 0x16,2
001016 c002      	RJMP _0x23F
001017 99b4      	SBIC 0x16,4
001018 c001      	RJMP _0x240
                 _0x23F:
001019 c002      	RJMP _0x23E
                 _0x240:
00101a 940e 1ff8 	CALL SUBOPT_0x70
                 _0x23E:
00101c 940e 1df0 	CALL SUBOPT_0x26
00101e 940e 1fff 	CALL SUBOPT_0x71
001020 f410      	BRSH _0x241
001021 940e 2008 	CALL SUBOPT_0x72
                 _0x241:
001023 9b00      	SBIS 0x0,0
001024 c006      	RJMP _0x243
001025 9b02      	SBIS 0x0,2
001026 c004      	RJMP _0x243
001027 9b04      	SBIS 0x0,4
001028 c002      	RJMP _0x243
001029 9906      	SBIC 0x0,6
00102a c001      	RJMP _0x244
                 _0x243:
00102b c004      	RJMP _0x242
                 _0x244:
00102c e4e1      	LDI  R30,LOW(65)
00102d e0f0      	LDI  R31,HIGH(65)
00102e 940e 200f 	CALL SUBOPT_0x73
                 _0x242:
001030 9900      	SBIC 0x0,0
001031 c006      	RJMP _0x246
001032 9902      	SBIC 0x0,2
001033 c004      	RJMP _0x246
001034 9904      	SBIC 0x0,4
001035 c002      	RJMP _0x246
001036 9b06      	SBIS 0x0,6
001037 c001      	RJMP _0x247
                 _0x246:
001038 c004      	RJMP _0x245
                 _0x247:
001039 e4e2      	LDI  R30,LOW(66)
00103a e0f0      	LDI  R31,HIGH(66)
00103b 940e 200f 	CALL SUBOPT_0x73
                 _0x245:
00103d 9900      	SBIC 0x0,0
00103e c006      	RJMP _0x249
00103f 9b02      	SBIS 0x0,2
001040 c004      	RJMP _0x249
001041 9b04      	SBIS 0x0,4
001042 c002      	RJMP _0x249
001043 9906      	SBIC 0x0,6
001044 c001      	RJMP _0x24A
                 _0x249:
001045 c004      	RJMP _0x248
                 _0x24A:
001046 e4e3      	LDI  R30,LOW(67)
001047 e0f0      	LDI  R31,HIGH(67)
001048 940e 200f 	CALL SUBOPT_0x73
                 _0x248:
00104a 9900      	SBIC 0x0,0
00104b c006      	RJMP _0x24C
00104c 9902      	SBIC 0x0,2
00104d c004      	RJMP _0x24C
00104e 9b04      	SBIS 0x0,4
00104f c002      	RJMP _0x24C
001050 9906      	SBIC 0x0,6
001051 c001      	RJMP _0x24D
                 _0x24C:
001052 c004      	RJMP _0x24B
                 _0x24D:
001053 e4e4      	LDI  R30,LOW(68)
001054 e0f0      	LDI  R31,HIGH(68)
001055 940e 200f 	CALL SUBOPT_0x73
                 _0x24B:
001057 9900      	SBIC 0x0,0
001058 c006      	RJMP _0x24F
001059 9902      	SBIC 0x0,2
00105a c004      	RJMP _0x24F
00105b 9904      	SBIC 0x0,4
00105c c002      	RJMP _0x24F
00105d 9906      	SBIC 0x0,6
00105e c001      	RJMP _0x250
                 _0x24F:
00105f c004      	RJMP _0x24E
                 _0x250:
001060 e4e5      	LDI  R30,LOW(69)
001061 e0f0      	LDI  R31,HIGH(69)
001062 940e 200f 	CALL SUBOPT_0x73
                 _0x24E:
001064 9b00      	SBIS 0x0,0
001065 c006      	RJMP _0x252
001066 9b02      	SBIS 0x0,2
001067 c004      	RJMP _0x252
001068 9b04      	SBIS 0x0,4
001069 c002      	RJMP _0x252
00106a 9b06      	SBIS 0x0,6
00106b c001      	RJMP _0x253
                 _0x252:
00106c c004      	RJMP _0x251
                 _0x253:
00106d e4e6      	LDI  R30,LOW(70)
00106e e0f0      	LDI  R31,HIGH(70)
00106f 940e 200f 	CALL SUBOPT_0x73
                 _0x251:
001071 9b00      	SBIS 0x0,0
001072 c006      	RJMP _0x255
001073 9b02      	SBIS 0x0,2
001074 c004      	RJMP _0x255
001075 9904      	SBIC 0x0,4
001076 c002      	RJMP _0x255
001077 9b06      	SBIS 0x0,6
001078 c001      	RJMP _0x256
                 _0x255:
001079 c004      	RJMP _0x254
                 _0x256:
00107a e4e7      	LDI  R30,LOW(71)
00107b e0f0      	LDI  R31,HIGH(71)
00107c 940e 200f 	CALL SUBOPT_0x73
                 _0x254:
00107e 9b00      	SBIS 0x0,0
00107f c006      	RJMP _0x258
001080 9902      	SBIC 0x0,2
001081 c004      	RJMP _0x258
001082 9904      	SBIC 0x0,4
001083 c002      	RJMP _0x258
001084 9b06      	SBIS 0x0,6
001085 c001      	RJMP _0x259
                 _0x258:
001086 c004      	RJMP _0x257
                 _0x259:
001087 e4e8      	LDI  R30,LOW(72)
001088 e0f0      	LDI  R31,HIGH(72)
001089 940e 200f 	CALL SUBOPT_0x73
                 _0x257:
00108b 9900      	SBIC 0x0,0
00108c c006      	RJMP _0x25B
00108d 9b02      	SBIS 0x0,2
00108e c004      	RJMP _0x25B
00108f 9b04      	SBIS 0x0,4
001090 c002      	RJMP _0x25B
001091 9b06      	SBIS 0x0,6
001092 c001      	RJMP _0x25C
                 _0x25B:
001093 c004      	RJMP _0x25A
                 _0x25C:
001094 e4e9      	LDI  R30,LOW(73)
001095 e0f0      	LDI  R31,HIGH(73)
001096 940e 200f 	CALL SUBOPT_0x73
                 _0x25A:
001098 9b00      	SBIS 0x0,0
001099 c006      	RJMP _0x25E
00109a 9902      	SBIC 0x0,2
00109b c004      	RJMP _0x25E
00109c 9904      	SBIC 0x0,4
00109d c002      	RJMP _0x25E
00109e 9906      	SBIC 0x0,6
00109f c001      	RJMP _0x25F
                 _0x25E:
0010a0 c004      	RJMP _0x25D
                 _0x25F:
0010a1 e4ea      	LDI  R30,LOW(74)
0010a2 e0f0      	LDI  R31,HIGH(74)
0010a3 940e 200f 	CALL SUBOPT_0x73
                 _0x25D:
0010a5 9508      	RET
                 ; .FEND
                 _detectorcase_line:
                 ; .FSTART _detectorcase_line
0010a6 940e 1c16 	CALL _lcd_clear
0010a8 91e0 079a 	LDS  R30,_detector_value_line
0010aa 91f0 079b 	LDS  R31,_detector_value_line+1
0010ac 30e1      	CPI  R30,LOW(0x1)
0010ad e0a0      	LDI  R26,HIGH(0x1)
0010ae 07fa      	CPC  R31,R26
0010af f441      	BRNE _0x263
0010b0 940e 1e13 	CALL SUBOPT_0x2A
0010b2 940e 2014 	CALL SUBOPT_0x74
0010b4 940e 1e31 	CALL SUBOPT_0x30
0010b6 e0a1      	LDI  R26,LOW(1)
0010b7 c319      	RJMP _0x377
                 _0x263:
0010b8 30e2      	CPI  R30,LOW(0x2)
0010b9 e0a0      	LDI  R26,HIGH(0x2)
0010ba 07fa      	CPC  R31,R26
0010bb f441      	BRNE _0x264
0010bc 940e 2014 	CALL SUBOPT_0x74
0010be 940e 1e13 	CALL SUBOPT_0x2A
0010c0 940e 1e31 	CALL SUBOPT_0x30
0010c2 e0a1      	LDI  R26,LOW(1)
0010c3 c30d      	RJMP _0x377
                 _0x264:
0010c4 30e3      	CPI  R30,LOW(0x3)
0010c5 e0a0      	LDI  R26,HIGH(0x3)
0010c6 07fa      	CPC  R31,R26
0010c7 f429      	BRNE _0x265
0010c8 940e 2014 	CALL SUBOPT_0x74
0010ca e6e4      	LDI  R30,LOW(100)
0010cb e0f0      	LDI  R31,HIGH(100)
0010cc c2ff      	RJMP _0x378
                 _0x265:
0010cd 30e4      	CPI  R30,LOW(0x4)
0010ce e0a0      	LDI  R26,HIGH(0x4)
0010cf 07fa      	CPC  R31,R26
0010d0 f429      	BRNE _0x266
0010d1 940e 1e13 	CALL SUBOPT_0x2A
0010d3 e4e6      	LDI  R30,LOW(70)
0010d4 e0f0      	LDI  R31,HIGH(70)
0010d5 c2f6      	RJMP _0x378
                 _0x266:
0010d6 30e5      	CPI  R30,LOW(0x5)
0010d7 e0a0      	LDI  R26,HIGH(0x5)
0010d8 07fa      	CPC  R31,R26
0010d9 f441      	BRNE _0x267
0010da 940e 1e13 	CALL SUBOPT_0x2A
0010dc 940e 2014 	CALL SUBOPT_0x74
0010de 940e 1e31 	CALL SUBOPT_0x30
0010e0 e0a1      	LDI  R26,LOW(1)
0010e1 c2ef      	RJMP _0x377
                 _0x267:
0010e2 30e6      	CPI  R30,LOW(0x6)
0010e3 e0a0      	LDI  R26,HIGH(0x6)
0010e4 07fa      	CPC  R31,R26
0010e5 f441      	BRNE _0x268
0010e6 940e 2014 	CALL SUBOPT_0x74
0010e8 940e 1e13 	CALL SUBOPT_0x2A
0010ea 940e 1e31 	CALL SUBOPT_0x30
0010ec e0a1      	LDI  R26,LOW(1)
0010ed c2e3      	RJMP _0x377
                 _0x268:
0010ee 30e7      	CPI  R30,LOW(0x7)
0010ef e0a0      	LDI  R26,HIGH(0x7)
0010f0 07fa      	CPC  R31,R26
0010f1 f441      	BRNE _0x269
0010f2 940e 2019 	CALL SUBOPT_0x75
0010f4 940e 1e13 	CALL SUBOPT_0x2A
0010f6 940e 1e31 	CALL SUBOPT_0x30
0010f8 e0a1      	LDI  R26,LOW(1)
0010f9 c2d7      	RJMP _0x377
                 _0x269:
0010fa 30e8      	CPI  R30,LOW(0x8)
0010fb e0a0      	LDI  R26,HIGH(0x8)
0010fc 07fa      	CPC  R31,R26
0010fd f441      	BRNE _0x26A
0010fe 940e 1e13 	CALL SUBOPT_0x2A
001100 940e 2014 	CALL SUBOPT_0x74
001102 940e 1e31 	CALL SUBOPT_0x30
001104 e0a1      	LDI  R26,LOW(1)
001105 c2cb      	RJMP _0x377
                 _0x26A:
001106 30e9      	CPI  R30,LOW(0x9)
001107 e0a0      	LDI  R26,HIGH(0x9)
001108 07fa      	CPC  R31,R26
001109 f429      	BRNE _0x26B
00110a 940e 1e22 	CALL SUBOPT_0x2D
00110c e5e0      	LDI  R30,LOW(80)
00110d e0f0      	LDI  R31,HIGH(80)
00110e c2bd      	RJMP _0x378
                 _0x26B:
00110f 30ea      	CPI  R30,LOW(0xA)
001110 e0a0      	LDI  R26,HIGH(0xA)
001111 07fa      	CPC  R31,R26
001112 f441      	BRNE _0x26C
001113 940e 1e13 	CALL SUBOPT_0x2A
001115 940e 2014 	CALL SUBOPT_0x74
001117 940e 1e31 	CALL SUBOPT_0x30
001119 e0a1      	LDI  R26,LOW(1)
00111a c2b6      	RJMP _0x377
                 _0x26C:
00111b 30eb      	CPI  R30,LOW(0xB)
00111c e0a0      	LDI  R26,HIGH(0xB)
00111d 07fa      	CPC  R31,R26
00111e f441      	BRNE _0x26D
00111f 940e 1e13 	CALL SUBOPT_0x2A
001121 940e 2014 	CALL SUBOPT_0x74
001123 940e 1e31 	CALL SUBOPT_0x30
001125 e0a1      	LDI  R26,LOW(1)
001126 c2aa      	RJMP _0x377
                 _0x26D:
001127 30ec      	CPI  R30,LOW(0xC)
001128 e0a0      	LDI  R26,HIGH(0xC)
001129 07fa      	CPC  R31,R26
00112a f441      	BRNE _0x26E
00112b 940e 1e13 	CALL SUBOPT_0x2A
00112d 940e 2019 	CALL SUBOPT_0x75
00112f 940e 1e31 	CALL SUBOPT_0x30
001131 e0a1      	LDI  R26,LOW(1)
001132 c29e      	RJMP _0x377
                 _0x26E:
001133 30ed      	CPI  R30,LOW(0xD)
001134 e0a0      	LDI  R26,HIGH(0xD)
001135 07fa      	CPC  R31,R26
001136 f441      	BRNE _0x26F
001137 940e 2019 	CALL SUBOPT_0x75
001139 940e 1e13 	CALL SUBOPT_0x2A
00113b 940e 1e31 	CALL SUBOPT_0x30
00113d e0a1      	LDI  R26,LOW(1)
00113e c292      	RJMP _0x377
                 _0x26F:
00113f 30ee      	CPI  R30,LOW(0xE)
001140 e0a0      	LDI  R26,HIGH(0xE)
001141 07fa      	CPC  R31,R26
001142 f441      	BRNE _0x270
001143 940e 1e13 	CALL SUBOPT_0x2A
001145 940e 1e22 	CALL SUBOPT_0x2D
001147 940e 1e31 	CALL SUBOPT_0x30
001149 e0a1      	LDI  R26,LOW(1)
00114a c286      	RJMP _0x377
                 _0x270:
00114b 30ef      	CPI  R30,LOW(0xF)
00114c e0a0      	LDI  R26,HIGH(0xF)
00114d 07fa      	CPC  R31,R26
00114e f441      	BRNE _0x271
00114f 940e 1e22 	CALL SUBOPT_0x2D
001151 940e 1e13 	CALL SUBOPT_0x2A
001153 940e 1e31 	CALL SUBOPT_0x30
001155 e0a1      	LDI  R26,LOW(1)
001156 c27a      	RJMP _0x377
                 _0x271:
001157 31e0      	CPI  R30,LOW(0x10)
001158 e0a0      	LDI  R26,HIGH(0x10)
001159 07fa      	CPC  R31,R26
00115a f431      	BRNE _0x272
00115b 940e 201e 	CALL SUBOPT_0x76
00115d 940e 1e31 	CALL SUBOPT_0x30
00115f e0a1      	LDI  R26,LOW(1)
001160 c270      	RJMP _0x377
                 _0x272:
001161 31e1      	CPI  R30,LOW(0x11)
001162 e0a0      	LDI  R26,HIGH(0x11)
001163 07fa      	CPC  R31,R26
001164 f431      	BRNE _0x273
001165 940e 201e 	CALL SUBOPT_0x76
001167 940e 1e31 	CALL SUBOPT_0x30
001169 e0a1      	LDI  R26,LOW(1)
00116a c266      	RJMP _0x377
                 _0x273:
00116b 31e2      	CPI  R30,LOW(0x12)
00116c e0a0      	LDI  R26,HIGH(0x12)
00116d 07fa      	CPC  R31,R26
00116e f431      	BRNE _0x274
00116f 940e 201e 	CALL SUBOPT_0x76
001171 940e 1e31 	CALL SUBOPT_0x30
001173 e0a1      	LDI  R26,LOW(1)
001174 c25c      	RJMP _0x377
                 _0x274:
001175 31e3      	CPI  R30,LOW(0x13)
001176 e0a0      	LDI  R26,HIGH(0x13)
001177 07fa      	CPC  R31,R26
001178 f441      	BRNE _0x275
001179 940e 2014 	CALL SUBOPT_0x74
00117b 940e 1e22 	CALL SUBOPT_0x2D
00117d 940e 1e31 	CALL SUBOPT_0x30
00117f e0a1      	LDI  R26,LOW(1)
001180 c250      	RJMP _0x377
                 _0x275:
001181 31e4      	CPI  R30,LOW(0x14)
001182 e0a0      	LDI  R26,HIGH(0x14)
001183 07fa      	CPC  R31,R26
001184 f441      	BRNE _0x276
001185 940e 2014 	CALL SUBOPT_0x74
001187 940e 1e22 	CALL SUBOPT_0x2D
001189 940e 1e31 	CALL SUBOPT_0x30
00118b e0a1      	LDI  R26,LOW(1)
00118c c244      	RJMP _0x377
                 _0x276:
00118d 31e5      	CPI  R30,LOW(0x15)
00118e e0a0      	LDI  R26,HIGH(0x15)
00118f 07fa      	CPC  R31,R26
001190 f431      	BRNE _0x277
001191 940e 2023 	CALL SUBOPT_0x77
001193 940e 2028 	CALL SUBOPT_0x78
001195 e0a1      	LDI  R26,LOW(1)
001196 c23a      	RJMP _0x377
                 _0x277:
001197 31e6      	CPI  R30,LOW(0x16)
001198 e0a0      	LDI  R26,HIGH(0x16)
001199 07fa      	CPC  R31,R26
00119a f441      	BRNE _0x278
00119b 940e 1e13 	CALL SUBOPT_0x2A
00119d 940e 2014 	CALL SUBOPT_0x74
00119f 940e 1e31 	CALL SUBOPT_0x30
0011a1 e0a1      	LDI  R26,LOW(1)
0011a2 c22e      	RJMP _0x377
                 _0x278:
0011a3 31e7      	CPI  R30,LOW(0x17)
0011a4 e0a0      	LDI  R26,HIGH(0x17)
0011a5 07fa      	CPC  R31,R26
0011a6 f441      	BRNE _0x279
0011a7 940e 2014 	CALL SUBOPT_0x74
0011a9 940e 1e13 	CALL SUBOPT_0x2A
0011ab 940e 1e31 	CALL SUBOPT_0x30
0011ad e0a1      	LDI  R26,LOW(1)
0011ae c222      	RJMP _0x377
                 _0x279:
0011af 31e8      	CPI  R30,LOW(0x18)
0011b0 e0a0      	LDI  R26,HIGH(0x18)
0011b1 07fa      	CPC  R31,R26
0011b2 f441      	BRNE _0x27A
0011b3 940e 1e13 	CALL SUBOPT_0x2A
0011b5 940e 2014 	CALL SUBOPT_0x74
0011b7 940e 1e31 	CALL SUBOPT_0x30
0011b9 e0a1      	LDI  R26,LOW(1)
0011ba c216      	RJMP _0x377
                 _0x27A:
0011bb 31e9      	CPI  R30,LOW(0x19)
0011bc e0a0      	LDI  R26,HIGH(0x19)
0011bd 07fa      	CPC  R31,R26
0011be f441      	BRNE _0x27B
0011bf 940e 2014 	CALL SUBOPT_0x74
0011c1 940e 1e13 	CALL SUBOPT_0x2A
0011c3 940e 1e31 	CALL SUBOPT_0x30
0011c5 e0a1      	LDI  R26,LOW(1)
0011c6 c20a      	RJMP _0x377
                 _0x27B:
0011c7 31ea      	CPI  R30,LOW(0x1A)
0011c8 e0a0      	LDI  R26,HIGH(0x1A)
0011c9 07fa      	CPC  R31,R26
0011ca f441      	BRNE _0x27C
0011cb 940e 1e13 	CALL SUBOPT_0x2A
0011cd 940e 2014 	CALL SUBOPT_0x74
0011cf 940e 1e31 	CALL SUBOPT_0x30
0011d1 e0a1      	LDI  R26,LOW(1)
0011d2 c1fe      	RJMP _0x377
                 _0x27C:
0011d3 31eb      	CPI  R30,LOW(0x1B)
0011d4 e0a0      	LDI  R26,HIGH(0x1B)
0011d5 07fa      	CPC  R31,R26
0011d6 f441      	BRNE _0x27D
0011d7 940e 2014 	CALL SUBOPT_0x74
0011d9 940e 1e13 	CALL SUBOPT_0x2A
0011db 940e 1e31 	CALL SUBOPT_0x30
0011dd e0a1      	LDI  R26,LOW(1)
0011de c1f2      	RJMP _0x377
                 _0x27D:
0011df 31ec      	CPI  R30,LOW(0x1C)
0011e0 e0a0      	LDI  R26,HIGH(0x1C)
0011e1 07fa      	CPC  R31,R26
0011e2 f441      	BRNE _0x27E
0011e3 940e 1e13 	CALL SUBOPT_0x2A
0011e5 940e 2014 	CALL SUBOPT_0x74
0011e7 940e 1e31 	CALL SUBOPT_0x30
0011e9 e0a1      	LDI  R26,LOW(1)
0011ea c1e6      	RJMP _0x377
                 _0x27E:
0011eb 31ed      	CPI  R30,LOW(0x1D)
0011ec e0a0      	LDI  R26,HIGH(0x1D)
0011ed 07fa      	CPC  R31,R26
0011ee f441      	BRNE _0x27F
0011ef 940e 1e13 	CALL SUBOPT_0x2A
0011f1 940e 2014 	CALL SUBOPT_0x74
0011f3 940e 1e31 	CALL SUBOPT_0x30
0011f5 e0a1      	LDI  R26,LOW(1)
0011f6 c1da      	RJMP _0x377
                 _0x27F:
0011f7 31ee      	CPI  R30,LOW(0x1E)
0011f8 e0a0      	LDI  R26,HIGH(0x1E)
0011f9 07fa      	CPC  R31,R26
0011fa f441      	BRNE _0x280
0011fb 940e 2014 	CALL SUBOPT_0x74
0011fd 940e 1e13 	CALL SUBOPT_0x2A
0011ff 940e 1e31 	CALL SUBOPT_0x30
001201 e0a1      	LDI  R26,LOW(1)
001202 c1ce      	RJMP _0x377
                 _0x280:
001203 31ef      	CPI  R30,LOW(0x1F)
001204 e0a0      	LDI  R26,HIGH(0x1F)
001205 07fa      	CPC  R31,R26
001206 f441      	BRNE _0x281
001207 940e 2014 	CALL SUBOPT_0x74
001209 940e 1e13 	CALL SUBOPT_0x2A
00120b 940e 1e31 	CALL SUBOPT_0x30
00120d e0a1      	LDI  R26,LOW(1)
00120e c1c2      	RJMP _0x377
                 _0x281:
00120f 32e0      	CPI  R30,LOW(0x20)
001210 e0a0      	LDI  R26,HIGH(0x20)
001211 07fa      	CPC  R31,R26
001212 f431      	BRNE _0x282
001213 940e 1e13 	CALL SUBOPT_0x2A
001215 940e 2028 	CALL SUBOPT_0x78
001217 e0a1      	LDI  R26,LOW(1)
001218 c1b8      	RJMP _0x377
                 _0x282:
001219 32e1      	CPI  R30,LOW(0x21)
00121a e0a0      	LDI  R26,HIGH(0x21)
00121b 07fa      	CPC  R31,R26
00121c f431      	BRNE _0x283
00121d 940e 202d 	CALL SUBOPT_0x79
00121f 940e 1e31 	CALL SUBOPT_0x30
001221 e0a1      	LDI  R26,LOW(1)
001222 c1ae      	RJMP _0x377
                 _0x283:
001223 32e2      	CPI  R30,LOW(0x22)
001224 e0a0      	LDI  R26,HIGH(0x22)
001225 07fa      	CPC  R31,R26
001226 f441      	BRNE _0x284
001227 940e 2014 	CALL SUBOPT_0x74
001229 940e 1e13 	CALL SUBOPT_0x2A
00122b 940e 1e31 	CALL SUBOPT_0x30
00122d e0a1      	LDI  R26,LOW(1)
00122e c1a2      	RJMP _0x377
                 _0x284:
00122f 32e3      	CPI  R30,LOW(0x23)
001230 e0a0      	LDI  R26,HIGH(0x23)
001231 07fa      	CPC  R31,R26
001232 f431      	BRNE _0x285
001233 940e 202d 	CALL SUBOPT_0x79
001235 940e 1e31 	CALL SUBOPT_0x30
001237 e0a1      	LDI  R26,LOW(1)
001238 c198      	RJMP _0x377
                 _0x285:
001239 32e4      	CPI  R30,LOW(0x24)
00123a e0a0      	LDI  R26,HIGH(0x24)
00123b 07fa      	CPC  R31,R26
00123c f441      	BRNE _0x286
00123d 940e 1e13 	CALL SUBOPT_0x2A
00123f 940e 2014 	CALL SUBOPT_0x74
001241 940e 1e31 	CALL SUBOPT_0x30
001243 e0a1      	LDI  R26,LOW(1)
001244 c18c      	RJMP _0x377
                 _0x286:
001245 32e5      	CPI  R30,LOW(0x25)
001246 e0a0      	LDI  R26,HIGH(0x25)
001247 07fa      	CPC  R31,R26
001248 f441      	BRNE _0x287
001249 940e 2014 	CALL SUBOPT_0x74
00124b 940e 1e13 	CALL SUBOPT_0x2A
00124d 940e 1e31 	CALL SUBOPT_0x30
00124f e0a1      	LDI  R26,LOW(1)
001250 c180      	RJMP _0x377
                 _0x287:
001251 32e6      	CPI  R30,LOW(0x26)
001252 e0a0      	LDI  R26,HIGH(0x26)
001253 07fa      	CPC  R31,R26
001254 f441      	BRNE _0x288
001255 940e 1e13 	CALL SUBOPT_0x2A
001257 940e 2014 	CALL SUBOPT_0x74
001259 940e 1e31 	CALL SUBOPT_0x30
00125b e0a1      	LDI  R26,LOW(1)
00125c c174      	RJMP _0x377
                 _0x288:
00125d 32e7      	CPI  R30,LOW(0x27)
00125e e0a0      	LDI  R26,HIGH(0x27)
00125f 07fa      	CPC  R31,R26
001260 f441      	BRNE _0x289
001261 940e 2014 	CALL SUBOPT_0x74
001263 940e 1e13 	CALL SUBOPT_0x2A
001265 940e 1e31 	CALL SUBOPT_0x30
001267 e0a1      	LDI  R26,LOW(1)
001268 c168      	RJMP _0x377
                 _0x289:
001269 32e8      	CPI  R30,LOW(0x28)
00126a e0a0      	LDI  R26,HIGH(0x28)
00126b 07fa      	CPC  R31,R26
00126c f441      	BRNE _0x28A
00126d 940e 1e13 	CALL SUBOPT_0x2A
00126f 940e 2014 	CALL SUBOPT_0x74
001271 940e 1e31 	CALL SUBOPT_0x30
001273 e0a1      	LDI  R26,LOW(1)
001274 c15c      	RJMP _0x377
                 _0x28A:
001275 32e9      	CPI  R30,LOW(0x29)
001276 e0a0      	LDI  R26,HIGH(0x29)
001277 07fa      	CPC  R31,R26
001278 f441      	BRNE _0x28B
001279 940e 2014 	CALL SUBOPT_0x74
00127b 940e 1e13 	CALL SUBOPT_0x2A
00127d 940e 1e31 	CALL SUBOPT_0x30
00127f e0a1      	LDI  R26,LOW(1)
001280 c150      	RJMP _0x377
                 _0x28B:
001281 32ea      	CPI  R30,LOW(0x2A)
001282 e0a0      	LDI  R26,HIGH(0x2A)
001283 07fa      	CPC  R31,R26
001284 f441      	BRNE _0x28C
001285 940e 2014 	CALL SUBOPT_0x74
001287 940e 1e13 	CALL SUBOPT_0x2A
001289 940e 1e31 	CALL SUBOPT_0x30
00128b e0a1      	LDI  R26,LOW(1)
00128c c144      	RJMP _0x377
                 _0x28C:
00128d 32eb      	CPI  R30,LOW(0x2B)
00128e e0a0      	LDI  R26,HIGH(0x2B)
00128f 07fa      	CPC  R31,R26
001290 f441      	BRNE _0x28D
001291 940e 1e13 	CALL SUBOPT_0x2A
001293 940e 2014 	CALL SUBOPT_0x74
001295 940e 1e31 	CALL SUBOPT_0x30
001297 e0a1      	LDI  R26,LOW(1)
001298 c138      	RJMP _0x377
                 _0x28D:
001299 32ec      	CPI  R30,LOW(0x2C)
00129a e0a0      	LDI  R26,HIGH(0x2C)
00129b 07fa      	CPC  R31,R26
00129c f441      	BRNE _0x28E
00129d 940e 2032 	CALL SUBOPT_0x7A
00129f 940e 1e13 	CALL SUBOPT_0x2A
0012a1 940e 1e31 	CALL SUBOPT_0x30
0012a3 e0a1      	LDI  R26,LOW(1)
0012a4 c12c      	RJMP _0x377
                 _0x28E:
0012a5 32ed      	CPI  R30,LOW(0x2D)
0012a6 e0a0      	LDI  R26,HIGH(0x2D)
0012a7 07fa      	CPC  R31,R26
0012a8 f441      	BRNE _0x28F
0012a9 940e 1e22 	CALL SUBOPT_0x2D
0012ab 940e 2023 	CALL SUBOPT_0x77
0012ad 940e 1e31 	CALL SUBOPT_0x30
0012af e0a1      	LDI  R26,LOW(1)
0012b0 c120      	RJMP _0x377
                 _0x28F:
0012b1 32ee      	CPI  R30,LOW(0x2E)
0012b2 e0a0      	LDI  R26,HIGH(0x2E)
0012b3 07fa      	CPC  R31,R26
0012b4 f441      	BRNE _0x290
0012b5 940e 1e22 	CALL SUBOPT_0x2D
0012b7 940e 2023 	CALL SUBOPT_0x77
0012b9 940e 1e31 	CALL SUBOPT_0x30
0012bb e0a1      	LDI  R26,LOW(1)
0012bc c114      	RJMP _0x377
                 _0x290:
0012bd 32ef      	CPI  R30,LOW(0x2F)
0012be e0a0      	LDI  R26,HIGH(0x2F)
0012bf 07fa      	CPC  R31,R26
0012c0 f441      	BRNE _0x291
0012c1 940e 2023 	CALL SUBOPT_0x77
0012c3 940e 1e22 	CALL SUBOPT_0x2D
0012c5 940e 1e31 	CALL SUBOPT_0x30
0012c7 e0a1      	LDI  R26,LOW(1)
0012c8 c108      	RJMP _0x377
                 _0x291:
0012c9 33e0      	CPI  R30,LOW(0x30)
0012ca e0a0      	LDI  R26,HIGH(0x30)
0012cb 07fa      	CPC  R31,R26
0012cc f441      	BRNE _0x292
0012cd 940e 2023 	CALL SUBOPT_0x77
0012cf 940e 1e22 	CALL SUBOPT_0x2D
0012d1 940e 1e31 	CALL SUBOPT_0x30
0012d3 e0a1      	LDI  R26,LOW(1)
0012d4 c0fc      	RJMP _0x377
                 _0x292:
0012d5 33e1      	CPI  R30,LOW(0x31)
0012d6 e0a0      	LDI  R26,HIGH(0x31)
0012d7 07fa      	CPC  R31,R26
0012d8 f431      	BRNE _0x293
0012d9 940e 2037 	CALL SUBOPT_0x7B
0012db 940e 1e31 	CALL SUBOPT_0x30
0012dd e0a1      	LDI  R26,LOW(1)
0012de c0f2      	RJMP _0x377
                 _0x293:
0012df 33e2      	CPI  R30,LOW(0x32)
0012e0 e0a0      	LDI  R26,HIGH(0x32)
0012e1 07fa      	CPC  R31,R26
0012e2 f441      	BRNE _0x294
0012e3 940e 1e22 	CALL SUBOPT_0x2D
0012e5 940e 2014 	CALL SUBOPT_0x74
0012e7 940e 1e31 	CALL SUBOPT_0x30
0012e9 e0a1      	LDI  R26,LOW(1)
0012ea c0e6      	RJMP _0x377
                 _0x294:
0012eb 33e3      	CPI  R30,LOW(0x33)
0012ec e0a0      	LDI  R26,HIGH(0x33)
0012ed 07fa      	CPC  R31,R26
0012ee f441      	BRNE _0x295
0012ef 940e 1e13 	CALL SUBOPT_0x2A
0012f1 940e 2023 	CALL SUBOPT_0x77
0012f3 940e 1e31 	CALL SUBOPT_0x30
0012f5 e0a1      	LDI  R26,LOW(1)
0012f6 c0da      	RJMP _0x377
                 _0x295:
0012f7 33e4      	CPI  R30,LOW(0x34)
0012f8 e0a0      	LDI  R26,HIGH(0x34)
0012f9 07fa      	CPC  R31,R26
0012fa f441      	BRNE _0x296
0012fb 940e 1e13 	CALL SUBOPT_0x2A
0012fd 940e 2014 	CALL SUBOPT_0x74
0012ff 940e 1e31 	CALL SUBOPT_0x30
001301 e0a1      	LDI  R26,LOW(1)
001302 c0ce      	RJMP _0x377
                 _0x296:
001303 33e5      	CPI  R30,LOW(0x35)
001304 e0a0      	LDI  R26,HIGH(0x35)
001305 07fa      	CPC  R31,R26
001306 f431      	BRNE _0x297
001307 940e 2037 	CALL SUBOPT_0x7B
001309 940e 1e31 	CALL SUBOPT_0x30
00130b e0a1      	LDI  R26,LOW(1)
00130c c0c4      	RJMP _0x377
                 _0x297:
00130d 33e6      	CPI  R30,LOW(0x36)
00130e e0a0      	LDI  R26,HIGH(0x36)
00130f 07fa      	CPC  R31,R26
001310 f441      	BRNE _0x298
001311 940e 1e22 	CALL SUBOPT_0x2D
001313 940e 2032 	CALL SUBOPT_0x7A
001315 940e 1e31 	CALL SUBOPT_0x30
001317 e0a1      	LDI  R26,LOW(1)
001318 c0b8      	RJMP _0x377
                 _0x298:
001319 33e7      	CPI  R30,LOW(0x37)
00131a e0a0      	LDI  R26,HIGH(0x37)
00131b 07fa      	CPC  R31,R26
00131c f441      	BRNE _0x299
00131d 940e 1e22 	CALL SUBOPT_0x2D
00131f 940e 1e13 	CALL SUBOPT_0x2A
001321 940e 1e31 	CALL SUBOPT_0x30
001323 e0a1      	LDI  R26,LOW(1)
001324 c0ac      	RJMP _0x377
                 _0x299:
001325 33e8      	CPI  R30,LOW(0x38)
001326 e0a0      	LDI  R26,HIGH(0x38)
001327 07fa      	CPC  R31,R26
001328 f441      	BRNE _0x29A
001329 940e 1e22 	CALL SUBOPT_0x2D
00132b 940e 1e13 	CALL SUBOPT_0x2A
00132d 940e 1e31 	CALL SUBOPT_0x30
00132f e0a1      	LDI  R26,LOW(1)
001330 c0a0      	RJMP _0x377
                 _0x29A:
001331 33e9      	CPI  R30,LOW(0x39)
001332 e0a0      	LDI  R26,HIGH(0x39)
001333 07fa      	CPC  R31,R26
001334 f441      	BRNE _0x29B
001335 940e 1e22 	CALL SUBOPT_0x2D
001337 940e 1e13 	CALL SUBOPT_0x2A
001339 940e 1e31 	CALL SUBOPT_0x30
00133b e0a1      	LDI  R26,LOW(1)
00133c c094      	RJMP _0x377
                 _0x29B:
00133d 33ea      	CPI  R30,LOW(0x3A)
00133e e0a0      	LDI  R26,HIGH(0x3A)
00133f 07fa      	CPC  R31,R26
001340 f441      	BRNE _0x29C
001341 940e 1e13 	CALL SUBOPT_0x2A
001343 940e 1e22 	CALL SUBOPT_0x2D
001345 940e 1e31 	CALL SUBOPT_0x30
001347 e0a1      	LDI  R26,LOW(1)
001348 c088      	RJMP _0x377
                 _0x29C:
001349 33eb      	CPI  R30,LOW(0x3B)
00134a e0a0      	LDI  R26,HIGH(0x3B)
00134b 07fa      	CPC  R31,R26
00134c f431      	BRNE _0x29D
00134d 940e 1e13 	CALL SUBOPT_0x2A
00134f 940e 2028 	CALL SUBOPT_0x78
001351 e0a1      	LDI  R26,LOW(1)
001352 c07e      	RJMP _0x377
                 _0x29D:
001353 33ec      	CPI  R30,LOW(0x3C)
001354 e0a0      	LDI  R26,HIGH(0x3C)
001355 07fa      	CPC  R31,R26
001356 f441      	BRNE _0x29E
001357 940e 1e22 	CALL SUBOPT_0x2D
001359 940e 2014 	CALL SUBOPT_0x74
00135b 940e 1e31 	CALL SUBOPT_0x30
00135d e0a1      	LDI  R26,LOW(1)
00135e c072      	RJMP _0x377
                 _0x29E:
00135f 34e0      	CPI  R30,LOW(0x40)
001360 e0a0      	LDI  R26,HIGH(0x40)
001361 07fa      	CPC  R31,R26
001362 f441      	BRNE _0x29F
001363 940e 2014 	CALL SUBOPT_0x74
001365 940e 1e13 	CALL SUBOPT_0x2A
001367 940e 1e31 	CALL SUBOPT_0x30
001369 e0a1      	LDI  R26,LOW(1)
00136a c066      	RJMP _0x377
                 _0x29F:
00136b 34e1      	CPI  R30,LOW(0x41)
00136c e0a0      	LDI  R26,HIGH(0x41)
00136d 07fa      	CPC  R31,R26
00136e f479      	BRNE _0x2A0
00136f 91e0 0796 	LDS  R30,_val_L_linesearch
001371 91f0 0797 	LDS  R31,_val_L_linesearch+1
001373 93fa      	ST   -Y,R31
001374 93ea      	ST   -Y,R30
001375 ece8      	LDI  R30,LOW(200)
001376 e0f0      	LDI  R31,HIGH(200)
001377 940e 203c 	CALL SUBOPT_0x7C
                +
001379 e0ae     +LDI R26 , LOW ( _0x2A1 + ( 0 ) )
00137a e0b6     +LDI R27 , HIGH ( _0x2A1 + ( 0 ) )
                 	__POINTW2MN _0x2A1,0
00137b 940e 1c52 	CALL _lcd_puts
00137d c056      	RJMP _0x262
                 _0x2A0:
00137e 34e2      	CPI  R30,LOW(0x42)
00137f e0a0      	LDI  R26,HIGH(0x42)
001380 07fa      	CPC  R31,R26
001381 f459      	BRNE _0x2A2
001382 940e 1e36 	CALL SUBOPT_0x31
001384 940e 2032 	CALL SUBOPT_0x7A
001386 940e 1e18 	CALL SUBOPT_0x2B
                +
001388 e1a6     +LDI R26 , LOW ( _0x2A1 + ( 8 ) )
001389 e0b6     +LDI R27 , HIGH ( _0x2A1 + ( 8 ) )
                 	__POINTW2MN _0x2A1,8
00138a 940e 1c52 	CALL _lcd_puts
00138c c047      	RJMP _0x262
                 _0x2A2:
00138d 34e3      	CPI  R30,LOW(0x43)
00138e e0a0      	LDI  R26,HIGH(0x43)
00138f 07fa      	CPC  R31,R26
001390 f419      	BRNE _0x2A3
001391 e5e0      	LDI  R30,LOW(80)
001392 e0f0      	LDI  R31,HIGH(80)
001393 c034      	RJMP _0x379
                 _0x2A3:
001394 34e4      	CPI  R30,LOW(0x44)
001395 e0a0      	LDI  R26,HIGH(0x44)
001396 07fa      	CPC  R31,R26
001397 f419      	BRNE _0x2A4
001398 940e 203f 	CALL SUBOPT_0x7D
00139a c031      	RJMP _0x378
                 _0x2A4:
00139b 34e5      	CPI  R30,LOW(0x45)
00139c e0a0      	LDI  R26,HIGH(0x45)
00139d 07fa      	CPC  R31,R26
00139e f419      	BRNE _0x2A5
00139f 940e 203f 	CALL SUBOPT_0x7D
0013a1 c02a      	RJMP _0x378
                 _0x2A5:
0013a2 34e6      	CPI  R30,LOW(0x46)
0013a3 e0a0      	LDI  R26,HIGH(0x46)
0013a4 07fa      	CPC  R31,R26
0013a5 f419      	BRNE _0x2A6
0013a6 e4e6      	LDI  R30,LOW(70)
0013a7 e0f0      	LDI  R31,HIGH(70)
0013a8 c01f      	RJMP _0x379
                 _0x2A6:
0013a9 34e7      	CPI  R30,LOW(0x47)
0013aa e0a0      	LDI  R26,HIGH(0x47)
0013ab 07fa      	CPC  R31,R26
0013ac f419      	BRNE _0x2A7
0013ad e4e6      	LDI  R30,LOW(70)
0013ae e0f0      	LDI  R31,HIGH(70)
0013af c018      	RJMP _0x379
                 _0x2A7:
0013b0 34e8      	CPI  R30,LOW(0x48)
0013b1 e0a0      	LDI  R26,HIGH(0x48)
0013b2 07fa      	CPC  R31,R26
0013b3 f439      	BRNE _0x2A8
0013b4 e4eb      	LDI  R30,LOW(75)
0013b5 e0f0      	LDI  R31,HIGH(75)
0013b6 93fa      	ST   -Y,R31
0013b7 93ea      	ST   -Y,R30
0013b8 e4e1      	LDI  R30,LOW(65)
0013b9 e0f0      	LDI  R31,HIGH(65)
0013ba c011      	RJMP _0x378
                 _0x2A8:
0013bb 34e9      	CPI  R30,LOW(0x49)
0013bc e0a0      	LDI  R26,HIGH(0x49)
0013bd 07fa      	CPC  R31,R26
0013be f419      	BRNE _0x2A9
0013bf 940e 203f 	CALL SUBOPT_0x7D
0013c1 c00a      	RJMP _0x378
                 _0x2A9:
0013c2 34ea      	CPI  R30,LOW(0x4A)
0013c3 e0a0      	LDI  R26,HIGH(0x4A)
0013c4 07fa      	CPC  R31,R26
0013c5 f471      	BRNE _0x262
0013c6 e3ec      	LDI  R30,LOW(60)
0013c7 e0f0      	LDI  R31,HIGH(60)
                 _0x379:
0013c8 93fa      	ST   -Y,R31
0013c9 93ea      	ST   -Y,R30
0013ca e3ec      	LDI  R30,LOW(60)
0013cb e0f0      	LDI  R31,HIGH(60)
                 _0x378:
0013cc 93fa      	ST   -Y,R31
0013cd 93ea      	ST   -Y,R30
0013ce 940e 1e36 	CALL SUBOPT_0x31
0013d0 e0a0      	LDI  R26,LOW(0)
                 _0x377:
0013d1 e0b0      	LDI  R27,0
0013d2 940e 03c1 	CALL _movement
                 _0x262:
0013d4 9508      	RET
                 ; .FEND
                 
                 	.DSEG
                 _0x2A1:
00060e           	.BYTE 0xC
                 
                 	.CSEG
                 _detectorcase:
                 ; .FSTART _detectorcase
0013d5 91e0 0798 	LDS  R30,_detector_value
0013d7 91f0 0799 	LDS  R31,_detector_value+1
0013d9 9730      	SBIW R30,0
0013da f441      	BRNE _0x2AE
0013db 940e 1e13 	CALL SUBOPT_0x2A
0013dd 940e 1e13 	CALL SUBOPT_0x2A
0013df 940e 1e36 	CALL SUBOPT_0x31
0013e1 e0a0      	LDI  R26,LOW(0)
0013e2 c1e8      	RJMP _0x37A
                 _0x2AE:
0013e3 30e1      	CPI  R30,LOW(0x1)
0013e4 e0a0      	LDI  R26,HIGH(0x1)
0013e5 07fa      	CPC  R31,R26
0013e6 f429      	BRNE _0x2AF
0013e7 940e 1e13 	CALL SUBOPT_0x2A
0013e9 e4e6      	LDI  R30,LOW(70)
0013ea e0f0      	LDI  R31,HIGH(70)
0013eb c1da      	RJMP _0x37B
                 _0x2AF:
0013ec 30e2      	CPI  R30,LOW(0x2)
0013ed e0a0      	LDI  R26,HIGH(0x2)
0013ee 07fa      	CPC  R31,R26
0013ef f409      	BRNE _0x2B0
0013f0 c1cf      	RJMP _0x37C
                 _0x2B0:
0013f1 30e3      	CPI  R30,LOW(0x3)
0013f2 e0a0      	LDI  R26,HIGH(0x3)
0013f3 07fa      	CPC  R31,R26
0013f4 f441      	BRNE _0x2B1
0013f5 940e 2014 	CALL SUBOPT_0x74
0013f7 940e 1e13 	CALL SUBOPT_0x2A
0013f9 940e 1e36 	CALL SUBOPT_0x31
0013fb e0a0      	LDI  R26,LOW(0)
0013fc c1ce      	RJMP _0x37A
                 _0x2B1:
0013fd 30e4      	CPI  R30,LOW(0x4)
0013fe e0a0      	LDI  R26,HIGH(0x4)
0013ff 07fa      	CPC  R31,R26
001400 f441      	BRNE _0x2B2
001401 940e 1e13 	CALL SUBOPT_0x2A
001403 940e 2014 	CALL SUBOPT_0x74
001405 940e 1e36 	CALL SUBOPT_0x31
001407 e0a0      	LDI  R26,LOW(0)
001408 c1c2      	RJMP _0x37A
                 _0x2B2:
001409 30e5      	CPI  R30,LOW(0x5)
00140a e0a0      	LDI  R26,HIGH(0x5)
00140b 07fa      	CPC  R31,R26
00140c f429      	BRNE _0x2B3
00140d 940e 1e13 	CALL SUBOPT_0x2A
00140f e4e6      	LDI  R30,LOW(70)
001410 e0f0      	LDI  R31,HIGH(70)
001411 c1b4      	RJMP _0x37B
                 _0x2B3:
001412 30e6      	CPI  R30,LOW(0x6)
001413 e0a0      	LDI  R26,HIGH(0x6)
001414 07fa      	CPC  R31,R26
001415 f409      	BRNE _0x2B4
001416 c1a9      	RJMP _0x37C
                 _0x2B4:
001417 30e7      	CPI  R30,LOW(0x7)
001418 e0a0      	LDI  R26,HIGH(0x7)
001419 07fa      	CPC  R31,R26
00141a f419      	BRNE _0x2B5
00141b e3e2      	LDI  R30,LOW(50)
00141c e0f0      	LDI  R31,HIGH(50)
00141d c1a4      	RJMP _0x37D
                 _0x2B5:
00141e 30e8      	CPI  R30,LOW(0x8)
00141f e0a0      	LDI  R26,HIGH(0x8)
001420 07fa      	CPC  R31,R26
001421 f429      	BRNE _0x2B6
001422 940e 1e13 	CALL SUBOPT_0x2A
001424 e4e6      	LDI  R30,LOW(70)
001425 e0f0      	LDI  R31,HIGH(70)
001426 c19f      	RJMP _0x37B
                 _0x2B6:
001427 30e9      	CPI  R30,LOW(0x9)
001428 e0a0      	LDI  R26,HIGH(0x9)
001429 07fa      	CPC  R31,R26
00142a f441      	BRNE _0x2B7
00142b 940e 1e22 	CALL SUBOPT_0x2D
00142d 940e 1e22 	CALL SUBOPT_0x2D
00142f 940e 1e36 	CALL SUBOPT_0x31
001431 e0a0      	LDI  R26,LOW(0)
001432 c198      	RJMP _0x37A
                 _0x2B7:
001433 30ea      	CPI  R30,LOW(0xA)
001434 e0a0      	LDI  R26,HIGH(0xA)
001435 07fa      	CPC  R31,R26
001436 f429      	BRNE _0x2B8
001437 940e 1e13 	CALL SUBOPT_0x2A
001439 e4e6      	LDI  R30,LOW(70)
00143a e0f0      	LDI  R31,HIGH(70)
00143b c18a      	RJMP _0x37B
                 _0x2B8:
00143c 30eb      	CPI  R30,LOW(0xB)
00143d e0a0      	LDI  R26,HIGH(0xB)
00143e 07fa      	CPC  R31,R26
00143f f429      	BRNE _0x2B9
001440 940e 1e13 	CALL SUBOPT_0x2A
001442 e4e6      	LDI  R30,LOW(70)
001443 e0f0      	LDI  R31,HIGH(70)
001444 c181      	RJMP _0x37B
                 _0x2B9:
001445 30ec      	CPI  R30,LOW(0xC)
001446 e0a0      	LDI  R26,HIGH(0xC)
001447 07fa      	CPC  R31,R26
001448 f429      	BRNE _0x2BA
001449 940e 1e13 	CALL SUBOPT_0x2A
00144b e3e2      	LDI  R30,LOW(50)
00144c e0f0      	LDI  R31,HIGH(50)
00144d c178      	RJMP _0x37B
                 _0x2BA:
00144e 30ed      	CPI  R30,LOW(0xD)
00144f e0a0      	LDI  R26,HIGH(0xD)
001450 07fa      	CPC  R31,R26
001451 f419      	BRNE _0x2BB
001452 e3e2      	LDI  R30,LOW(50)
001453 e0f0      	LDI  R31,HIGH(50)
001454 c16d      	RJMP _0x37D
                 _0x2BB:
001455 30ee      	CPI  R30,LOW(0xE)
001456 e0a0      	LDI  R26,HIGH(0xE)
001457 07fa      	CPC  R31,R26
001458 f429      	BRNE _0x2BC
001459 940e 1e13 	CALL SUBOPT_0x2A
00145b e5e0      	LDI  R30,LOW(80)
00145c e0f0      	LDI  R31,HIGH(80)
00145d c168      	RJMP _0x37B
                 _0x2BC:
00145e 30ef      	CPI  R30,LOW(0xF)
00145f e0a0      	LDI  R26,HIGH(0xF)
001460 07fa      	CPC  R31,R26
001461 f419      	BRNE _0x2BD
001462 e5e0      	LDI  R30,LOW(80)
001463 e0f0      	LDI  R31,HIGH(80)
001464 c15d      	RJMP _0x37D
                 _0x2BD:
001465 31e0      	CPI  R30,LOW(0x10)
001466 e0a0      	LDI  R26,HIGH(0x10)
001467 07fa      	CPC  R31,R26
001468 f419      	BRNE _0x2BE
001469 e5ea      	LDI  R30,LOW(90)
00146a e0f0      	LDI  R31,HIGH(90)
00146b c156      	RJMP _0x37D
                 _0x2BE:
00146c 31e1      	CPI  R30,LOW(0x11)
00146d e0a0      	LDI  R26,HIGH(0x11)
00146e 07fa      	CPC  R31,R26
00146f f419      	BRNE _0x2BF
001470 e5ea      	LDI  R30,LOW(90)
001471 e0f0      	LDI  R31,HIGH(90)
001472 c14f      	RJMP _0x37D
                 _0x2BF:
001473 31e2      	CPI  R30,LOW(0x12)
001474 e0a0      	LDI  R26,HIGH(0x12)
001475 07fa      	CPC  R31,R26
001476 f419      	BRNE _0x2C0
001477 e5ea      	LDI  R30,LOW(90)
001478 e0f0      	LDI  R31,HIGH(90)
001479 c148      	RJMP _0x37D
                 _0x2C0:
00147a 31e3      	CPI  R30,LOW(0x13)
00147b e0a0      	LDI  R26,HIGH(0x13)
00147c 07fa      	CPC  R31,R26
00147d f429      	BRNE _0x2C1
00147e 940e 2014 	CALL SUBOPT_0x74
001480 e5e0      	LDI  R30,LOW(80)
001481 e0f0      	LDI  R31,HIGH(80)
001482 c143      	RJMP _0x37B
                 _0x2C1:
001483 31e4      	CPI  R30,LOW(0x14)
001484 e0a0      	LDI  R26,HIGH(0x14)
001485 07fa      	CPC  R31,R26
001486 f429      	BRNE _0x2C2
001487 940e 2014 	CALL SUBOPT_0x74
001489 e5e0      	LDI  R30,LOW(80)
00148a e0f0      	LDI  R31,HIGH(80)
00148b c13a      	RJMP _0x37B
                 _0x2C2:
00148c 31e5      	CPI  R30,LOW(0x15)
00148d e0a0      	LDI  R26,HIGH(0x15)
00148e 07fa      	CPC  R31,R26
00148f f429      	BRNE _0x2C3
001490 940e 2023 	CALL SUBOPT_0x77
001492 e5e5      	LDI  R30,LOW(85)
001493 e0f0      	LDI  R31,HIGH(85)
001494 c131      	RJMP _0x37B
                 _0x2C3:
001495 31e6      	CPI  R30,LOW(0x16)
001496 e0a0      	LDI  R26,HIGH(0x16)
001497 07fa      	CPC  R31,R26
001498 f429      	BRNE _0x2C4
001499 940e 1e13 	CALL SUBOPT_0x2A
00149b e4e6      	LDI  R30,LOW(70)
00149c e0f0      	LDI  R31,HIGH(70)
00149d c128      	RJMP _0x37B
                 _0x2C4:
00149e 31e7      	CPI  R30,LOW(0x17)
00149f e0a0      	LDI  R26,HIGH(0x17)
0014a0 07fa      	CPC  R31,R26
0014a1 f409      	BRNE _0x2C5
0014a2 c11d      	RJMP _0x37C
                 _0x2C5:
0014a3 31e8      	CPI  R30,LOW(0x18)
0014a4 e0a0      	LDI  R26,HIGH(0x18)
0014a5 07fa      	CPC  R31,R26
0014a6 f429      	BRNE _0x2C6
0014a7 940e 1e13 	CALL SUBOPT_0x2A
0014a9 e4e6      	LDI  R30,LOW(70)
0014aa e0f0      	LDI  R31,HIGH(70)
0014ab c11a      	RJMP _0x37B
                 _0x2C6:
0014ac 31e9      	CPI  R30,LOW(0x19)
0014ad e0a0      	LDI  R26,HIGH(0x19)
0014ae 07fa      	CPC  R31,R26
0014af f409      	BRNE _0x2C7
0014b0 c10f      	RJMP _0x37C
                 _0x2C7:
0014b1 31ea      	CPI  R30,LOW(0x1A)
0014b2 e0a0      	LDI  R26,HIGH(0x1A)
0014b3 07fa      	CPC  R31,R26
0014b4 f429      	BRNE _0x2C8
0014b5 940e 1e13 	CALL SUBOPT_0x2A
0014b7 e4e6      	LDI  R30,LOW(70)
0014b8 e0f0      	LDI  R31,HIGH(70)
0014b9 c10c      	RJMP _0x37B
                 _0x2C8:
0014ba 31eb      	CPI  R30,LOW(0x1B)
0014bb e0a0      	LDI  R26,HIGH(0x1B)
0014bc 07fa      	CPC  R31,R26
0014bd f409      	BRNE _0x2C9
0014be c101      	RJMP _0x37C
                 _0x2C9:
0014bf 31ec      	CPI  R30,LOW(0x1C)
0014c0 e0a0      	LDI  R26,HIGH(0x1C)
0014c1 07fa      	CPC  R31,R26
0014c2 f429      	BRNE _0x2CA
0014c3 940e 1e13 	CALL SUBOPT_0x2A
0014c5 e4e6      	LDI  R30,LOW(70)
0014c6 e0f0      	LDI  R31,HIGH(70)
0014c7 c0fe      	RJMP _0x37B
                 _0x2CA:
0014c8 31ed      	CPI  R30,LOW(0x1D)
0014c9 e0a0      	LDI  R26,HIGH(0x1D)
0014ca 07fa      	CPC  R31,R26
0014cb f429      	BRNE _0x2CB
0014cc 940e 1e13 	CALL SUBOPT_0x2A
0014ce e4e6      	LDI  R30,LOW(70)
0014cf e0f0      	LDI  R31,HIGH(70)
0014d0 c0f5      	RJMP _0x37B
                 _0x2CB:
0014d1 31ee      	CPI  R30,LOW(0x1E)
0014d2 e0a0      	LDI  R26,HIGH(0x1E)
0014d3 07fa      	CPC  R31,R26
0014d4 f409      	BRNE _0x2CC
0014d5 c0ea      	RJMP _0x37C
                 _0x2CC:
0014d6 31ef      	CPI  R30,LOW(0x1F)
0014d7 e0a0      	LDI  R26,HIGH(0x1F)
0014d8 07fa      	CPC  R31,R26
0014d9 f409      	BRNE _0x2CD
0014da c0e5      	RJMP _0x37C
                 _0x2CD:
0014db 32e0      	CPI  R30,LOW(0x20)
0014dc e0a0      	LDI  R26,HIGH(0x20)
0014dd 07fa      	CPC  R31,R26
0014de f429      	BRNE _0x2CE
0014df 940e 1e13 	CALL SUBOPT_0x2A
0014e1 e5e5      	LDI  R30,LOW(85)
0014e2 e0f0      	LDI  R31,HIGH(85)
0014e3 c0e2      	RJMP _0x37B
                 _0x2CE:
0014e4 32e1      	CPI  R30,LOW(0x21)
0014e5 e0a0      	LDI  R26,HIGH(0x21)
0014e6 07fa      	CPC  R31,R26
0014e7 f419      	BRNE _0x2CF
0014e8 e5e5      	LDI  R30,LOW(85)
0014e9 e0f0      	LDI  R31,HIGH(85)
0014ea c0d7      	RJMP _0x37D
                 _0x2CF:
0014eb 32e2      	CPI  R30,LOW(0x22)
0014ec e0a0      	LDI  R26,HIGH(0x22)
0014ed 07fa      	CPC  R31,R26
0014ee f409      	BRNE _0x2D0
0014ef c0d0      	RJMP _0x37C
                 _0x2D0:
0014f0 32e3      	CPI  R30,LOW(0x23)
0014f1 e0a0      	LDI  R26,HIGH(0x23)
0014f2 07fa      	CPC  R31,R26
0014f3 f419      	BRNE _0x2D1
0014f4 e5e5      	LDI  R30,LOW(85)
0014f5 e0f0      	LDI  R31,HIGH(85)
0014f6 c0cb      	RJMP _0x37D
                 _0x2D1:
0014f7 32e4      	CPI  R30,LOW(0x24)
0014f8 e0a0      	LDI  R26,HIGH(0x24)
0014f9 07fa      	CPC  R31,R26
0014fa f429      	BRNE _0x2D2
0014fb 940e 1e13 	CALL SUBOPT_0x2A
0014fd e4e6      	LDI  R30,LOW(70)
0014fe e0f0      	LDI  R31,HIGH(70)
0014ff c0c6      	RJMP _0x37B
                 _0x2D2:
001500 32e5      	CPI  R30,LOW(0x25)
001501 e0a0      	LDI  R26,HIGH(0x25)
001502 07fa      	CPC  R31,R26
001503 f409      	BRNE _0x2D3
001504 c0bb      	RJMP _0x37C
                 _0x2D3:
001505 32e6      	CPI  R30,LOW(0x26)
001506 e0a0      	LDI  R26,HIGH(0x26)
001507 07fa      	CPC  R31,R26
001508 f429      	BRNE _0x2D4
001509 940e 1e13 	CALL SUBOPT_0x2A
00150b e4e6      	LDI  R30,LOW(70)
00150c e0f0      	LDI  R31,HIGH(70)
00150d c0b8      	RJMP _0x37B
                 _0x2D4:
00150e 32e7      	CPI  R30,LOW(0x27)
00150f e0a0      	LDI  R26,HIGH(0x27)
001510 07fa      	CPC  R31,R26
001511 f409      	BRNE _0x2D5
001512 c0ad      	RJMP _0x37C
                 _0x2D5:
001513 32e8      	CPI  R30,LOW(0x28)
001514 e0a0      	LDI  R26,HIGH(0x28)
001515 07fa      	CPC  R31,R26
001516 f429      	BRNE _0x2D6
001517 940e 1e13 	CALL SUBOPT_0x2A
001519 e4e6      	LDI  R30,LOW(70)
00151a e0f0      	LDI  R31,HIGH(70)
00151b c0aa      	RJMP _0x37B
                 _0x2D6:
00151c 32e9      	CPI  R30,LOW(0x29)
00151d e0a0      	LDI  R26,HIGH(0x29)
00151e 07fa      	CPC  R31,R26
00151f f409      	BRNE _0x2D7
001520 c09f      	RJMP _0x37C
                 _0x2D7:
001521 32ea      	CPI  R30,LOW(0x2A)
001522 e0a0      	LDI  R26,HIGH(0x2A)
001523 07fa      	CPC  R31,R26
001524 f409      	BRNE _0x2D8
001525 c09a      	RJMP _0x37C
                 _0x2D8:
001526 32eb      	CPI  R30,LOW(0x2B)
001527 e0a0      	LDI  R26,HIGH(0x2B)
001528 07fa      	CPC  R31,R26
001529 f429      	BRNE _0x2D9
00152a 940e 1e13 	CALL SUBOPT_0x2A
00152c e4e6      	LDI  R30,LOW(70)
00152d e0f0      	LDI  R31,HIGH(70)
00152e c097      	RJMP _0x37B
                 _0x2D9:
00152f 32ec      	CPI  R30,LOW(0x2C)
001530 e0a0      	LDI  R26,HIGH(0x2C)
001531 07fa      	CPC  R31,R26
001532 f419      	BRNE _0x2DA
001533 e4e1      	LDI  R30,LOW(65)
001534 e0f0      	LDI  R31,HIGH(65)
001535 c08c      	RJMP _0x37D
                 _0x2DA:
001536 32ed      	CPI  R30,LOW(0x2D)
001537 e0a0      	LDI  R26,HIGH(0x2D)
001538 07fa      	CPC  R31,R26
001539 f429      	BRNE _0x2DB
00153a 940e 1e22 	CALL SUBOPT_0x2D
00153c e5ea      	LDI  R30,LOW(90)
00153d e0f0      	LDI  R31,HIGH(90)
00153e c087      	RJMP _0x37B
                 _0x2DB:
00153f 32ee      	CPI  R30,LOW(0x2E)
001540 e0a0      	LDI  R26,HIGH(0x2E)
001541 07fa      	CPC  R31,R26
001542 f429      	BRNE _0x2DC
001543 940e 1e22 	CALL SUBOPT_0x2D
001545 e5ea      	LDI  R30,LOW(90)
001546 e0f0      	LDI  R31,HIGH(90)
001547 c07e      	RJMP _0x37B
                 _0x2DC:
001548 32ef      	CPI  R30,LOW(0x2F)
001549 e0a0      	LDI  R26,HIGH(0x2F)
00154a 07fa      	CPC  R31,R26
00154b f429      	BRNE _0x2DD
00154c 940e 2023 	CALL SUBOPT_0x77
00154e e5e0      	LDI  R30,LOW(80)
00154f e0f0      	LDI  R31,HIGH(80)
001550 c075      	RJMP _0x37B
                 _0x2DD:
001551 33e0      	CPI  R30,LOW(0x30)
001552 e0a0      	LDI  R26,HIGH(0x30)
001553 07fa      	CPC  R31,R26
001554 f429      	BRNE _0x2DE
001555 940e 2023 	CALL SUBOPT_0x77
001557 e5e0      	LDI  R30,LOW(80)
001558 e0f0      	LDI  R31,HIGH(80)
001559 c06c      	RJMP _0x37B
                 _0x2DE:
00155a 33e1      	CPI  R30,LOW(0x31)
00155b e0a0      	LDI  R26,HIGH(0x31)
00155c 07fa      	CPC  R31,R26
00155d f419      	BRNE _0x2DF
00155e e4eb      	LDI  R30,LOW(75)
00155f e0f0      	LDI  R31,HIGH(75)
001560 c061      	RJMP _0x37D
                 _0x2DF:
001561 33e2      	CPI  R30,LOW(0x32)
001562 e0a0      	LDI  R26,HIGH(0x32)
001563 07fa      	CPC  R31,R26
001564 f429      	BRNE _0x2E0
001565 940e 1e22 	CALL SUBOPT_0x2D
001567 e4e6      	LDI  R30,LOW(70)
001568 e0f0      	LDI  R31,HIGH(70)
001569 c05c      	RJMP _0x37B
                 _0x2E0:
00156a 33e3      	CPI  R30,LOW(0x33)
00156b e0a0      	LDI  R26,HIGH(0x33)
00156c 07fa      	CPC  R31,R26
00156d f429      	BRNE _0x2E1
00156e 940e 1e13 	CALL SUBOPT_0x2A
001570 e5ea      	LDI  R30,LOW(90)
001571 e0f0      	LDI  R31,HIGH(90)
001572 c053      	RJMP _0x37B
                 _0x2E1:
001573 33e4      	CPI  R30,LOW(0x34)
001574 e0a0      	LDI  R26,HIGH(0x34)
001575 07fa      	CPC  R31,R26
001576 f429      	BRNE _0x2E2
001577 940e 1e13 	CALL SUBOPT_0x2A
001579 e4e6      	LDI  R30,LOW(70)
00157a e0f0      	LDI  R31,HIGH(70)
00157b c04a      	RJMP _0x37B
                 _0x2E2:
00157c 33e5      	CPI  R30,LOW(0x35)
00157d e0a0      	LDI  R26,HIGH(0x35)
00157e 07fa      	CPC  R31,R26
00157f f419      	BRNE _0x2E3
001580 e4eb      	LDI  R30,LOW(75)
001581 e0f0      	LDI  R31,HIGH(75)
001582 c03f      	RJMP _0x37D
                 _0x2E3:
001583 33e6      	CPI  R30,LOW(0x36)
001584 e0a0      	LDI  R26,HIGH(0x36)
001585 07fa      	CPC  R31,R26
001586 f429      	BRNE _0x2E4
001587 940e 1e22 	CALL SUBOPT_0x2D
001589 e4e1      	LDI  R30,LOW(65)
00158a e0f0      	LDI  R31,HIGH(65)
00158b c03a      	RJMP _0x37B
                 _0x2E4:
00158c 33e7      	CPI  R30,LOW(0x37)
00158d e0a0      	LDI  R26,HIGH(0x37)
00158e 07fa      	CPC  R31,R26
00158f f419      	BRNE _0x2E5
001590 e5e0      	LDI  R30,LOW(80)
001591 e0f0      	LDI  R31,HIGH(80)
001592 c02f      	RJMP _0x37D
                 _0x2E5:
001593 33e8      	CPI  R30,LOW(0x38)
001594 e0a0      	LDI  R26,HIGH(0x38)
001595 07fa      	CPC  R31,R26
001596 f419      	BRNE _0x2E6
001597 e5e0      	LDI  R30,LOW(80)
001598 e0f0      	LDI  R31,HIGH(80)
001599 c028      	RJMP _0x37D
                 _0x2E6:
00159a 33e9      	CPI  R30,LOW(0x39)
00159b e0a0      	LDI  R26,HIGH(0x39)
00159c 07fa      	CPC  R31,R26
00159d f419      	BRNE _0x2E7
00159e e5e0      	LDI  R30,LOW(80)
00159f e0f0      	LDI  R31,HIGH(80)
0015a0 c021      	RJMP _0x37D
                 _0x2E7:
0015a1 33ea      	CPI  R30,LOW(0x3A)
0015a2 e0a0      	LDI  R26,HIGH(0x3A)
0015a3 07fa      	CPC  R31,R26
0015a4 f429      	BRNE _0x2E8
0015a5 940e 1e13 	CALL SUBOPT_0x2A
0015a7 e5e0      	LDI  R30,LOW(80)
0015a8 e0f0      	LDI  R31,HIGH(80)
0015a9 c01c      	RJMP _0x37B
                 _0x2E8:
0015aa 33eb      	CPI  R30,LOW(0x3B)
0015ab e0a0      	LDI  R26,HIGH(0x3B)
0015ac 07fa      	CPC  R31,R26
0015ad f429      	BRNE _0x2E9
0015ae 940e 1e13 	CALL SUBOPT_0x2A
0015b0 e5e5      	LDI  R30,LOW(85)
0015b1 e0f0      	LDI  R31,HIGH(85)
0015b2 c013      	RJMP _0x37B
                 _0x2E9:
0015b3 33ec      	CPI  R30,LOW(0x3C)
0015b4 e0a0      	LDI  R26,HIGH(0x3C)
0015b5 07fa      	CPC  R31,R26
0015b6 f429      	BRNE _0x2EA
0015b7 940e 1e22 	CALL SUBOPT_0x2D
0015b9 e4e6      	LDI  R30,LOW(70)
0015ba e0f0      	LDI  R31,HIGH(70)
0015bb c00a      	RJMP _0x37B
                 _0x2EA:
0015bc 34e0      	CPI  R30,LOW(0x40)
0015bd e0a0      	LDI  R26,HIGH(0x40)
0015be 07fa      	CPC  R31,R26
0015bf f471      	BRNE _0x2AD
                 _0x37C:
0015c0 e4e6      	LDI  R30,LOW(70)
0015c1 e0f0      	LDI  R31,HIGH(70)
                 _0x37D:
0015c2 93fa      	ST   -Y,R31
0015c3 93ea      	ST   -Y,R30
0015c4 e6e4      	LDI  R30,LOW(100)
0015c5 e0f0      	LDI  R31,HIGH(100)
                 _0x37B:
0015c6 93fa      	ST   -Y,R31
0015c7 93ea      	ST   -Y,R30
0015c8 940e 1e31 	CALL SUBOPT_0x30
0015ca e0a1      	LDI  R26,LOW(1)
                 _0x37A:
0015cb e0b0      	LDI  R27,0
0015cc 940e 03c1 	CALL _movement
                 _0x2AD:
0015ce 9508      	RET
                 ; .FEND
                 _STATE_1:
                 ; .FSTART _STATE_1
0015cf 940e 1cd6 	CALL SUBOPT_0x5
0015d1 940e 1ccb 	CALL SUBOPT_0x3
                 _0x2ED:
0015d3 e6e4      	LDI  R30,LOW(100)
0015d4 e0f0      	LDI  R31,HIGH(100)
0015d5 940e 1d15 	CALL SUBOPT_0xD
0015d7 e6e4      	LDI  R30,LOW(100)
0015d8 e0f0      	LDI  R31,HIGH(100)
0015d9 940e 1d1a 	CALL SUBOPT_0xE
0015db 9adf      	SBI  0x1B,7
0015dc 98dd      	CBI  0x1B,5
0015dd 940e 1e3b 	CALL SUBOPT_0x32
                +
0015df e1aa     +LDI R26 , LOW ( _0x2F3 + ( 0 ) )
0015e0 e0b6     +LDI R27 , HIGH ( _0x2F3 + ( 0 ) )
                 	__POINTW2MN _0x2F3,0
0015e1 940e 1e3e 	CALL SUBOPT_0x33
                +
0015e3 e1ad     +LDI R26 , LOW ( _0x2F3 + ( 3 ) )
0015e4 e0b6     +LDI R27 , HIGH ( _0x2F3 + ( 3 ) )
                 	__POINTW2MN _0x2F3,3
0015e5 940e 1e4b 	CALL SUBOPT_0x34
0015e7 940e 1cd1 	CALL SUBOPT_0x4
0015e9 34a0      	CPI  R26,LOW(0x40)
0015ea e0e0      	LDI  R30,HIGH(0x40)
0015eb 07be      	CPC  R27,R30
0015ec f434      	BRGE _0x2F4
0015ed 940e 1cc0 	CALL SUBOPT_0x1
0015ef 34a0      	CPI  R26,LOW(0x40)
0015f0 e0e0      	LDI  R30,HIGH(0x40)
0015f1 07be      	CPC  R27,R30
0015f2 f00c      	BRLT _0x2F5
                 _0x2F4:
0015f3 c001      	RJMP _0x2EE
                 _0x2F5:
0015f4 cfde      	RJMP _0x2ED
                 _0x2EE:
0015f5 9508      	RET
                 ; .FEND
                 
                 	.DSEG
                 _0x2F3:
00061a           	.BYTE 0x7
                 
                 	.CSEG
                 _STATE_2:
                 ; .FSTART _STATE_2
0015f6 e0e4      	LDI  R30,LOW(4)
0015f7 e0f0      	LDI  R31,HIGH(4)
0015f8 93e0 0788 	STS  _wheelEncoderCounter_left,R30
0015fa 93f0 0789 	STS  _wheelEncoderCounter_left+1,R31
0015fc e0e5      	LDI  R30,LOW(5)
0015fd e0f0      	LDI  R31,HIGH(5)
0015fe 93e0 078a 	STS  _wheelEncoderCounter_right,R30
001600 93f0 078b 	STS  _wheelEncoderCounter_right+1,R31
001602 940e 1c16 	CALL _lcd_clear
001604 e0e0      	LDI  R30,LOW(0)
001605 93ea      	ST   -Y,R30
001606 e0a0      	LDI  R26,LOW(0)
001607 940e 1c02 	CALL _lcd_gotoxy
                +
001609 e2a1     +LDI R26 , LOW ( _0x2F6 + ( 0 ) )
00160a e0b6     +LDI R27 , HIGH ( _0x2F6 + ( 0 ) )
                 	__POINTW2MN _0x2F6,0
00160b 940e 1c52 	CALL _lcd_puts
                 _0x2F8:
00160d 940e 1e27 	CALL SUBOPT_0x2E
00160f f021      	BREQ _0x2FA
001610 940e 2046 	CALL SUBOPT_0x7E
001612 940e 204b 	CALL SUBOPT_0x7F
                 _0x2FA:
001614 940e 1e20 	CALL SUBOPT_0x2C
001616 17ae      	CP   R26,R30
001617 07bf      	CPC  R27,R31
001618 f424      	BRGE _0x2FB
001619 940e 2014 	CALL SUBOPT_0x74
00161b 940e 204b 	CALL SUBOPT_0x7F
                 _0x2FB:
00161d 940e 1e20 	CALL SUBOPT_0x2C
00161f 17ea      	CP   R30,R26
001620 07fb      	CPC  R31,R27
001621 f434      	BRGE _0x2FC
001622 940e 2046 	CALL SUBOPT_0x7E
001624 940e 2014 	CALL SUBOPT_0x74
001626 940e 1e18 	CALL SUBOPT_0x2B
                 _0x2FC:
001628 940e 1d68 	CALL SUBOPT_0x19
                +
00162a e2a9     +LDI R26 , LOW ( _0x2F6 + ( 8 ) )
00162b e0b6     +LDI R27 , HIGH ( _0x2F6 + ( 8 ) )
                 	__POINTW2MN _0x2F6,8
00162c 940e 1e3e 	CALL SUBOPT_0x33
                +
00162e e2ac     +LDI R26 , LOW ( _0x2F6 + ( 11 ) )
00162f e0b6     +LDI R27 , HIGH ( _0x2F6 + ( 11 ) )
                 	__POINTW2MN _0x2F6,11
001630 940e 1e4b 	CALL SUBOPT_0x34
001632 940e 204e 	CALL SUBOPT_0x80
001634 f6c1      	BRNE _0x2F8
001635 940e 1e36 	CALL SUBOPT_0x31
001637 940e 1e36 	CALL SUBOPT_0x31
001639 940e 1e18 	CALL SUBOPT_0x2B
00163b 940e 1cd6 	CALL SUBOPT_0x5
00163d 940e 1ccb 	CALL SUBOPT_0x3
00163f 940e 205b 	CALL SUBOPT_0x81
001641 940e 1cd6 	CALL SUBOPT_0x5
001643 940e 1ccb 	CALL SUBOPT_0x3
                 _0x2FE:
001645 940e 2019 	CALL SUBOPT_0x75
001647 940e 2019 	CALL SUBOPT_0x75
001649 940e 1e36 	CALL SUBOPT_0x31
00164b 940e 205f 	CALL SUBOPT_0x82
                +
00164d e3a0     +LDI R26 , LOW ( _0x2F6 + ( 15 ) )
00164e e0b6     +LDI R27 , HIGH ( _0x2F6 + ( 15 ) )
                 	__POINTW2MN _0x2F6,15
00164f 940e 1e3e 	CALL SUBOPT_0x33
                +
001651 e3a3     +LDI R26 , LOW ( _0x2F6 + ( 18 ) )
001652 e0b6     +LDI R27 , HIGH ( _0x2F6 + ( 18 ) )
                 	__POINTW2MN _0x2F6,18
001653 940e 1e4b 	CALL SUBOPT_0x34
001655 940e 1cc0 	CALL SUBOPT_0x1
001657 971d      	SBIW R26,13
001658 f364      	BRLT _0x2FE
001659 940e 1e36 	CALL SUBOPT_0x31
00165b 940e 1e36 	CALL SUBOPT_0x31
00165d 940e 1e18 	CALL SUBOPT_0x2B
00165f 940e 1cd6 	CALL SUBOPT_0x5
001661 940e 1ccb 	CALL SUBOPT_0x3
001663 940e 205b 	CALL SUBOPT_0x81
                 _0x301:
001665 940e 1e27 	CALL SUBOPT_0x2E
001667 f021      	BREQ _0x303
001668 940e 2046 	CALL SUBOPT_0x7E
00166a 940e 204b 	CALL SUBOPT_0x7F
                 _0x303:
00166c 940e 1e20 	CALL SUBOPT_0x2C
00166e 17ae      	CP   R26,R30
00166f 07bf      	CPC  R27,R31
001670 f424      	BRGE _0x304
001671 940e 2014 	CALL SUBOPT_0x74
001673 940e 204b 	CALL SUBOPT_0x7F
                 _0x304:
001675 940e 1e20 	CALL SUBOPT_0x2C
001677 17ea      	CP   R30,R26
001678 07fb      	CPC  R31,R27
001679 f434      	BRGE _0x305
00167a 940e 2046 	CALL SUBOPT_0x7E
00167c 940e 2014 	CALL SUBOPT_0x74
00167e 940e 1e18 	CALL SUBOPT_0x2B
                 _0x305:
001680 940e 1d68 	CALL SUBOPT_0x19
                +
001682 e3a7     +LDI R26 , LOW ( _0x2F6 + ( 22 ) )
001683 e0b6     +LDI R27 , HIGH ( _0x2F6 + ( 22 ) )
                 	__POINTW2MN _0x2F6,22
001684 940e 1e3e 	CALL SUBOPT_0x33
                +
001686 e3aa     +LDI R26 , LOW ( _0x2F6 + ( 25 ) )
001687 e0b6     +LDI R27 , HIGH ( _0x2F6 + ( 25 ) )
                 	__POINTW2MN _0x2F6,25
001688 940e 1e4b 	CALL SUBOPT_0x34
00168a 940e 204e 	CALL SUBOPT_0x80
00168c f6c1      	BRNE _0x301
00168d 940e 1e36 	CALL SUBOPT_0x31
00168f 940e 1e36 	CALL SUBOPT_0x31
001691 940e 1e18 	CALL SUBOPT_0x2B
001693 940e 1cd6 	CALL SUBOPT_0x5
001695 940e 1ccb 	CALL SUBOPT_0x3
001697 940e 205b 	CALL SUBOPT_0x81
001699 940e 1cd6 	CALL SUBOPT_0x5
00169b 940e 1ccb 	CALL SUBOPT_0x3
                 _0x307:
00169d 940e 2019 	CALL SUBOPT_0x75
00169f 940e 2019 	CALL SUBOPT_0x75
0016a1 940e 1e36 	CALL SUBOPT_0x31
0016a3 940e 205f 	CALL SUBOPT_0x82
                +
0016a5 e3ae     +LDI R26 , LOW ( _0x2F6 + ( 29 ) )
0016a6 e0b6     +LDI R27 , HIGH ( _0x2F6 + ( 29 ) )
                 	__POINTW2MN _0x2F6,29
0016a7 940e 1e3e 	CALL SUBOPT_0x33
                +
0016a9 e4a1     +LDI R26 , LOW ( _0x2F6 + ( 32 ) )
0016aa e0b6     +LDI R27 , HIGH ( _0x2F6 + ( 32 ) )
                 	__POINTW2MN _0x2F6,32
0016ab 940e 1e4b 	CALL SUBOPT_0x34
0016ad 940e 1cc0 	CALL SUBOPT_0x1
0016af 975e      	SBIW R26,30
0016b0 f364      	BRLT _0x307
0016b1 940e 1e36 	CALL SUBOPT_0x31
0016b3 940e 1e36 	CALL SUBOPT_0x31
0016b5 940e 1e18 	CALL SUBOPT_0x2B
0016b7 940e 1cd6 	CALL SUBOPT_0x5
0016b9 940e 1ccb 	CALL SUBOPT_0x3
0016bb 940e 205b 	CALL SUBOPT_0x81
                 _0x30A:
0016bd 940e 1e27 	CALL SUBOPT_0x2E
0016bf f021      	BREQ _0x30C
0016c0 940e 2046 	CALL SUBOPT_0x7E
0016c2 940e 204b 	CALL SUBOPT_0x7F
                 _0x30C:
0016c4 940e 1e20 	CALL SUBOPT_0x2C
0016c6 17ae      	CP   R26,R30
0016c7 07bf      	CPC  R27,R31
0016c8 f424      	BRGE _0x30D
0016c9 940e 2014 	CALL SUBOPT_0x74
0016cb 940e 204b 	CALL SUBOPT_0x7F
                 _0x30D:
0016cd 940e 1e20 	CALL SUBOPT_0x2C
0016cf 17ea      	CP   R30,R26
0016d0 07fb      	CPC  R31,R27
0016d1 f434      	BRGE _0x30E
0016d2 940e 2046 	CALL SUBOPT_0x7E
0016d4 940e 2014 	CALL SUBOPT_0x74
0016d6 940e 1e18 	CALL SUBOPT_0x2B
                 _0x30E:
0016d8 940e 1d68 	CALL SUBOPT_0x19
                +
0016da e4a5     +LDI R26 , LOW ( _0x2F6 + ( 36 ) )
0016db e0b6     +LDI R27 , HIGH ( _0x2F6 + ( 36 ) )
                 	__POINTW2MN _0x2F6,36
0016dc 940e 1e3e 	CALL SUBOPT_0x33
                +
0016de e4a8     +LDI R26 , LOW ( _0x2F6 + ( 39 ) )
0016df e0b6     +LDI R27 , HIGH ( _0x2F6 + ( 39 ) )
                 	__POINTW2MN _0x2F6,39
0016e0 940e 1e4b 	CALL SUBOPT_0x34
0016e2 940e 204e 	CALL SUBOPT_0x80
0016e4 f6c1      	BRNE _0x30A
0016e5 940e 1e36 	CALL SUBOPT_0x31
0016e7 940e 1e36 	CALL SUBOPT_0x31
0016e9 940e 1e18 	CALL SUBOPT_0x2B
0016eb 940e 1cd6 	CALL SUBOPT_0x5
0016ed 940e 1ccb 	CALL SUBOPT_0x3
0016ef 940e 205b 	CALL SUBOPT_0x81
0016f1 940e 1cd6 	CALL SUBOPT_0x5
0016f3 940e 1ccb 	CALL SUBOPT_0x3
                 _0x310:
0016f5 940e 2019 	CALL SUBOPT_0x75
0016f7 940e 2019 	CALL SUBOPT_0x75
0016f9 940e 1e31 	CALL SUBOPT_0x30
0016fb e0a0      	LDI  R26,LOW(0)
0016fc e0b0      	LDI  R27,0
0016fd 940e 03c1 	CALL _movement
0016ff 940e 1d68 	CALL SUBOPT_0x19
                +
001701 e4ac     +LDI R26 , LOW ( _0x2F6 + ( 43 ) )
001702 e0b6     +LDI R27 , HIGH ( _0x2F6 + ( 43 ) )
                 	__POINTW2MN _0x2F6,43
001703 940e 1e3e 	CALL SUBOPT_0x33
                +
001705 e4af     +LDI R26 , LOW ( _0x2F6 + ( 46 ) )
001706 e0b6     +LDI R27 , HIGH ( _0x2F6 + ( 46 ) )
                 	__POINTW2MN _0x2F6,46
001707 940e 1e4b 	CALL SUBOPT_0x34
001709 940e 1cc0 	CALL SUBOPT_0x1
00170b 971d      	SBIW R26,13
00170c f344      	BRLT _0x310
00170d 940e 1e36 	CALL SUBOPT_0x31
00170f 940e 1e36 	CALL SUBOPT_0x31
001711 940e 1e18 	CALL SUBOPT_0x2B
001713 940e 1cd6 	CALL SUBOPT_0x5
001715 940e 1ccb 	CALL SUBOPT_0x3
001717 940e 205b 	CALL SUBOPT_0x81
                 _0x313:
001719 940e 1e27 	CALL SUBOPT_0x2E
00171b f021      	BREQ _0x315
00171c 940e 2046 	CALL SUBOPT_0x7E
00171e 940e 204b 	CALL SUBOPT_0x7F
                 _0x315:
001720 940e 1e20 	CALL SUBOPT_0x2C
001722 17ae      	CP   R26,R30
001723 07bf      	CPC  R27,R31
001724 f424      	BRGE _0x316
001725 940e 2014 	CALL SUBOPT_0x74
001727 940e 204b 	CALL SUBOPT_0x7F
                 _0x316:
001729 940e 1e20 	CALL SUBOPT_0x2C
00172b 17ea      	CP   R30,R26
00172c 07fb      	CPC  R31,R27
00172d f434      	BRGE _0x317
00172e 940e 2046 	CALL SUBOPT_0x7E
001730 940e 2014 	CALL SUBOPT_0x74
001732 940e 1e18 	CALL SUBOPT_0x2B
                 _0x317:
001734 940e 1d68 	CALL SUBOPT_0x19
                +
001736 e5a3     +LDI R26 , LOW ( _0x2F6 + ( 50 ) )
001737 e0b6     +LDI R27 , HIGH ( _0x2F6 + ( 50 ) )
                 	__POINTW2MN _0x2F6,50
001738 940e 1e3e 	CALL SUBOPT_0x33
                +
00173a e5a6     +LDI R26 , LOW ( _0x2F6 + ( 53 ) )
00173b e0b6     +LDI R27 , HIGH ( _0x2F6 + ( 53 ) )
                 	__POINTW2MN _0x2F6,53
00173c 940e 1e4b 	CALL SUBOPT_0x34
00173e 940e 204e 	CALL SUBOPT_0x80
001740 f6c1      	BRNE _0x313
001741 940e 1e36 	CALL SUBOPT_0x31
001743 940e 1e36 	CALL SUBOPT_0x31
001745 940e 1e18 	CALL SUBOPT_0x2B
001747 940e 1cd6 	CALL SUBOPT_0x5
001749 940e 1ccb 	CALL SUBOPT_0x3
00174b edac      	LDI  R26,LOW(1500)
00174c e0b5      	LDI  R27,HIGH(1500)
00174d c1eb      	RJMP _0x20E0003
                 ; .FEND
                 
                 	.DSEG
                 _0x2F6:
000621           	.BYTE 0x39
                 
                 	.CSEG
                 _STATE_3:
                 ; .FSTART _STATE_3
00174e 940e 08fa 	CALL _detector
001750 dc84      	RCALL _detectorcase
001751 9508      	RET
                 ; .FEND
                 _STATE_4:
                 ; .FSTART _STATE_4
001752 940e 1c16 	CALL _lcd_clear
                +
001754 e5aa     +LDI R26 , LOW ( _0x318 + ( 0 ) )
001755 e0b6     +LDI R27 , HIGH ( _0x318 + ( 0 ) )
                 	__POINTW2MN _0x318,0
001756 940e 1d24 	CALL SUBOPT_0x10
001758 940e 2064 	CALL SUBOPT_0x83
00175a 940e 206b 	CALL SUBOPT_0x84
                +
00175c e5ae     +LDI R26 , LOW ( _0x318 + ( 4 ) )
00175d e0b6     +LDI R27 , HIGH ( _0x318 + ( 4 ) )
                 	__POINTW2MN _0x318,4
00175e 940e 2073 	CALL SUBOPT_0x85
001760 940e 207c 	CALL SUBOPT_0x86
001762 940e 2081 	CALL SUBOPT_0x87
001764 940e 1e31 	CALL SUBOPT_0x30
001766 e0a1      	LDI  R26,LOW(1)
001767 c015      	RJMP _0x20E0004
                 ; .FEND
                 
                 	.DSEG
                 _0x318:
00065a           	.BYTE 0x6
                 
                 	.CSEG
                 _STATE_5:
                 ; .FSTART _STATE_5
001768 940e 1c16 	CALL _lcd_clear
                +
00176a e6a0     +LDI R26 , LOW ( _0x319 + ( 0 ) )
00176b e0b6     +LDI R27 , HIGH ( _0x319 + ( 0 ) )
                 	__POINTW2MN _0x319,0
00176c 940e 1d24 	CALL SUBOPT_0x10
00176e 940e 2064 	CALL SUBOPT_0x83
001770 940e 206b 	CALL SUBOPT_0x84
                +
001772 e6a5     +LDI R26 , LOW ( _0x319 + ( 5 ) )
001773 e0b6     +LDI R27 , HIGH ( _0x319 + ( 5 ) )
                 	__POINTW2MN _0x319,5
001774 940e 2073 	CALL SUBOPT_0x85
001776 940e 207c 	CALL SUBOPT_0x86
001778 940e 2081 	CALL SUBOPT_0x87
00177a 940e 1e36 	CALL SUBOPT_0x31
00177c e0a0      	LDI  R26,LOW(0)
                 _0x20E0004:
00177d e0b0      	LDI  R27,0
00177e 940e 03c1 	CALL _movement
001780 9508      	RET
                 ; .FEND
                 
                 	.DSEG
                 _0x319:
000660           	.BYTE 0x7
                 
                 	.CSEG
                 _STATE_6:
                 ; .FSTART _STATE_6
001781 940e 0c98 	CALL _line_detector
001783 d922      	RCALL _detectorcase_line
001784 9508      	RET
                 ; .FEND
                 _STATE_7:
                 ; .FSTART _STATE_7
001785 931a      	ST   -Y,R17
                 ;	iWII -> R17
001786 e010      	LDI  R17,0
001787 940e 0628 	CALL _readData
001789 940e 065e 	CALL _convertdata
00178b 940e 1c16 	CALL _lcd_clear
                +
00178d e6a7     +LDI R26 , LOW ( _0x31A + ( 0 ) )
00178e e0b6     +LDI R27 , HIGH ( _0x31A + ( 0 ) )
                 	__POINTW2MN _0x31A,0
00178f 940e 1c52 	CALL _lcd_puts
001791 e010      	LDI  R17,LOW(0)
                 _0x31C:
001792 3012      	CPI  R17,2
001793 f008      	BRLO PC+2
001794 c03f      	RJMP _0x31D
001795 3012      	CPI  R17,2
001796 f5d8      	BRSH _0x31E
001797 940e 1db0 	CALL SUBOPT_0x1F
001799 3fef      	CPI  R30,LOW(0x3FF)
00179a e0a3      	LDI  R26,HIGH(0x3FF)
00179b 07fa      	CPC  R31,R26
00179c f031      	BREQ _0x320
00179d 940e 1dbb 	CALL SUBOPT_0x20
00179f 3fef      	CPI  R30,LOW(0x3FF)
0017a0 e0a3      	LDI  R26,HIGH(0x3FF)
0017a1 07fa      	CPC  R31,R26
0017a2 f409      	BRNE _0x31F
                 _0x320:
0017a3 c02e      	RJMP _0x322
                 _0x31F:
0017a4 940e 1db0 	CALL SUBOPT_0x1F
0017a6 50e0      	SUBI R30,LOW(512)
0017a7 40f2      	SBCI R31,HIGH(512)
0017a8 3fef      	CPI  R30,LOW(0x3FF)
0017a9 e0a3      	LDI  R26,HIGH(0x3FF)
0017aa 07fa      	CPC  R31,R26
0017ab f438      	BRSH _0x323
0017ac e6e4      	LDI  R30,LOW(100)
0017ad e0f0      	LDI  R31,HIGH(100)
0017ae 93e0 06e5 	STS  _Wiipwmright,R30
0017b0 93f0 06e6 	STS  _Wiipwmright+1,R31
0017b2 c006      	RJMP _0x324
                 _0x323:
0017b3 e6e4      	LDI  R30,LOW(100)
0017b4 e0f0      	LDI  R31,HIGH(100)
0017b5 93e0 06e3 	STS  _Wiipwmleft,R30
0017b7 93f0 06e4 	STS  _Wiipwmleft+1,R31
                 _0x324:
0017b9 940e 1db0 	CALL SUBOPT_0x1F
0017bb 50e0      	SUBI R30,LOW(512)
0017bc 40f2      	SBCI R31,HIGH(512)
0017bd 93e0 06ae 	STS  _wiicamobject1,R30
0017bf 93f0 06af 	STS  _wiicamobject1+1,R31
0017c1 91e0 0700 	LDS  R30,_i
0017c3 e6ad      	LDI  R26,LOW(_y)
0017c4 e0b7      	LDI  R27,HIGH(_y)
0017c5 e0f0      	LDI  R31,0
0017c6 0fee      	LSL  R30
0017c7 1fff      	ROL  R31
0017c8 0fae      	ADD  R26,R30
0017c9 1fbf      	ADC  R27,R31
0017ca 940e 2255 	CALL __GETW1P
0017cc 57e6      	SUBI R30,LOW(374)
0017cd 40f1      	SBCI R31,HIGH(374)
0017ce 93e0 06b0 	STS  _wiicamobject2,R30
0017d0 93f0 06b1 	STS  _wiicamobject2+1,R31
                 _0x322:
                 _0x31E:
0017d2 5f1f      	SUBI R17,-1
0017d3 cfbe      	RJMP _0x31C
                 _0x31D:
0017d4 940e 1df0 	CALL SUBOPT_0x26
0017d6 01df      	MOVW R26,R30
0017d7 01cb      	MOVW R24,R22
                +
0017d8 e0e0     +LDI R30 , LOW ( 0x42200000 )
0017d9 e0f0     +LDI R31 , HIGH ( 0x42200000 )
0017da e260     +LDI R22 , BYTE3 ( 0x42200000 )
0017db e472     +LDI R23 , BYTE4 ( 0x42200000 )
                 	__GETD1N 0x42200000
0017dc 940e 21c5 	CALL __CMPF12
0017de f009      	BREQ PC+2
0017df f408      	BRCC PC+2
0017e0 c00c      	RJMP _0x325
0017e1 91e0 06e3 	LDS  R30,_Wiipwmleft
0017e3 91f0 06e4 	LDS  R31,_Wiipwmleft+1
0017e5 93fa      	ST   -Y,R31
0017e6 93ea      	ST   -Y,R30
0017e7 91e0 06e5 	LDS  R30,_Wiipwmright
0017e9 91f0 06e6 	LDS  R31,_Wiipwmright+1
0017eb 940e 203c 	CALL SUBOPT_0x7C
                 _0x325:
0017ed e1ae      	LDI  R26,LOW(30)
0017ee e0b0      	LDI  R27,0
0017ef 940e 20e2 	CALL _delay_ms
0017f1 9bc3      	SBIS 0x18,3
0017f2 c002      	RJMP _0x326
0017f3 98c3      	CBI  0x18,3
0017f4 c001      	RJMP _0x327
                 _0x326:
0017f5 9ac3      	SBI  0x18,3
                 _0x327:
0017f6 9119      	LD   R17,Y+
0017f7 9508      	RET
                 ; .FEND
                 
                 	.DSEG
                 _0x31A:
000667           	.BYTE 0x7
                 
                 	.CSEG
                 _STATE_8:
                 ; .FSTART _STATE_8
0017f8 940e 1c16 	CALL _lcd_clear
                +
0017fa e6ae     +LDI R26 , LOW ( _0x328 + ( 0 ) )
0017fb e0b6     +LDI R27 , HIGH ( _0x328 + ( 0 ) )
                 	__POINTW2MN _0x328,0
0017fc 940e 1c52 	CALL _lcd_puts
0017fe 9508      	RET
                 ; .FEND
                 
                 	.DSEG
                 _0x328:
00066e           	.BYTE 0x11
                 
                 	.CSEG
                 _STATE_MACHINE:
                 ; .FSTART _STATE_MACHINE
0017ff e0e0      	LDI  R30,LOW(0)
001800 93e0 06dd 	STS  _ipwmcompareleft,R30
001802 93e0 06de 	STS  _ipwmcompareleft+1,R30
001804 93e0 06df 	STS  _ipwmcompareright,R30
001806 93e0 06e0 	STS  _ipwmcompareright+1,R30
001808 91e0 06c5 	LDS  R30,_state
00180a 91f0 06c6 	LDS  R31,_state+1
00180c 9730      	SBIW R30,0
00180d f449      	BRNE _0x32C
00180e 2c0a      	MOV  R0,R10
00180f 280b      	OR   R0,R11
001810 f419      	BRNE _0x32D
001811 e0e1      	LDI  R30,LOW(1)
001812 e0f0      	LDI  R31,HIGH(1)
001813 015f      	MOVW R10,R30
                 _0x32D:
001814 940e 0700 	CALL _STATE_LINE_SENSOR
001816 c120      	RJMP _0x32B
                 _0x32C:
001817 30e1      	CPI  R30,LOW(0x1)
001818 e0a0      	LDI  R26,HIGH(0x1)
001819 07fa      	CPC  R31,R26
00181a f449      	BRNE _0x32E
00181b 2c0a      	MOV  R0,R10
00181c 280b      	OR   R0,R11
00181d f419      	BRNE _0x32F
00181e e0e1      	LDI  R30,LOW(1)
00181f e0f0      	LDI  R31,HIGH(1)
001820 015f      	MOVW R10,R30
                 _0x32F:
001821 940e 0729 	CALL _STATE_ENGINE
001823 c113      	RJMP _0x32B
                 _0x32E:
001824 30e2      	CPI  R30,LOW(0x2)
001825 e0a0      	LDI  R26,HIGH(0x2)
001826 07fa      	CPC  R31,R26
001827 f449      	BRNE _0x330
001828 2c0a      	MOV  R0,R10
001829 280b      	OR   R0,R11
00182a f419      	BRNE _0x331
00182b e0e1      	LDI  R30,LOW(1)
00182c e0f0      	LDI  R31,HIGH(1)
00182d 015f      	MOVW R10,R30
                 _0x331:
00182e 940e 074a 	CALL _STATE_ENGINE_DIR
001830 c106      	RJMP _0x32B
                 _0x330:
001831 30e3      	CPI  R30,LOW(0x3)
001832 e0a0      	LDI  R26,HIGH(0x3)
001833 07fa      	CPC  R31,R26
001834 f449      	BRNE _0x332
001835 2c0a      	MOV  R0,R10
001836 280b      	OR   R0,R11
001837 f419      	BRNE _0x333
001838 e0e1      	LDI  R30,LOW(1)
001839 e0f0      	LDI  R31,HIGH(1)
00183a 015f      	MOVW R10,R30
                 _0x333:
00183b 940e 076b 	CALL _STATE_DISTANCE_SENSOR
00183d c0f9      	RJMP _0x32B
                 _0x332:
00183e 30e4      	CPI  R30,LOW(0x4)
00183f e0a0      	LDI  R26,HIGH(0x4)
001840 07fa      	CPC  R31,R26
001841 f449      	BRNE _0x334
001842 2c0a      	MOV  R0,R10
001843 280b      	OR   R0,R11
001844 f419      	BRNE _0x335
001845 e0e1      	LDI  R30,LOW(1)
001846 e0f0      	LDI  R31,HIGH(1)
001847 015f      	MOVW R10,R30
                 _0x335:
001848 940e 0794 	CALL _STATE_LIGHTSENSOR
00184a c0ec      	RJMP _0x32B
                 _0x334:
00184b 30e5      	CPI  R30,LOW(0x5)
00184c e0a0      	LDI  R26,HIGH(0x5)
00184d 07fa      	CPC  R31,R26
00184e f449      	BRNE _0x336
00184f 2c0a      	MOV  R0,R10
001850 280b      	OR   R0,R11
001851 f419      	BRNE _0x337
001852 e0e1      	LDI  R30,LOW(1)
001853 e0f0      	LDI  R31,HIGH(1)
001854 015f      	MOVW R10,R30
                 _0x337:
001855 940e 07bb 	CALL _STATE_WIICAM
001857 c0df      	RJMP _0x32B
                 _0x336:
001858 30e6      	CPI  R30,LOW(0x6)
001859 e0a0      	LDI  R26,HIGH(0x6)
00185a 07fa      	CPC  R31,R26
00185b f449      	BRNE _0x338
00185c 2c0a      	MOV  R0,R10
00185d 280b      	OR   R0,R11
00185e f419      	BRNE _0x339
00185f e0e1      	LDI  R30,LOW(1)
001860 e0f0      	LDI  R31,HIGH(1)
001861 015f      	MOVW R10,R30
                 _0x339:
001862 940e 0830 	CALL _STATE_IRTOWER
001864 c0d2      	RJMP _0x32B
                 _0x338:
001865 30e7      	CPI  R30,LOW(0x7)
001866 e0a0      	LDI  R26,HIGH(0x7)
001867 07fa      	CPC  R31,R26
001868 f449      	BRNE _0x33A
001869 2c0a      	MOV  R0,R10
00186a 280b      	OR   R0,R11
00186b f419      	BRNE _0x33B
00186c e0e1      	LDI  R30,LOW(1)
00186d e0f0      	LDI  R31,HIGH(1)
00186e 015f      	MOVW R10,R30
                 _0x33B:
00186f 940e 0832 	CALL _STATE_SERVO
001871 c0c5      	RJMP _0x32B
                 _0x33A:
001872 30e8      	CPI  R30,LOW(0x8)
001873 e0a0      	LDI  R26,HIGH(0x8)
001874 07fa      	CPC  R31,R26
001875 f449      	BRNE _0x33C
001876 2c0a      	MOV  R0,R10
001877 280b      	OR   R0,R11
001878 f419      	BRNE _0x33D
001879 e0e1      	LDI  R30,LOW(1)
00187a e0f0      	LDI  R31,HIGH(1)
00187b 015f      	MOVW R10,R30
                 _0x33D:
00187c 940e 083a 	CALL _STATE_ULTRASONIC
00187e c0b8      	RJMP _0x32B
                 _0x33C:
00187f 30e9      	CPI  R30,LOW(0x9)
001880 e0a0      	LDI  R26,HIGH(0x9)
001881 07fa      	CPC  R31,R26
001882 f449      	BRNE _0x33E
001883 2c0a      	MOV  R0,R10
001884 280b      	OR   R0,R11
001885 f419      	BRNE _0x33F
001886 e0e1      	LDI  R30,LOW(1)
001887 e0f0      	LDI  R31,HIGH(1)
001888 015f      	MOVW R10,R30
                 _0x33F:
001889 940e 0866 	CALL _STATE_VOR
00188b c0ab      	RJMP _0x32B
                 _0x33E:
00188c 30ea      	CPI  R30,LOW(0xA)
00188d e0a0      	LDI  R26,HIGH(0xA)
00188e 07fa      	CPC  R31,R26
00188f f449      	BRNE _0x340
001890 2c0a      	MOV  R0,R10
001891 280b      	OR   R0,R11
001892 f419      	BRNE _0x341
001893 e0e1      	LDI  R30,LOW(1)
001894 e0f0      	LDI  R31,HIGH(1)
001895 015f      	MOVW R10,R30
                 _0x341:
001896 940e 088a 	CALL _STATE_ZUR
001898 c09e      	RJMP _0x32B
                 _0x340:
001899 30eb      	CPI  R30,LOW(0xB)
00189a e0a0      	LDI  R26,HIGH(0xB)
00189b 07fa      	CPC  R31,R26
00189c f449      	BRNE _0x342
00189d 2c0a      	MOV  R0,R10
00189e 280b      	OR   R0,R11
00189f f419      	BRNE _0x343
0018a0 e0e1      	LDI  R30,LOW(1)
0018a1 e0f0      	LDI  R31,HIGH(1)
0018a2 015f      	MOVW R10,R30
                 _0x343:
0018a3 940e 08ac 	CALL _STATE_LINKS
0018a5 c091      	RJMP _0x32B
                 _0x342:
0018a6 30ec      	CPI  R30,LOW(0xC)
0018a7 e0a0      	LDI  R26,HIGH(0xC)
0018a8 07fa      	CPC  R31,R26
0018a9 f449      	BRNE _0x344
0018aa 2c0a      	MOV  R0,R10
0018ab 280b      	OR   R0,R11
0018ac f419      	BRNE _0x345
0018ad e0e1      	LDI  R30,LOW(1)
0018ae e0f0      	LDI  R31,HIGH(1)
0018af 015f      	MOVW R10,R30
                 _0x345:
0018b0 940e 08b4 	CALL _STATE_RECHTS
0018b2 c084      	RJMP _0x32B
                 _0x344:
0018b3 31e6      	CPI  R30,LOW(0x16)
0018b4 e0a0      	LDI  R26,HIGH(0x16)
0018b5 07fa      	CPC  R31,R26
0018b6 f449      	BRNE _0x346
0018b7 2c0a      	MOV  R0,R10
0018b8 280b      	OR   R0,R11
0018b9 f419      	BRNE _0x347
0018ba e0e1      	LDI  R30,LOW(1)
0018bb e0f0      	LDI  R31,HIGH(1)
0018bc 015f      	MOVW R10,R30
                 _0x347:
0018bd 940e 08dc 	CALL _STATE_90LINKS
0018bf c077      	RJMP _0x32B
                 _0x346:
0018c0 31e7      	CPI  R30,LOW(0x17)
0018c1 e0a0      	LDI  R26,HIGH(0x17)
0018c2 07fa      	CPC  R31,R26
0018c3 f449      	BRNE _0x348
0018c4 2c0a      	MOV  R0,R10
0018c5 280b      	OR   R0,R11
0018c6 f419      	BRNE _0x349
0018c7 e0e1      	LDI  R30,LOW(1)
0018c8 e0f0      	LDI  R31,HIGH(1)
0018c9 015f      	MOVW R10,R30
                 _0x349:
0018ca 940e 08be 	CALL _STATE_90RECHTS
0018cc c06a      	RJMP _0x32B
                 _0x348:
0018cd 30ed      	CPI  R30,LOW(0xD)
0018ce e0a0      	LDI  R26,HIGH(0xD)
0018cf 07fa      	CPC  R31,R26
0018d0 f441      	BRNE _0x34A
0018d1 2c0a      	MOV  R0,R10
0018d2 280b      	OR   R0,R11
0018d3 f419      	BRNE _0x34B
0018d4 e0e1      	LDI  R30,LOW(1)
0018d5 e0f0      	LDI  R31,HIGH(1)
0018d6 015f      	MOVW R10,R30
                 _0x34B:
0018d7 dcf7      	RCALL _STATE_1
0018d8 c05e      	RJMP _0x32B
                 _0x34A:
0018d9 30ee      	CPI  R30,LOW(0xE)
0018da e0a0      	LDI  R26,HIGH(0xE)
0018db 07fa      	CPC  R31,R26
0018dc f441      	BRNE _0x34C
0018dd 2c0a      	MOV  R0,R10
0018de 280b      	OR   R0,R11
0018df f419      	BRNE _0x34D
0018e0 e0e1      	LDI  R30,LOW(1)
0018e1 e0f0      	LDI  R31,HIGH(1)
0018e2 015f      	MOVW R10,R30
                 _0x34D:
0018e3 dd12      	RCALL _STATE_2
0018e4 c052      	RJMP _0x32B
                 _0x34C:
0018e5 30ef      	CPI  R30,LOW(0xF)
0018e6 e0a0      	LDI  R26,HIGH(0xF)
0018e7 07fa      	CPC  R31,R26
0018e8 f441      	BRNE _0x34E
0018e9 2c0a      	MOV  R0,R10
0018ea 280b      	OR   R0,R11
0018eb f419      	BRNE _0x34F
0018ec e0e1      	LDI  R30,LOW(1)
0018ed e0f0      	LDI  R31,HIGH(1)
0018ee 015f      	MOVW R10,R30
                 _0x34F:
0018ef de5e      	RCALL _STATE_3
0018f0 c046      	RJMP _0x32B
                 _0x34E:
0018f1 31e0      	CPI  R30,LOW(0x10)
0018f2 e0a0      	LDI  R26,HIGH(0x10)
0018f3 07fa      	CPC  R31,R26
0018f4 f441      	BRNE _0x350
0018f5 2c0a      	MOV  R0,R10
0018f6 280b      	OR   R0,R11
0018f7 f419      	BRNE _0x351
0018f8 e0e1      	LDI  R30,LOW(1)
0018f9 e0f0      	LDI  R31,HIGH(1)
0018fa 015f      	MOVW R10,R30
                 _0x351:
0018fb de56      	RCALL _STATE_4
0018fc c03a      	RJMP _0x32B
                 _0x350:
0018fd 31e1      	CPI  R30,LOW(0x11)
0018fe e0a0      	LDI  R26,HIGH(0x11)
0018ff 07fa      	CPC  R31,R26
001900 f441      	BRNE _0x352
001901 2c0a      	MOV  R0,R10
001902 280b      	OR   R0,R11
001903 f419      	BRNE _0x353
001904 e0e1      	LDI  R30,LOW(1)
001905 e0f0      	LDI  R31,HIGH(1)
001906 015f      	MOVW R10,R30
                 _0x353:
001907 de60      	RCALL _STATE_5
001908 c02e      	RJMP _0x32B
                 _0x352:
001909 31e2      	CPI  R30,LOW(0x12)
00190a e0a0      	LDI  R26,HIGH(0x12)
00190b 07fa      	CPC  R31,R26
00190c f441      	BRNE _0x354
00190d 2c0a      	MOV  R0,R10
00190e 280b      	OR   R0,R11
00190f f419      	BRNE _0x355
001910 e0e1      	LDI  R30,LOW(1)
001911 e0f0      	LDI  R31,HIGH(1)
001912 015f      	MOVW R10,R30
                 _0x355:
001913 de6d      	RCALL _STATE_6
001914 c022      	RJMP _0x32B
                 _0x354:
001915 31e3      	CPI  R30,LOW(0x13)
001916 e0a0      	LDI  R26,HIGH(0x13)
001917 07fa      	CPC  R31,R26
001918 f441      	BRNE _0x356
001919 2c0a      	MOV  R0,R10
00191a 280b      	OR   R0,R11
00191b f419      	BRNE _0x357
00191c e0e1      	LDI  R30,LOW(1)
00191d e0f0      	LDI  R31,HIGH(1)
00191e 015f      	MOVW R10,R30
                 _0x357:
00191f de65      	RCALL _STATE_7
001920 c016      	RJMP _0x32B
                 _0x356:
001921 31e4      	CPI  R30,LOW(0x14)
001922 e0a0      	LDI  R26,HIGH(0x14)
001923 07fa      	CPC  R31,R26
001924 f441      	BRNE _0x35A
001925 2c0a      	MOV  R0,R10
001926 280b      	OR   R0,R11
001927 f419      	BRNE _0x359
001928 e0e1      	LDI  R30,LOW(1)
001929 e0f0      	LDI  R31,HIGH(1)
00192a 015f      	MOVW R10,R30
                 _0x359:
00192b decc      	RCALL _STATE_8
00192c c00a      	RJMP _0x32B
                 _0x35A:
00192d 940e 1c16 	CALL _lcd_clear
                +
00192f e7af     +LDI R26 , LOW ( _0x35B + ( 0 ) )
001930 e0b6     +LDI R27 , HIGH ( _0x35B + ( 0 ) )
                 	__POINTW2MN _0x35B,0
001931 940e 1d24 	CALL SUBOPT_0x10
                +
001933 e8ad     +LDI R26 , LOW ( _0x35B + ( 14 ) )
001934 e0b6     +LDI R27 , HIGH ( _0x35B + ( 14 ) )
                 	__POINTW2MN _0x35B,14
001935 940e 1c52 	CALL _lcd_puts
                 _0x32B:
001937 e3a2      	LDI  R26,LOW(50)
001938 e0b0      	LDI  R27,0
                 _0x20E0003:
001939 940e 20e2 	CALL _delay_ms
00193b 9508      	RET
                 ; .FEND
                 
                 	.DSEG
                 _0x35B:
00067f           	.BYTE 0x19
                 ;#include "modules/esp.h"
                 
                 	.CSEG
                 _slave_rx_handler:
                 ; .FSTART _slave_rx_handler
00193c 93aa      	ST   -Y,R26
                 ;	rx_complete -> Y+0
00193d 91e0 069a 	LDS  R30,_twi_result
00193f 30e0      	CPI  R30,0
001940 f419      	BRNE _0x35C
001941 9468      	SET
001942 f821      	BLD  R2,1
001943 c005      	RJMP _0x35D
                 _0x35C:
001944 94e8      	CLT
001945 f821      	BLD  R2,1
001946 e0e0      	LDI  R30,LOW(0)
001947 940c 1cb7 	JMP  _0x20E0001
                 _0x35D:
001949 81e8      	LD   R30,Y
00194a 30e0      	CPI  R30,0
00194b f019      	BREQ _0x35E
00194c e0e0      	LDI  R30,LOW(0)
00194d 940c 1cb7 	JMP  _0x20E0001
                 _0x35E:
00194f 91a0 0699 	LDS  R26,_twi_rx_index
001951 e1e2      	LDI  R30,LOW(18)
001952 940e 2211 	CALL __LTB12U
001954 940c 1cb7 	JMP  _0x20E0001
                 ; .FEND
                 _slave_tx_handler:
                 ; .FSTART _slave_tx_handler
001956 93aa      	ST   -Y,R26
                 ;	tx_complete -> Y+0
001957 81e8      	LD   R30,Y
001958 30e0      	CPI  R30,0
001959 f009      	BREQ PC+2
00195a c04c      	RJMP _0x35F
00195b 91e0 06d7 	LDS  R30,_linesensorvaluetemp
00195d 93e0 0715 	STS  _tx_buffer,R30
00195f 91e0 06d9 	LDS  R30,_distanzsensorvaluetemp
                +
001961 93e0 0716+STS _tx_buffer + ( 1 ) , R30
                 	__PUTB1MN _tx_buffer,1
                +
001963 91e0 077d+LDS R30 , _adc_data + ( 2 )
001965 91f0 077e+LDS R31 , _adc_data + ( 2 ) + 1
                 	__GETW1MN _adc_data,2
                +
001967 93e0 0717+STS _tx_buffer + ( 2 ) , R30
001969 93f0 0718+STS _tx_buffer + ( 2 ) + 1 , R31
                 	__PUTW1MN _tx_buffer,2
                +
00196b 91e0 0781+LDS R30 , _adc_data + ( 6 )
00196d 91f0 0782+LDS R31 , _adc_data + ( 6 ) + 1
                 	__GETW1MN _adc_data,6
                +
00196f 93e0 0719+STS _tx_buffer + ( 4 ) , R30
001971 93f0 071a+STS _tx_buffer + ( 4 ) + 1 , R31
                 	__PUTW1MN _tx_buffer,4
001973 940e 1e08 	CALL SUBOPT_0x28
                +
001975 93e0 071b+STS _tx_buffer + ( 6 ) , R30
001977 93f0 071c+STS _tx_buffer + ( 6 ) + 1 , R31
                 	__PUTW1MN _tx_buffer,6
001979 91e0 078a 	LDS  R30,_wheelEncoderCounter_right
00197b 91f0 078b 	LDS  R31,_wheelEncoderCounter_right+1
                +
00197d 93e0 071d+STS _tx_buffer + ( 8 ) , R30
00197f 93f0 071e+STS _tx_buffer + ( 8 ) + 1 , R31
                 	__PUTW1MN _tx_buffer,8
001981 91e0 06ae 	LDS  R30,_wiicamobject1
001983 91f0 06af 	LDS  R31,_wiicamobject1+1
                +
001985 93e0 071f+STS _tx_buffer + ( 10 ) , R30
001987 93f0 0720+STS _tx_buffer + ( 10 ) + 1 , R31
                 	__PUTW1MN _tx_buffer,10
001989 91e0 06b0 	LDS  R30,_wiicamobject2
00198b 91f0 06b1 	LDS  R31,_wiicamobject2+1
                +
00198d 93e0 0721+STS _tx_buffer + ( 12 ) , R30
00198f 93f0 0722+STS _tx_buffer + ( 12 ) + 1 , R31
                 	__PUTW1MN _tx_buffer,12
001991 91e0 06ee 	LDS  R30,_ucData
                +
001993 93e0 0723+STS _tx_buffer + ( 14 ) , R30
                 	__PUTB1MN _tx_buffer,14
001995 2de6      	MOV  R30,R6
001996 5aea      	SUBI R30,LOW(170)
                +
001997 93e0 0724+STS _tx_buffer + ( 15 ) , R30
                 	__PUTB1MN _tx_buffer,15
001999 940e 1df0 	CALL SUBOPT_0x26
                +
00199b e2a5     +LDI R26 , LOW ( _tx_buffer + ( 16 ) )
00199c e0b7     +LDI R27 , HIGH ( _tx_buffer + ( 16 ) )
                 	__POINTW2MN _tx_buffer,16
00199d 940e 2119 	CALL __CFD1U
00199f 93ec      	ST   X,R30
0019a0 91e0 0701 	LDS  R30,_iTemp
                +
0019a2 93e0 0726+STS _tx_buffer + ( 17 ) , R30
                 	__PUTB1MN _tx_buffer,17
0019a4 e1e2      	LDI  R30,LOW(18)
0019a5 940c 1cb7 	JMP  _0x20E0001
                 _0x35F:
0019a7 fe21      	SBRS R2,1
0019a8 c007      	RJMP _0x360
                +
0019a9 91e0 0714+LDS R30 , _rx_buffer + ( 17 )
                 	__GETB1MN _rx_buffer,17
0019ab e0f0      	LDI  R31,0
0019ac 93e0 06c3 	STS  _currstate,R30
0019ae 93f0 06c4 	STS  _currstate+1,R31
                 _0x360:
0019b0 e0e0      	LDI  R30,LOW(0)
0019b1 940c 1cb7 	JMP  _0x20E0001
                 ; .FEND
                 _twiinit:
                 ; .FSTART _twiinit
0019b3 e0e0      	LDI  R30,LOW(0)
0019b4 93ea      	ST   -Y,R30
0019b5 e5e0      	LDI  R30,LOW(80)
0019b6 93ea      	ST   -Y,R30
0019b7 e0e3      	LDI  R30,LOW(_rx_buffer)
0019b8 e0f7      	LDI  R31,HIGH(_rx_buffer)
0019b9 93fa      	ST   -Y,R31
0019ba 93ea      	ST   -Y,R30
0019bb e1e2      	LDI  R30,LOW(18)
0019bc 93ea      	ST   -Y,R30
0019bd e1e5      	LDI  R30,LOW(_tx_buffer)
0019be e0f7      	LDI  R31,HIGH(_tx_buffer)
0019bf 93fa      	ST   -Y,R31
0019c0 93ea      	ST   -Y,R30
0019c1 e3ec      	LDI  R30,LOW(_slave_rx_handler)
0019c2 e1f9      	LDI  R31,HIGH(_slave_rx_handler)
0019c3 93fa      	ST   -Y,R31
0019c4 93ea      	ST   -Y,R30
0019c5 e5a6      	LDI  R26,LOW(_slave_tx_handler)
0019c6 e1b9      	LDI  R27,HIGH(_slave_tx_handler)
0019c7 940e 1a0a 	CALL _twi_slave_init
0019c9 9508      	RET
                 ; .FEND
                 ;
                 ;
                 ;
                 ;
                 ;
                 ;
                 ;
                 ;void main(void)
                 ; 0000 0053 {
                 _main:
                 ; .FSTART _main
                 ; 0000 0054 // Ports initialisieren
                 ; 0000 0055 port_init();
0019ca 940e 0271 	CALL _port_init
                 ; 0000 0056 //Other inits
                 ; 0000 0057 i2c_init();
0019cc 940e 2091 	CALL _i2c_init
                 ; 0000 0058 wii_cam_init();
0019ce 940e 05fa 	CALL _wii_cam_init
                 ; 0000 0059 twiinit();
0019d0 dfe2      	RCALL _twiinit
                 ; 0000 005A 
                 ; 0000 005B while (1)
                 _0x361:
                 ; 0000 005C       {
                 ; 0000 005D       fnServo();
0019d1 940e 0533 	CALL _fnServo
                 ; 0000 005E       STATE_MACHINE();      //DEFAULT_STATE_MACHINE
0019d3 de2b      	RCALL _STATE_MACHINE
                 ; 0000 005F       esp_states();         //ESP_STATE_MACHINE
0019d4 940e 0550 	CALL _esp_states
                 ; 0000 0060       esp_mainfunctions();  //ESP_MAIN_FUNCTIONS
0019d6 940e 0563 	CALL _esp_mainfunctions
                 ; 0000 0061       ondata();             //IR_DATA_FUNCTION
0019d8 940e 0483 	CALL _ondata
                 ; 0000 0062 
                 ; 0000 0063    }
0019da cff6      	RJMP _0x361
                 ; 0000 0064 }
                 _0x364:
0019db cfff      	RJMP _0x364
                 ; .FEND
                 
                 	.CSEG
                 _itoa:
                 ; .FSTART _itoa
0019dc 93ba      	ST   -Y,R27
0019dd 93aa      	ST   -Y,R26
0019de 91a9          ld   r26,y+
0019df 91b9          ld   r27,y+
0019e0 91e9          ld   r30,y+
0019e1 91f9          ld   r31,y+
0019e2 9630          adiw r30,0
0019e3 f42a          brpl __itoa0
0019e4 95e0          com  r30
0019e5 95f0          com  r31
0019e6 9631          adiw r30,1
0019e7 e26d          ldi  r22,'-'
0019e8 936d          st   x+,r22
                 __itoa0:
0019e9 94e8          clt
0019ea e180          ldi  r24,low(10000)
0019eb e297          ldi  r25,high(10000)
0019ec d00d          rcall __itoa1
0019ed ee88          ldi  r24,low(1000)
0019ee e093          ldi  r25,high(1000)
0019ef d00a          rcall __itoa1
0019f0 e684          ldi  r24,100
0019f1 2799          clr  r25
0019f2 d007          rcall __itoa1
0019f3 e08a          ldi  r24,10
0019f4 d005          rcall __itoa1
0019f5 2f6e          mov  r22,r30
0019f6 d010          rcall __itoa5
0019f7 2766          clr  r22
0019f8 936c          st   x,r22
0019f9 9508          ret
                 
                 __itoa1:
0019fa 2766          clr	 r22
                 __itoa2:
0019fb 17e8          cp   r30,r24
0019fc 07f9          cpc  r31,r25
0019fd f020          brlo __itoa3
0019fe 9563          inc  r22
0019ff 1be8          sub  r30,r24
001a00 0bf9          sbc  r31,r25
001a01 f7c9          brne __itoa2
                 __itoa3:
001a02 2366          tst  r22
001a03 f411          brne __itoa4
001a04 f016          brts __itoa5
001a05 9508          ret
                 __itoa4:
001a06 9468          set
                 __itoa5:
001a07 5d60          subi r22,-0x30
001a08 936d          st   x+,r22
001a09 9508          ret
                 ; .FEND
                 
                 	.DSEG
                 
                 	.CSEG
                 
                 	.CSEG
                 	#ifndef __SLEEP_DEFINED__
                 	#endif
                 
                 	.CSEG
                 	#ifndef __SLEEP_DEFINED__
                 	#endif
                 
                 	.DSEG
                 
                 	.CSEG
                 _twi_slave_init:
                 ; .FSTART _twi_slave_init
001a0a 93ba      	ST   -Y,R27
001a0b 93aa      	ST   -Y,R26
001a0c 9468      	SET
001a0d f824      	BLD  R2,4
001a0e e0e7      	LDI  R30,LOW(7)
001a0f 93e0 069a 	STS  _twi_result,R30
001a11 81ef      	LDD  R30,Y+7
001a12 85f8      	LDD  R31,Y+7+1
001a13 93e0 07a4 	STS  _twi_rx_buffer_G103,R30
001a15 93f0 07a5 	STS  _twi_rx_buffer_G103+1,R31
001a17 81ee      	LDD  R30,Y+6
001a18 93e0 07a7 	STS  _twi_rx_buffer_size_G103,R30
001a1a 81ec      	LDD  R30,Y+4
001a1b 81fd      	LDD  R31,Y+4+1
001a1c 93e0 07a1 	STS  _twi_tx_buffer_G103,R30
001a1e 93f0 07a2 	STS  _twi_tx_buffer_G103+1,R31
001a20 81ea      	LDD  R30,Y+2
001a21 81fb      	LDD  R31,Y+2+1
001a22 93e0 07a8 	STS  _twi_slave_rx_handler_G103,R30
001a24 93f0 07a9 	STS  _twi_slave_rx_handler_G103+1,R31
001a26 81e8      	LD   R30,Y
001a27 81f9      	LDD  R31,Y+1
001a28 93e0 07aa 	STS  _twi_slave_tx_handler_G103,R30
001a2a 93f0 07ab 	STS  _twi_slave_tx_handler_G103+1,R31
001a2c 9a91      	SBI  0x12,1
001a2d 9a90      	SBI  0x12,0
001a2e 85ea      	LDD  R30,Y+10
001a2f 30e0      	CPI  R30,0
001a30 f011      	BREQ _0x2060012
001a31 e0e1      	LDI  R30,LOW(1)
001a32 c002      	RJMP _0x2060066
                 _0x2060012:
001a33 85e9      	LDD  R30,Y+9
001a34 0fee      	LSL  R30
                 _0x2060066:
001a35 93e0 0072 	STS  114,R30
001a37 91e0 0074 	LDS  R30,116
001a39 78e0      	ANDI R30,LOW(0x80)
001a3a 64e5      	ORI  R30,LOW(0x45)
001a3b 93e0 0074 	STS  116,R30
001a3d 962b      	ADIW R28,11
001a3e 9508      	RET
                 ; .FEND
                 _twi_int_handler:
                 ; .FSTART _twi_int_handler
001a3f 920a      	ST   -Y,R0
001a40 921a      	ST   -Y,R1
001a41 92fa      	ST   -Y,R15
001a42 936a      	ST   -Y,R22
001a43 937a      	ST   -Y,R23
001a44 938a      	ST   -Y,R24
001a45 939a      	ST   -Y,R25
001a46 93aa      	ST   -Y,R26
001a47 93ba      	ST   -Y,R27
001a48 93ea      	ST   -Y,R30
001a49 93fa      	ST   -Y,R31
001a4a b7ef      	IN   R30,SREG
001a4b 93ea      	ST   -Y,R30
001a4c 940e 225d 	CALL __SAVELOCR6
001a4e 9110 0699 	LDS  R17,_twi_rx_index
001a50 9100 0698 	LDS  R16,_twi_tx_index
001a52 9130 07a3 	LDS  R19,_bytes_to_tx_G103
001a54 9120 069a 	LDS  R18,_twi_result
001a56 2fe1      	MOV  R30,R17
001a57 91a0 07a4 	LDS  R26,_twi_rx_buffer_G103
001a59 91b0 07a5 	LDS  R27,_twi_rx_buffer_G103+1
001a5b e0f0      	LDI  R31,0
001a5c 0fea      	ADD  R30,R26
001a5d 1ffb      	ADC  R31,R27
001a5e 01af      	MOVW R20,R30
001a5f 91e0 0071 	LDS  R30,113
001a61 7fe8      	ANDI R30,LOW(0xF8)
001a62 30e8      	CPI  R30,LOW(0x8)
001a63 f411      	BRNE _0x2060017
001a64 e020      	LDI  R18,LOW(0)
001a65 c002      	RJMP _0x2060018
                 _0x2060017:
001a66 31e0      	CPI  R30,LOW(0x10)
001a67 f419      	BRNE _0x2060019
                 _0x2060018:
001a68 91e0 07a0 	LDS  R30,_slave_address_G103
001a6a c010      	RJMP _0x2060067
                 _0x2060019:
001a6b 31e8      	CPI  R30,LOW(0x18)
001a6c f011      	BREQ _0x206001D
001a6d 32e8      	CPI  R30,LOW(0x28)
001a6e f549      	BRNE _0x206001E
                 _0x206001D:
001a6f 1703      	CP   R16,R19
001a70 f498      	BRSH _0x206001F
001a71 2fe0      	MOV  R30,R16
001a72 5f0f      	SUBI R16,-1
001a73 91a0 07a1 	LDS  R26,_twi_tx_buffer_G103
001a75 91b0 07a2 	LDS  R27,_twi_tx_buffer_G103+1
001a77 e0f0      	LDI  R31,0
001a78 0fae      	ADD  R26,R30
001a79 1fbf      	ADC  R27,R31
001a7a 91ec      	LD   R30,X
                 _0x2060067:
001a7b 93e0 0073 	STS  115,R30
001a7d 91e0 0074 	LDS  R30,116
001a7f 70ef      	ANDI R30,LOW(0xF)
001a80 68e0      	ORI  R30,0x80
001a81 93e0 0074 	STS  116,R30
001a83 c013      	RJMP _0x2060020
                 _0x206001F:
001a84 91e0 07a6 	LDS  R30,_bytes_to_rx_G103
001a86 171e      	CP   R17,R30
001a87 f470      	BRSH _0x2060021
001a88 91e0 07a0 	LDS  R30,_slave_address_G103
001a8a 60e1      	ORI  R30,1
001a8b 93e0 07a0 	STS  _slave_address_G103,R30
001a8d 94e8      	CLT
001a8e f823      	BLD  R2,3
001a8f 91e0 0074 	LDS  R30,116
001a91 70ef      	ANDI R30,LOW(0xF)
001a92 6ae0      	ORI  R30,LOW(0xA0)
001a93 93e0 0074 	STS  116,R30
001a95 c113      	RJMP _0x2060016
                 _0x2060021:
001a96 c038      	RJMP _0x2060022
                 _0x2060020:
001a97 c111      	RJMP _0x2060016
                 _0x206001E:
001a98 35e0      	CPI  R30,LOW(0x50)
001a99 f431      	BRNE _0x2060023
001a9a 91e0 0073 	LDS  R30,115
001a9c 01da      	MOVW R26,R20
001a9d 93ec      	ST   X,R30
001a9e 5f1f      	SUBI R17,-LOW(1)
001a9f c002      	RJMP _0x2060024
                 _0x2060023:
001aa0 34e0      	CPI  R30,LOW(0x40)
001aa1 f489      	BRNE _0x2060025
                 _0x2060024:
001aa2 91e0 07a6 	LDS  R30,_bytes_to_rx_G103
001aa4 50e1      	SUBI R30,LOW(1)
001aa5 171e      	CP   R17,R30
001aa6 f028      	BRLO _0x2060026
001aa7 91e0 0074 	LDS  R30,116
001aa9 70ef      	ANDI R30,LOW(0xF)
001aaa 68e0      	ORI  R30,0x80
001aab c004      	RJMP _0x2060068
                 _0x2060026:
001aac 91e0 0074 	LDS  R30,116
001aae 70ef      	ANDI R30,LOW(0xF)
001aaf 6ce0      	ORI  R30,LOW(0xC0)
                 _0x2060068:
001ab0 93e0 0074 	STS  116,R30
001ab2 c0f6      	RJMP _0x2060016
                 _0x2060025:
001ab3 35e8      	CPI  R30,LOW(0x58)
001ab4 f431      	BRNE _0x2060028
001ab5 91e0 0073 	LDS  R30,115
001ab7 01da      	MOVW R26,R20
001ab8 93ec      	ST   X,R30
001ab9 5f1f      	SUBI R17,-LOW(1)
001aba c002      	RJMP _0x2060029
                 _0x2060028:
001abb 32e0      	CPI  R30,LOW(0x20)
001abc f409      	BRNE _0x206002A
                 _0x2060029:
001abd c002      	RJMP _0x206002B
                 _0x206002A:
001abe 33e0      	CPI  R30,LOW(0x30)
001abf f409      	BRNE _0x206002C
                 _0x206002B:
001ac0 c002      	RJMP _0x206002D
                 _0x206002C:
001ac1 34e8      	CPI  R30,LOW(0x48)
001ac2 f469      	BRNE _0x206002E
                 _0x206002D:
001ac3 3020      	CPI  R18,0
001ac4 f451      	BRNE _0x206002F
001ac5 fe23      	SBRS R2,3
001ac6 c003      	RJMP _0x2060030
001ac7 1703      	CP   R16,R19
001ac8 f028      	BRLO _0x2060032
001ac9 c005      	RJMP _0x2060033
                 _0x2060030:
001aca 91e0 07a6 	LDS  R30,_bytes_to_rx_G103
001acc 171e      	CP   R17,R30
001acd f408      	BRSH _0x2060034
                 _0x2060032:
001ace e024      	LDI  R18,LOW(4)
                 _0x2060034:
                 _0x2060033:
                 _0x206002F:
                 _0x2060022:
001acf c0d1      	RJMP _0x2060069
                 _0x206002E:
001ad0 33e8      	CPI  R30,LOW(0x38)
001ad1 f431      	BRNE _0x2060037
001ad2 e022      	LDI  R18,LOW(2)
001ad3 91e0 0074 	LDS  R30,116
001ad5 70ef      	ANDI R30,LOW(0xF)
001ad6 68e0      	ORI  R30,0x80
001ad7 c0cd      	RJMP _0x206006A
                 _0x2060037:
001ad8 36e8      	CPI  R30,LOW(0x68)
001ad9 f011      	BREQ _0x206003A
001ada 37e8      	CPI  R30,LOW(0x78)
001adb f411      	BRNE _0x206003B
                 _0x206003A:
001adc e022      	LDI  R18,LOW(2)
001add c005      	RJMP _0x206003C
                 _0x206003B:
001ade 36e0      	CPI  R30,LOW(0x60)
001adf f011      	BREQ _0x206003F
001ae0 37e0      	CPI  R30,LOW(0x70)
001ae1 f4a9      	BRNE _0x2060040
                 _0x206003F:
001ae2 e020      	LDI  R18,LOW(0)
                 _0x206003C:
001ae3 e010      	LDI  R17,LOW(0)
001ae4 94e8      	CLT
001ae5 f823      	BLD  R2,3
001ae6 91e0 07a7 	LDS  R30,_twi_rx_buffer_size_G103
001ae8 30e0      	CPI  R30,0
001ae9 f431      	BRNE _0x2060041
001aea e021      	LDI  R18,LOW(1)
001aeb 91e0 0074 	LDS  R30,116
001aed 70ef      	ANDI R30,LOW(0xF)
001aee 68e0      	ORI  R30,0x80
001aef c004      	RJMP _0x206006B
                 _0x2060041:
001af0 91e0 0074 	LDS  R30,116
001af2 70ef      	ANDI R30,LOW(0xF)
001af3 6ce0      	ORI  R30,LOW(0xC0)
                 _0x206006B:
001af4 93e0 0074 	STS  116,R30
001af6 c0b2      	RJMP _0x2060016
                 _0x2060040:
001af7 38e0      	CPI  R30,LOW(0x80)
001af8 f011      	BREQ _0x2060044
001af9 39e0      	CPI  R30,LOW(0x90)
001afa f541      	BRNE _0x2060045
                 _0x2060044:
001afb fe23      	SBRS R2,3
001afc c002      	RJMP _0x2060046
001afd e021      	LDI  R18,LOW(1)
001afe c0a2      	RJMP _0x2060047
                 _0x2060046:
001aff 91e0 0073 	LDS  R30,115
001b01 01da      	MOVW R26,R20
001b02 93ec      	ST   X,R30
001b03 5f1f      	SUBI R17,-LOW(1)
001b04 91e0 07a7 	LDS  R30,_twi_rx_buffer_size_G103
001b06 171e      	CP   R17,R30
001b07 f4c0      	BRSH _0x2060048
001b08 91e0 07a8 	LDS  R30,_twi_slave_rx_handler_G103
001b0a 91f0 07a9 	LDS  R31,_twi_slave_rx_handler_G103+1
001b0c 9730      	SBIW R30,0
001b0d f411      	BRNE _0x2060049
001b0e e026      	LDI  R18,LOW(6)
001b0f c091      	RJMP _0x2060047
                 _0x2060049:
001b10 e0a0      	LDI  R26,LOW(0)
                +
001b11 91e0 07a8+LDS R30 , _twi_slave_rx_handler_G103 + ( 0 )
001b13 91f0 07a9+LDS R31 , _twi_slave_rx_handler_G103 + ( 0 ) + 1
001b15 9509     +ICALL
                 	__CALL1MN _twi_slave_rx_handler_G103,0
001b16 30e0      	CPI  R30,0
001b17 f039      	BREQ _0x206004A
001b18 91e0 0074 	LDS  R30,116
001b1a 70ef      	ANDI R30,LOW(0xF)
001b1b 6ce0      	ORI  R30,LOW(0xC0)
001b1c 93e0 0074 	STS  116,R30
001b1e c08a      	RJMP _0x2060016
                 _0x206004A:
001b1f c002      	RJMP _0x206004B
                 _0x2060048:
001b20 9468      	SET
001b21 f823      	BLD  R2,3
                 _0x206004B:
001b22 c002      	RJMP _0x206004C
                 _0x2060045:
001b23 38e8      	CPI  R30,LOW(0x88)
001b24 f409      	BRNE _0x206004D
                 _0x206004C:
001b25 c002      	RJMP _0x206004E
                 _0x206004D:
001b26 39e8      	CPI  R30,LOW(0x98)
001b27 f439      	BRNE _0x206004F
                 _0x206004E:
001b28 91e0 0074 	LDS  R30,116
001b2a 70ef      	ANDI R30,LOW(0xF)
001b2b 68e0      	ORI  R30,0x80
001b2c 93e0 0074 	STS  116,R30
001b2e c07a      	RJMP _0x2060016
                 _0x206004F:
001b2f 3ae0      	CPI  R30,LOW(0xA0)
001b30 f4b9      	BRNE _0x2060050
001b31 91e0 0074 	LDS  R30,116
001b33 70ef      	ANDI R30,LOW(0xF)
001b34 6ce0      	ORI  R30,LOW(0xC0)
001b35 93e0 0074 	STS  116,R30
001b37 9468      	SET
001b38 f824      	BLD  R2,4
001b39 91e0 07a8 	LDS  R30,_twi_slave_rx_handler_G103
001b3b 91f0 07a9 	LDS  R31,_twi_slave_rx_handler_G103+1
001b3d 9730      	SBIW R30,0
001b3e f039      	BREQ _0x2060051
001b3f e0a1      	LDI  R26,LOW(1)
                +
001b40 91e0 07a8+LDS R30 , _twi_slave_rx_handler_G103 + ( 0 )
001b42 91f0 07a9+LDS R31 , _twi_slave_rx_handler_G103 + ( 0 ) + 1
001b44 9509     +ICALL
                 	__CALL1MN _twi_slave_rx_handler_G103,0
001b45 c001      	RJMP _0x2060052
                 _0x2060051:
001b46 e026      	LDI  R18,LOW(6)
                 _0x2060052:
001b47 c061      	RJMP _0x2060016
                 _0x2060050:
001b48 3be0      	CPI  R30,LOW(0xB0)
001b49 f411      	BRNE _0x2060053
001b4a e022      	LDI  R18,LOW(2)
001b4b c002      	RJMP _0x2060054
                 _0x2060053:
001b4c 3ae8      	CPI  R30,LOW(0xA8)
001b4d f4b9      	BRNE _0x2060055
                 _0x2060054:
001b4e 91e0 07aa 	LDS  R30,_twi_slave_tx_handler_G103
001b50 91f0 07ab 	LDS  R31,_twi_slave_tx_handler_G103+1
001b52 9730      	SBIW R30,0
001b53 f059      	BREQ _0x2060056
001b54 e0a0      	LDI  R26,LOW(0)
                +
001b55 91e0 07aa+LDS R30 , _twi_slave_tx_handler_G103 + ( 0 )
001b57 91f0 07ab+LDS R31 , _twi_slave_tx_handler_G103 + ( 0 ) + 1
001b59 9509     +ICALL
                 	__CALL1MN _twi_slave_tx_handler_G103,0
001b5a 2f3e      	MOV  R19,R30
001b5b 30e0      	CPI  R30,0
001b5c f011      	BREQ _0x2060058
001b5d e020      	LDI  R18,LOW(0)
001b5e c002      	RJMP _0x2060059
                 _0x2060056:
                 _0x2060058:
001b5f e026      	LDI  R18,LOW(6)
001b60 c040      	RJMP _0x2060047
                 _0x2060059:
001b61 e000      	LDI  R16,LOW(0)
001b62 94e8      	CLT
001b63 f823      	BLD  R2,3
001b64 c002      	RJMP _0x206005A
                 _0x2060055:
001b65 3be8      	CPI  R30,LOW(0xB8)
001b66 f501      	BRNE _0x206005B
                 _0x206005A:
001b67 fe23      	SBRS R2,3
001b68 c002      	RJMP _0x206005C
001b69 e021      	LDI  R18,LOW(1)
001b6a c036      	RJMP _0x2060047
                 _0x206005C:
001b6b 2fe0      	MOV  R30,R16
001b6c 5f0f      	SUBI R16,-1
001b6d 91a0 07a1 	LDS  R26,_twi_tx_buffer_G103
001b6f 91b0 07a2 	LDS  R27,_twi_tx_buffer_G103+1
001b71 e0f0      	LDI  R31,0
001b72 0fae      	ADD  R26,R30
001b73 1fbf      	ADC  R27,R31
001b74 91ec      	LD   R30,X
001b75 93e0 0073 	STS  115,R30
001b77 1703      	CP   R16,R19
001b78 f428      	BRSH _0x206005D
001b79 91e0 0074 	LDS  R30,116
001b7b 70ef      	ANDI R30,LOW(0xF)
001b7c 6ce0      	ORI  R30,LOW(0xC0)
001b7d c006      	RJMP _0x206006C
                 _0x206005D:
001b7e 9468      	SET
001b7f f823      	BLD  R2,3
001b80 91e0 0074 	LDS  R30,116
001b82 70ef      	ANDI R30,LOW(0xF)
001b83 68e0      	ORI  R30,0x80
                 _0x206006C:
001b84 93e0 0074 	STS  116,R30
001b86 c022      	RJMP _0x2060016
                 _0x206005B:
001b87 3ce0      	CPI  R30,LOW(0xC0)
001b88 f011      	BREQ _0x2060060
001b89 3ce8      	CPI  R30,LOW(0xC8)
001b8a f499      	BRNE _0x2060061
                 _0x2060060:
001b8b 91e0 0074 	LDS  R30,116
001b8d 70ef      	ANDI R30,LOW(0xF)
001b8e 6ce0      	ORI  R30,LOW(0xC0)
001b8f 93e0 0074 	STS  116,R30
001b91 91e0 07aa 	LDS  R30,_twi_slave_tx_handler_G103
001b93 91f0 07ab 	LDS  R31,_twi_slave_tx_handler_G103+1
001b95 9730      	SBIW R30,0
001b96 f031      	BREQ _0x2060062
001b97 e0a1      	LDI  R26,LOW(1)
                +
001b98 91e0 07aa+LDS R30 , _twi_slave_tx_handler_G103 + ( 0 )
001b9a 91f0 07ab+LDS R31 , _twi_slave_tx_handler_G103 + ( 0 ) + 1
001b9c 9509     +ICALL
                 	__CALL1MN _twi_slave_tx_handler_G103,0
                 _0x2060062:
001b9d c009      	RJMP _0x2060035
                 _0x2060061:
001b9e 30e0      	CPI  R30,0
001b9f f449      	BRNE _0x2060016
001ba0 e023      	LDI  R18,LOW(3)
                 _0x2060047:
                 _0x2060069:
001ba1 91e0 0074 	LDS  R30,116
001ba3 70ef      	ANDI R30,LOW(0xF)
001ba4 6de0      	ORI  R30,LOW(0xD0)
                 _0x206006A:
001ba5 93e0 0074 	STS  116,R30
                 _0x2060035:
001ba7 9468      	SET
001ba8 f824      	BLD  R2,4
                 _0x2060016:
001ba9 9310 0699 	STS  _twi_rx_index,R17
001bab 9300 0698 	STS  _twi_tx_index,R16
001bad 9320 069a 	STS  _twi_result,R18
001baf 9330 07a3 	STS  _bytes_to_tx_G103,R19
001bb1 940e 2264 	CALL __LOADLOCR6
001bb3 9626      	ADIW R28,6
001bb4 91e9      	LD   R30,Y+
001bb5 bfef      	OUT  SREG,R30
001bb6 91f9      	LD   R31,Y+
001bb7 91e9      	LD   R30,Y+
001bb8 91b9      	LD   R27,Y+
001bb9 91a9      	LD   R26,Y+
001bba 9199      	LD   R25,Y+
001bbb 9189      	LD   R24,Y+
001bbc 9179      	LD   R23,Y+
001bbd 9169      	LD   R22,Y+
001bbe 90f9      	LD   R15,Y+
001bbf 9019      	LD   R1,Y+
001bc0 9009      	LD   R0,Y+
001bc1 9518      	RETI
                 ; .FEND
                     .equ __lcd_direction=__lcd_port-1
                     .equ __lcd_pin=__lcd_port-2
                     .equ __lcd_rs=0
                     .equ __lcd_rd=1
                     .equ __lcd_enable=2
                     .equ __lcd_busy_flag=7
                 
                 	.DSEG
                 
                 	.CSEG
                 __lcd_delay_G104:
                 ; .FSTART __lcd_delay_G104
001bc2 e0ff          ldi   r31,15
                 __lcd_delay0:
001bc3 95fa          dec   r31
001bc4 f7f1          brne  __lcd_delay0
001bc5 9508      	RET
                 ; .FEND
                 __lcd_ready:
                 ; .FSTART __lcd_ready
001bc6 b3a4          in    r26,__lcd_direction
001bc7 70af          andi  r26,0xf                 ;set as input
001bc8 bba4          out   __lcd_direction,r26
001bc9 9aa9          sbi   __lcd_port,__lcd_rd     ;RD=1
001bca 98a8          cbi   __lcd_port,__lcd_rs     ;RS=0
                 __lcd_busy:
001bcb dff6      	RCALL __lcd_delay_G104
001bcc 9aaa          sbi   __lcd_port,__lcd_enable ;EN=1
001bcd dff4      	RCALL __lcd_delay_G104
001bce b3a3          in    r26,__lcd_pin
001bcf 98aa          cbi   __lcd_port,__lcd_enable ;EN=0
001bd0 dff1      	RCALL __lcd_delay_G104
001bd1 9aaa          sbi   __lcd_port,__lcd_enable ;EN=1
001bd2 dfef      	RCALL __lcd_delay_G104
001bd3 98aa          cbi   __lcd_port,__lcd_enable ;EN=0
001bd4 fda7          sbrc  r26,__lcd_busy_flag
001bd5 cff5          rjmp  __lcd_busy
001bd6 9508      	RET
                 ; .FEND
                 __lcd_write_nibble_G104:
                 ; .FSTART __lcd_write_nibble_G104
001bd7 7fa0          andi  r26,0xf0
001bd8 2bab          or    r26,r27
001bd9 bba5          out   __lcd_port,r26          ;write
001bda 9aaa          sbi   __lcd_port,__lcd_enable ;EN=1
001bdb 940e 1bc2 	CALL __lcd_delay_G104
001bdd 98aa          cbi   __lcd_port,__lcd_enable ;EN=0
001bde 940e 1bc2 	CALL __lcd_delay_G104
001be0 9508      	RET
                 ; .FEND
                 __lcd_write_data:
                 ; .FSTART __lcd_write_data
001be1 93aa      	ST   -Y,R26
001be2 98a9          cbi  __lcd_port,__lcd_rd 	  ;RD=0
001be3 b3a4          in    r26,__lcd_direction
001be4 6fa7          ori   r26,0xf0 | (1<<__lcd_rs) | (1<<__lcd_rd) | (1<<__lcd_enable) ;set as output
001be5 bba4          out   __lcd_direction,r26
001be6 b3b5          in    r27,__lcd_port
001be7 70bf          andi  r27,0xf
001be8 81a8          ld    r26,y
001be9 dfed      	RCALL __lcd_write_nibble_G104
001bea 81a8          ld    r26,y
001beb 95a2          swap  r26
001bec dfea      	RCALL __lcd_write_nibble_G104
001bed 9aa9          sbi   __lcd_port,__lcd_rd     ;RD=1
001bee 940c 1cb7 	JMP  _0x20E0001
                 ; .FEND
                 __lcd_read_nibble_G104:
                 ; .FSTART __lcd_read_nibble_G104
001bf0 9aaa          sbi   __lcd_port,__lcd_enable ;EN=1
001bf1 940e 1bc2 	CALL __lcd_delay_G104
001bf3 b3e3          in    r30,__lcd_pin           ;read
001bf4 98aa          cbi   __lcd_port,__lcd_enable ;EN=0
001bf5 940e 1bc2 	CALL __lcd_delay_G104
001bf7 7fe0          andi  r30,0xf0
001bf8 9508      	RET
                 ; .FEND
                 _lcd_read_byte0_G104:
                 ; .FSTART _lcd_read_byte0_G104
001bf9 940e 1bc2 	CALL __lcd_delay_G104
001bfb dff4      	RCALL __lcd_read_nibble_G104
001bfc 2fae          mov   r26,r30
001bfd dff2      	RCALL __lcd_read_nibble_G104
001bfe 98a9          cbi   __lcd_port,__lcd_rd     ;RD=0
001bff 95e2          swap  r30
001c00 2bea          or    r30,r26
001c01 9508      	RET
                 ; .FEND
                 _lcd_gotoxy:
                 ; .FSTART _lcd_gotoxy
001c02 93aa      	ST   -Y,R26
001c03 940e 1bc6 	CALL __lcd_ready
001c05 81e8      	LD   R30,Y
001c06 e0f0      	LDI  R31,0
001c07 55e4      	SUBI R30,LOW(-__base_y_G104)
001c08 4ff8      	SBCI R31,HIGH(-__base_y_G104)
001c09 81e0      	LD   R30,Z
001c0a 81a9      	LDD  R26,Y+1
001c0b 0fae      	ADD  R26,R30
001c0c 940e 1be1 	CALL __lcd_write_data
001c0e 81e9      	LDD  R30,Y+1
001c0f 93e0 07b0 	STS  __lcd_x,R30
001c11 81e8      	LD   R30,Y
001c12 93e0 07b1 	STS  __lcd_y,R30
001c14 9622      	ADIW R28,2
001c15 9508      	RET
                 ; .FEND
                 _lcd_clear:
                 ; .FSTART _lcd_clear
001c16 940e 1bc6 	CALL __lcd_ready
001c18 e0a2      	LDI  R26,LOW(2)
001c19 940e 1be1 	CALL __lcd_write_data
001c1b 940e 1bc6 	CALL __lcd_ready
001c1d e0ac      	LDI  R26,LOW(12)
001c1e 940e 1be1 	CALL __lcd_write_data
001c20 940e 1bc6 	CALL __lcd_ready
001c22 e0a1      	LDI  R26,LOW(1)
001c23 940e 1be1 	CALL __lcd_write_data
001c25 e0e0      	LDI  R30,LOW(0)
001c26 93e0 07b1 	STS  __lcd_y,R30
001c28 93e0 07b0 	STS  __lcd_x,R30
001c2a 9508      	RET
                 ; .FEND
                 _lcd_putchar:
                 ; .FSTART _lcd_putchar
001c2b 93aa      	ST   -Y,R26
001c2c 93ef          push r30
001c2d 93ff          push r31
001c2e 81a8          ld   r26,y
001c2f 9468          set
001c30 30aa          cpi  r26,10
001c31 f039          breq __lcd_putchar1
001c32 94e8          clt
001c33 91e0 07b2 	LDS  R30,__lcd_maxx
001c35 91a0 07b0 	LDS  R26,__lcd_x
001c37 17ae      	CP   R26,R30
001c38 f058      	BRLO _0x2080004
                 	__lcd_putchar1:
001c39 91e0 07b1 	LDS  R30,__lcd_y
001c3b 5fef      	SUBI R30,-LOW(1)
001c3c 93e0 07b1 	STS  __lcd_y,R30
001c3e e0e0      	LDI  R30,LOW(0)
001c3f 93ea      	ST   -Y,R30
001c40 91a0 07b1 	LDS  R26,__lcd_y
001c42 dfbf      	RCALL _lcd_gotoxy
001c43 f056      	brts __lcd_putchar0
                 _0x2080004:
001c44 91e0 07b0 	LDS  R30,__lcd_x
001c46 5fef      	SUBI R30,-LOW(1)
001c47 93e0 07b0 	STS  __lcd_x,R30
001c49 df7c          rcall __lcd_ready
001c4a 9aa8          sbi  __lcd_port,__lcd_rs ;RS=1
001c4b 81a8      	LD   R26,Y
001c4c 940e 1be1 	CALL __lcd_write_data
                 __lcd_putchar0:
001c4e 91ff          pop  r31
001c4f 91ef          pop  r30
001c50 940c 1cb7 	JMP  _0x20E0001
                 ; .FEND
                 _lcd_puts:
                 ; .FSTART _lcd_puts
001c52 93ba      	ST   -Y,R27
001c53 93aa      	ST   -Y,R26
001c54 931a      	ST   -Y,R17
                 _0x2080005:
001c55 81a9      	LDD  R26,Y+1
001c56 81ba      	LDD  R27,Y+1+1
001c57 91ed      	LD   R30,X+
001c58 83a9      	STD  Y+1,R26
001c59 83ba      	STD  Y+1+1,R27
001c5a 2f1e      	MOV  R17,R30
001c5b 30e0      	CPI  R30,0
001c5c f019      	BREQ _0x2080007
001c5d 2fa1      	MOV  R26,R17
001c5e dfcc      	RCALL _lcd_putchar
001c5f cff5      	RJMP _0x2080005
                 _0x2080007:
001c60 c010      	RJMP _0x20E0002
                 ; .FEND
                 _lcd_putsf:
                 ; .FSTART _lcd_putsf
001c61 93ba      	ST   -Y,R27
001c62 93aa      	ST   -Y,R26
001c63 931a      	ST   -Y,R17
                 _0x2080008:
001c64 81e9      	LDD  R30,Y+1
001c65 81fa      	LDD  R31,Y+1+1
001c66 9631      	ADIW R30,1
001c67 83e9      	STD  Y+1,R30
001c68 83fa      	STD  Y+1+1,R31
001c69 9731      	SBIW R30,1
001c6a 91e4      	LPM  R30,Z
001c6b 2f1e      	MOV  R17,R30
001c6c 30e0      	CPI  R30,0
001c6d f019      	BREQ _0x208000A
001c6e 2fa1      	MOV  R26,R17
001c6f dfbb      	RCALL _lcd_putchar
001c70 cff3      	RJMP _0x2080008
                 _0x208000A:
                 _0x20E0002:
001c71 8118      	LDD  R17,Y+0
001c72 9623      	ADIW R28,3
001c73 9508      	RET
                 ; .FEND
                 __long_delay_G104:
                 ; .FSTART __long_delay_G104
001c74 27aa          clr   r26
001c75 27bb          clr   r27
                 __long_delay0:
001c76 9711          sbiw  r26,1         ;2 cycles
001c77 f7f1          brne  __long_delay0 ;2 cycles
001c78 9508      	RET
                 ; .FEND
                 __lcd_init_write_G104:
                 ; .FSTART __lcd_init_write_G104
001c79 93aa      	ST   -Y,R26
001c7a 98a9          cbi  __lcd_port,__lcd_rd 	  ;RD=0
001c7b b3a4          in    r26,__lcd_direction
001c7c 6fa7          ori   r26,0xf7                ;set as output
001c7d bba4          out   __lcd_direction,r26
001c7e b3b5          in    r27,__lcd_port
001c7f 70bf          andi  r27,0xf
001c80 81a8          ld    r26,y
001c81 940e 1bd7 	CALL __lcd_write_nibble_G104
001c83 9aa9          sbi   __lcd_port,__lcd_rd     ;RD=1
001c84 c032      	RJMP _0x20E0001
                 ; .FEND
                 _lcd_init:
                 ; .FSTART _lcd_init
001c85 93aa      	ST   -Y,R26
001c86 98aa          cbi   __lcd_port,__lcd_enable ;EN=0
001c87 98a8          cbi   __lcd_port,__lcd_rs     ;RS=0
001c88 81e8      	LD   R30,Y
001c89 93e0 07b2 	STS  __lcd_maxx,R30
001c8b 58e0      	SUBI R30,-LOW(128)
                +
001c8c 93e0 07ae+STS __base_y_G104 + ( 2 ) , R30
                 	__PUTB1MN __base_y_G104,2
001c8e 81e8      	LD   R30,Y
001c8f 54e0      	SUBI R30,-LOW(192)
                +
001c90 93e0 07af+STS __base_y_G104 + ( 3 ) , R30
                 	__PUTB1MN __base_y_G104,3
001c92 940e 2088 	CALL SUBOPT_0x88
001c94 940e 2088 	CALL SUBOPT_0x88
001c96 940e 2088 	CALL SUBOPT_0x88
001c98 dfdb      	RCALL __long_delay_G104
001c99 e2a0      	LDI  R26,LOW(32)
001c9a dfde      	RCALL __lcd_init_write_G104
001c9b dfd8      	RCALL __long_delay_G104
001c9c e2a8      	LDI  R26,LOW(40)
001c9d 940e 208d 	CALL SUBOPT_0x89
001c9f e0a4      	LDI  R26,LOW(4)
001ca0 940e 208d 	CALL SUBOPT_0x89
001ca2 e8a5      	LDI  R26,LOW(133)
001ca3 940e 208d 	CALL SUBOPT_0x89
001ca5 b3a4          in    r26,__lcd_direction
001ca6 70af          andi  r26,0xf                 ;set as input
001ca7 bba4          out   __lcd_direction,r26
001ca8 9aa9          sbi   __lcd_port,__lcd_rd     ;RD=1
001ca9 940e 1bf9 	CALL _lcd_read_byte0_G104
001cab 30e5      	CPI  R30,LOW(0x5)
001cac f011      	BREQ _0x208000B
001cad e0e0      	LDI  R30,LOW(0)
001cae c008      	RJMP _0x20E0001
                 _0x208000B:
001caf 940e 1bc6 	CALL __lcd_ready
001cb1 e0a6      	LDI  R26,LOW(6)
001cb2 940e 1be1 	CALL __lcd_write_data
001cb4 940e 1c16 	CALL _lcd_clear
001cb6 e0e1      	LDI  R30,LOW(1)
                 _0x20E0001:
001cb7 9621      	ADIW R28,1
001cb8 9508      	RET
                 ; .FEND
                 
                 	.CSEG
                 
                 	.CSEG
                 
                 	.DSEG
                 _twi_tx_index:
000698           	.BYTE 0x1
                 _twi_rx_index:
000699           	.BYTE 0x1
                 _twi_result:
00069a           	.BYTE 0x1
                 _strTemp:
00069b           	.BYTE 0x11
                 _engine_dir:
0006ac           	.BYTE 0x2
                 _wiicamobject1:
0006ae           	.BYTE 0x2
                 _wiicamobject2:
0006b0           	.BYTE 0x2
                 _str:
0006b2           	.BYTE 0x11
                 _currstate:
0006c3           	.BYTE 0x2
                 _state:
0006c5           	.BYTE 0x2
                 _line_left:
0006c7           	.BYTE 0x2
                 _line_mleft:
0006c9           	.BYTE 0x2
                 _line_mright:
0006cb           	.BYTE 0x2
                 _line_right:
0006cd           	.BYTE 0x2
                 _dist_left:
0006cf           	.BYTE 0x2
                 _dist_fleft:
0006d1           	.BYTE 0x2
                 _dist_fright:
0006d3           	.BYTE 0x2
                 _dist_right:
0006d5           	.BYTE 0x2
                 _linesensorvaluetemp:
0006d7           	.BYTE 0x2
                 _distanzsensorvaluetemp:
0006d9           	.BYTE 0x2
                 _ipwmcounter:
0006db           	.BYTE 0x2
                 _ipwmcompareleft:
0006dd           	.BYTE 0x2
                 _ipwmcompareright:
0006df           	.BYTE 0x2
                 _tmr_wiipwm:
0006e1           	.BYTE 0x2
                 _Wiipwmleft:
0006e3           	.BYTE 0x2
                 _Wiipwmright:
0006e5           	.BYTE 0x2
                 _rc5_time:
0006e7           	.BYTE 0x1
                 _rc5_data:
0006e8           	.BYTE 0x2
                 _tmp:
0006ea           	.BYTE 0x2
                 _ucToggle:
0006ec           	.BYTE 0x1
                 _ucAdress:
0006ed           	.BYTE 0x1
                 _ucData:
0006ee           	.BYTE 0x1
                 _s:
0006ef           	.BYTE 0x11
                 _i:
000700           	.BYTE 0x1
                 _iTemp:
000701           	.BYTE 0x2
                 _rx_buffer:
000703           	.BYTE 0x12
                 _tx_buffer:
000715           	.BYTE 0x12
                 _strULTRA:
000727           	.BYTE 0x11
                 _iRisingEdge:
000738           	.BYTE 0x2
                 _iFallingEdge:
00073a           	.BYTE 0x2
                 _iTime:
00073c           	.BYTE 0x2
                 _icr3:
00073e           	.BYTE 0x2
                 _data:
000740           	.BYTE 0x20
                 _Wert:
000760           	.BYTE 0x5
                 _x:
000765           	.BYTE 0x8
                 _y:
00076d           	.BYTE 0x8
                 _sWIICAM:
000775           	.BYTE 0x4
                 _temp:
000779           	.BYTE 0x2
                 _adc_data:
00077b           	.BYTE 0xC
                 _input_index_S0000000000:
000787           	.BYTE 0x1
                 _wheelEncoderCounter_left:
000788           	.BYTE 0x2
                 _wheelEncoderCounter_right:
00078a           	.BYTE 0x2
                 _newvalL:
00078c           	.BYTE 0x4
                 _newvalR:
000790           	.BYTE 0x4
                 _tmr_line:
000794           	.BYTE 0x2
                 _val_L_linesearch:
000796           	.BYTE 0x2
                 _detector_value:
000798           	.BYTE 0x2
                 _detector_value_line:
00079a           	.BYTE 0x2
                 __seed_G100:
00079c           	.BYTE 0x4
                 _slave_address_G103:
0007a0           	.BYTE 0x1
                 _twi_tx_buffer_G103:
0007a1           	.BYTE 0x2
                 _bytes_to_tx_G103:
0007a3           	.BYTE 0x1
                 _twi_rx_buffer_G103:
0007a4           	.BYTE 0x2
                 _bytes_to_rx_G103:
0007a6           	.BYTE 0x1
                 _twi_rx_buffer_size_G103:
0007a7           	.BYTE 0x1
                 _twi_slave_rx_handler_G103:
0007a8           	.BYTE 0x2
                 _twi_slave_tx_handler_G103:
0007aa           	.BYTE 0x2
                 __base_y_G104:
0007ac           	.BYTE 0x4
                 __lcd_x:
0007b0           	.BYTE 0x1
                 __lcd_y:
0007b1           	.BYTE 0x1
                 __lcd_maxx:
0007b2           	.BYTE 0x1
                 
                 	.CSEG
                 ;OPTIMIZER ADDED SUBROUTINE, CALLED 4 TIMES, CODE SIZE REDUCTION:9 WORDS
                 SUBOPT_0x0:
001cb9 93aa      	ST   -Y,R26
001cba 93ba      	ST   -Y,R27
001cbb 93ea      	ST   -Y,R30
001cbc 93fa      	ST   -Y,R31
001cbd b7ef      	IN   R30,SREG
001cbe 93ea      	ST   -Y,R30
001cbf 9508      	RET
                 
                 ;OPTIMIZER ADDED SUBROUTINE, CALLED 26 TIMES, CODE SIZE REDUCTION:47 WORDS
                 SUBOPT_0x1:
001cc0 91a0 078a 	LDS  R26,_wheelEncoderCounter_right
001cc2 91b0 078b 	LDS  R27,_wheelEncoderCounter_right+1
001cc4 9508      	RET
                 
                 ;OPTIMIZER ADDED SUBROUTINE, CALLED 6 TIMES, CODE SIZE REDUCTION:12 WORDS
                 SUBOPT_0x2:
001cc5 91ed      	LD   R30,X+
001cc6 91fd      	LD   R31,X+
001cc7 9631      	ADIW R30,1
001cc8 93fe      	ST   -X,R31
001cc9 93ee      	ST   -X,R30
001cca 9508      	RET
                 
                 ;OPTIMIZER ADDED SUBROUTINE, CALLED 16 TIMES, CODE SIZE REDUCTION:42 WORDS
                 SUBOPT_0x3:
001ccb e0e0      	LDI  R30,LOW(0)
001ccc 93e0 078a 	STS  _wheelEncoderCounter_right,R30
001cce 93e0 078b 	STS  _wheelEncoderCounter_right+1,R30
001cd0 9508      	RET
                 
                 ;OPTIMIZER ADDED SUBROUTINE, CALLED 3 TIMES, CODE SIZE REDUCTION:1 WORDS
                 SUBOPT_0x4:
001cd1 91a0 0788 	LDS  R26,_wheelEncoderCounter_left
001cd3 91b0 0789 	LDS  R27,_wheelEncoderCounter_left+1
001cd5 9508      	RET
                 
                 ;OPTIMIZER ADDED SUBROUTINE, CALLED 14 TIMES, CODE SIZE REDUCTION:36 WORDS
                 SUBOPT_0x5:
001cd6 e0e0      	LDI  R30,LOW(0)
001cd7 93e0 0788 	STS  _wheelEncoderCounter_left,R30
001cd9 93e0 0789 	STS  _wheelEncoderCounter_left+1,R30
001cdb 9508      	RET
                 
                 ;OPTIMIZER ADDED SUBROUTINE, CALLED 3 TIMES, CODE SIZE REDUCTION:1 WORDS
                 SUBOPT_0x6:
001cdc 91a0 06db 	LDS  R26,_ipwmcounter
001cde 91b0 06dc 	LDS  R27,_ipwmcounter+1
001ce0 9508      	RET
                 
                 ;OPTIMIZER ADDED SUBROUTINE, CALLED 2 TIMES, CODE SIZE REDUCTION:3 WORDS
                 SUBOPT_0x7:
001ce1 91a0 078c 	LDS  R26,_newvalL
001ce3 91b0 078d 	LDS  R27,_newvalL+1
001ce5 9180 078e 	LDS  R24,_newvalL+2
001ce7 9190 078f 	LDS  R25,_newvalL+3
001ce9 9508      	RET
                 
                 ;OPTIMIZER ADDED SUBROUTINE, CALLED 2 TIMES, CODE SIZE REDUCTION:2 WORDS
                 SUBOPT_0x8:
                +
001cea 3faf     +CPI R26 , LOW ( 0xFF )
001ceb e0e0     +LDI R30 , HIGH ( 0xFF )
001cec 07be     +CPC R27 , R30
001ced e0e0     +LDI R30 , BYTE3 ( 0xFF )
001cee 078e     +CPC R24 , R30
001cef e0e0     +LDI R30 , BYTE4 ( 0xFF )
001cf0 079e     +CPC R25 , R30
                 	__CPD2N 0xFF
001cf1 9508      	RET
                 
                 ;OPTIMIZER ADDED SUBROUTINE, CALLED 2 TIMES, CODE SIZE REDUCTION:2 WORDS
                 SUBOPT_0x9:
                +
001cf2 30a0     +CPI R26 , LOW ( 0x0 )
001cf3 e0e0     +LDI R30 , HIGH ( 0x0 )
001cf4 07be     +CPC R27 , R30
001cf5 e0e0     +LDI R30 , BYTE3 ( 0x0 )
001cf6 078e     +CPC R24 , R30
001cf7 e0e0     +LDI R30 , BYTE4 ( 0x0 )
001cf8 079e     +CPC R25 , R30
                 	__CPD2N 0x0
001cf9 9508      	RET
                 
                 ;OPTIMIZER ADDED SUBROUTINE, CALLED 2 TIMES, CODE SIZE REDUCTION:3 WORDS
                 SUBOPT_0xA:
001cfa 91a0 0790 	LDS  R26,_newvalR
001cfc 91b0 0791 	LDS  R27,_newvalR+1
001cfe 9180 0792 	LDS  R24,_newvalR+2
001d00 9190 0793 	LDS  R25,_newvalR+3
001d02 9508      	RET
                 
                 ;OPTIMIZER ADDED SUBROUTINE, CALLED 2 TIMES, CODE SIZE REDUCTION:3 WORDS
                 SUBOPT_0xB:
                +
001d03 91a0 077d+LDS R26 , _adc_data + ( 2 )
001d05 91b0 077e+LDS R27 , _adc_data + ( 2 ) + 1
                 	__GETW2MN _adc_data,2
001d07 e0e5      	LDI  R30,LOW(5)
001d08 e0f0      	LDI  R31,HIGH(5)
001d09 940e 2234 	CALL __DIVW21U
001d0b 9508      	RET
                 
                 ;OPTIMIZER ADDED SUBROUTINE, CALLED 2 TIMES, CODE SIZE REDUCTION:3 WORDS
                 SUBOPT_0xC:
                +
001d0c 91a0 0781+LDS R26 , _adc_data + ( 6 )
001d0e 91b0 0782+LDS R27 , _adc_data + ( 6 ) + 1
                 	__GETW2MN _adc_data,6
001d10 e0e5      	LDI  R30,LOW(5)
001d11 e0f0      	LDI  R31,HIGH(5)
001d12 940e 2234 	CALL __DIVW21U
001d14 9508      	RET
                 
                 ;OPTIMIZER ADDED SUBROUTINE, CALLED 5 TIMES, CODE SIZE REDUCTION:5 WORDS
                 SUBOPT_0xD:
001d15 93e0 06dd 	STS  _ipwmcompareleft,R30
001d17 93f0 06de 	STS  _ipwmcompareleft+1,R31
001d19 9508      	RET
                 
                 ;OPTIMIZER ADDED SUBROUTINE, CALLED 5 TIMES, CODE SIZE REDUCTION:5 WORDS
                 SUBOPT_0xE:
001d1a 93e0 06df 	STS  _ipwmcompareright,R30
001d1c 93f0 06e0 	STS  _ipwmcompareright+1,R31
001d1e 9508      	RET
                 
                 ;OPTIMIZER ADDED SUBROUTINE, CALLED 4 TIMES, CODE SIZE REDUCTION:3 WORDS
                 SUBOPT_0xF:
001d1f 91e0 06ea 	LDS  R30,_tmp
001d21 91f0 06eb 	LDS  R31,_tmp+1
001d23 9508      	RET
                 
                 ;OPTIMIZER ADDED SUBROUTINE, CALLED 6 TIMES, CODE SIZE REDUCTION:22 WORDS
                 SUBOPT_0x10:
001d24 940e 1c52 	CALL _lcd_puts
001d26 e0e0      	LDI  R30,LOW(0)
001d27 93ea      	ST   -Y,R30
001d28 e0a1      	LDI  R26,LOW(1)
001d29 940c 1c02 	JMP  _lcd_gotoxy
                 
                 ;OPTIMIZER ADDED SUBROUTINE, CALLED 2 TIMES, CODE SIZE REDUCTION:6 WORDS
                 SUBOPT_0x11:
001d2b e0f0      	LDI  R31,0
001d2c 93fa      	ST   -Y,R31
001d2d 93ea      	ST   -Y,R30
001d2e eeaf      	LDI  R26,LOW(_s)
001d2f e0b6      	LDI  R27,HIGH(_s)
001d30 940e 19dc 	CALL _itoa
001d32 eeaf      	LDI  R26,LOW(_s)
001d33 e0b6      	LDI  R27,HIGH(_s)
001d34 940c 1c52 	JMP  _lcd_puts
                 
                 ;OPTIMIZER ADDED SUBROUTINE, CALLED 12 TIMES, CODE SIZE REDUCTION:19 WORDS
                 SUBOPT_0x12:
001d36 93e0 06c5 	STS  _state,R30
001d38 93f0 06c6 	STS  _state+1,R31
001d3a 9508      	RET
                 
                 ;OPTIMIZER ADDED SUBROUTINE, CALLED 2 TIMES, CODE SIZE REDUCTION:1 WORDS
                 SUBOPT_0x13:
001d3b e6a4      	LDI  R26,LOW(100)
001d3c e0b0      	LDI  R27,HIGH(100)
001d3d 940e 222f 	CALL __MULW12
                +
001d3f 0f6e     +ADD R22 , R30
001d40 1f7f     +ADC R23 , R31
                 	__ADDWRR 22,23,30,31
001d41 9508      	RET
                 
                 ;OPTIMIZER ADDED SUBROUTINE, CALLED 2 TIMES, CODE SIZE REDUCTION:1 WORDS
                 SUBOPT_0x14:
001d42 e0aa      	LDI  R26,LOW(10)
001d43 e0b0      	LDI  R27,HIGH(10)
001d44 940e 222f 	CALL __MULW12
001d46 0fe6      	ADD  R30,R22
001d47 1ff7      	ADC  R31,R23
001d48 9508      	RET
                 
                 ;OPTIMIZER ADDED SUBROUTINE, CALLED 3 TIMES, CODE SIZE REDUCTION:1 WORDS
                 SUBOPT_0x15:
001d49 0fee      	LSL  R30
001d4a 1fff      	ROL  R31
001d4b 0fea      	ADD  R30,R26
001d4c 1ffb      	ADC  R31,R27
001d4d 9508      	RET
                 
                 ;OPTIMIZER ADDED SUBROUTINE, CALLED 5 TIMES, CODE SIZE REDUCTION:9 WORDS
                 SUBOPT_0x16:
001d4e 01f8      	MOVW R30,R16
001d4f e0a3      	LDI  R26,LOW(3)
001d50 e0b0      	LDI  R27,HIGH(3)
001d51 940e 222f 	CALL __MULW12
001d53 9508      	RET
                 
                 ;OPTIMIZER ADDED SUBROUTINE, CALLED 2 TIMES, CODE SIZE REDUCTION:2 WORDS
                 SUBOPT_0x17:
001d54 01df      	MOVW R26,R30
001d55 0faa      	LSL  R26
001d56 1fbb      	ROL  R27
                +
001d57 5baa     +SUBI R26 , LOW ( - _data - ( 6 ) )
001d58 4fb8     +SBCI R27 , HIGH ( - _data - ( 6 ) )
                 	__ADDW2MN _data,6
001d59 940e 2255 	CALL __GETW1P
001d5b 9508      	RET
                 
                 ;OPTIMIZER ADDED SUBROUTINE, CALLED 2 TIMES, CODE SIZE REDUCTION:6 WORDS
                 SUBOPT_0x18:
001d5c 940e 2255 	CALL __GETW1P
001d5e 91a0 0779 	LDS  R26,_temp
001d60 91b0 077a 	LDS  R27,_temp+1
001d62 0fea      	ADD  R30,R26
001d63 1ffb      	ADC  R31,R27
001d64 01db      	MOVW R26,R22
001d65 93ed      	ST   X+,R30
001d66 93fc      	ST   X,R31
001d67 9508      	RET
                 
                 ;OPTIMIZER ADDED SUBROUTINE, CALLED 16 TIMES, CODE SIZE REDUCTION:42 WORDS
                 SUBOPT_0x19:
001d68 e0e0      	LDI  R30,LOW(0)
001d69 93ea      	ST   -Y,R30
001d6a e0a1      	LDI  R26,LOW(1)
001d6b 940c 1c02 	JMP  _lcd_gotoxy
                 
                 ;OPTIMIZER ADDED SUBROUTINE, CALLED 2 TIMES, CODE SIZE REDUCTION:10 WORDS
                 SUBOPT_0x1A:
001d6d e6e4      	LDI  R30,LOW(100)
001d6e e0f0      	LDI  R31,HIGH(100)
001d6f dfa5      	RCALL SUBOPT_0xD
001d70 e6e4      	LDI  R30,LOW(100)
001d71 e0f0      	LDI  R31,HIGH(100)
001d72 dfa7      	RCALL SUBOPT_0xE
001d73 940e 1c16 	CALL _lcd_clear
001d75 91e0 06ac 	LDS  R30,_engine_dir
001d77 91f0 06ad 	LDS  R31,_engine_dir+1
001d79 9730      	SBIW R30,0
001d7a 9508      	RET
                 
                 ;OPTIMIZER ADDED SUBROUTINE, CALLED 2 TIMES, CODE SIZE REDUCTION:11 WORDS
                 SUBOPT_0x1B:
001d7b 940e 1c52 	CALL _lcd_puts
001d7d 91e0 0788 	LDS  R30,_wheelEncoderCounter_left
001d7f 91f0 0789 	LDS  R31,_wheelEncoderCounter_left+1
001d81 93fa      	ST   -Y,R31
001d82 93ea      	ST   -Y,R30
001d83 01de      	MOVW R26,R28
001d84 9612      	ADIW R26,2
001d85 940e 19dc 	CALL _itoa
001d87 01de      	MOVW R26,R28
001d88 940c 1c52 	JMP  _lcd_puts
                 
                 ;OPTIMIZER ADDED SUBROUTINE, CALLED 2 TIMES, CODE SIZE REDUCTION:11 WORDS
                 SUBOPT_0x1C:
001d8a 940e 1c52 	CALL _lcd_puts
001d8c 91e0 078a 	LDS  R30,_wheelEncoderCounter_right
001d8e 91f0 078b 	LDS  R31,_wheelEncoderCounter_right+1
001d90 93fa      	ST   -Y,R31
001d91 93ea      	ST   -Y,R30
001d92 01de      	MOVW R26,R28
001d93 9612      	ADIW R26,2
001d94 940e 19dc 	CALL _itoa
001d96 01de      	MOVW R26,R28
001d97 940c 1c52 	JMP  _lcd_puts
                 
                 ;OPTIMIZER ADDED SUBROUTINE, CALLED 2 TIMES, CODE SIZE REDUCTION:10 WORDS
                 SUBOPT_0x1D:
001d99 efaa      	LDI  R26,LOW(250)
001d9a e0b0      	LDI  R27,0
001d9b 940e 20e2 	CALL _delay_ms
001d9d 91e0 06ac 	LDS  R30,_engine_dir
001d9f 91f0 06ad 	LDS  R31,_engine_dir+1
001da1 940e 2222 	CALL __LNEGW1
001da3 e0f0      	LDI  R31,0
001da4 93e0 06ac 	STS  _engine_dir,R30
001da6 93f0 06ad 	STS  _engine_dir+1,R31
001da8 9508      	RET
                 
                 ;OPTIMIZER ADDED SUBROUTINE, CALLED 2 TIMES, CODE SIZE REDUCTION:1 WORDS
                 SUBOPT_0x1E:
001da9 01de      	MOVW R26,R28
001daa 9616      	ADIW R26,6
001dab 940e 19dc 	CALL _itoa
001dad 01de      	MOVW R26,R28
001dae 9614      	ADIW R26,4
001daf 9508      	RET
                 
                 ;OPTIMIZER ADDED SUBROUTINE, CALLED 7 TIMES, CODE SIZE REDUCTION:45 WORDS
                 SUBOPT_0x1F:
001db0 2fe1      	MOV  R30,R17
001db1 e6a5      	LDI  R26,LOW(_x)
001db2 e0b7      	LDI  R27,HIGH(_x)
001db3 e0f0      	LDI  R31,0
001db4 0fee      	LSL  R30
001db5 1fff      	ROL  R31
001db6 0fae      	ADD  R26,R30
001db7 1fbf      	ADC  R27,R31
001db8 940e 2255 	CALL __GETW1P
001dba 9508      	RET
                 
                 ;OPTIMIZER ADDED SUBROUTINE, CALLED 5 TIMES, CODE SIZE REDUCTION:29 WORDS
                 SUBOPT_0x20:
001dbb 2fe1      	MOV  R30,R17
001dbc e6ad      	LDI  R26,LOW(_y)
001dbd e0b7      	LDI  R27,HIGH(_y)
001dbe e0f0      	LDI  R31,0
001dbf 0fee      	LSL  R30
001dc0 1fff      	ROL  R31
001dc1 0fae      	ADD  R26,R30
001dc2 1fbf      	ADC  R27,R31
001dc3 940e 2255 	CALL __GETW1P
001dc5 9508      	RET
                 
                 ;OPTIMIZER ADDED SUBROUTINE, CALLED 2 TIMES, CODE SIZE REDUCTION:3 WORDS
                 SUBOPT_0x21:
001dc6 50e0      	SUBI R30,LOW(512)
001dc7 40f2      	SBCI R31,HIGH(512)
001dc8 93fa      	ST   -Y,R31
001dc9 93ea      	ST   -Y,R30
001dca e6a0      	LDI  R26,LOW(_Wert)
001dcb e0b7      	LDI  R27,HIGH(_Wert)
001dcc 940c 19dc 	JMP  _itoa
                 
                 ;OPTIMIZER ADDED SUBROUTINE, CALLED 3 TIMES, CODE SIZE REDUCTION:7 WORDS
                 SUBOPT_0x22:
001dce e0a0      	LDI  R26,LOW(0)
001dcf 940e 1c02 	CALL _lcd_gotoxy
001dd1 e6a0      	LDI  R26,LOW(_Wert)
001dd2 e0b7      	LDI  R27,HIGH(_Wert)
001dd3 940c 1c52 	JMP  _lcd_puts
                 
                 ;OPTIMIZER ADDED SUBROUTINE, CALLED 2 TIMES, CODE SIZE REDUCTION:3 WORDS
                 SUBOPT_0x23:
001dd5 57e6      	SUBI R30,LOW(374)
001dd6 40f1      	SBCI R31,HIGH(374)
001dd7 93fa      	ST   -Y,R31
001dd8 93ea      	ST   -Y,R30
001dd9 e6a0      	LDI  R26,LOW(_Wert)
001dda e0b7      	LDI  R27,HIGH(_Wert)
001ddb 940c 19dc 	JMP  _itoa
                 
                 ;OPTIMIZER ADDED SUBROUTINE, CALLED 2 TIMES, CODE SIZE REDUCTION:7 WORDS
                 SUBOPT_0x24:
001ddd 2fe1      	MOV  R30,R17
001dde e0f0      	LDI  R31,0
001ddf 58eb      	SUBI R30,LOW(-_sWIICAM)
001de0 4ff8      	SBCI R31,HIGH(-_sWIICAM)
001de1 81e0      	LD   R30,Z
001de2 e0f0      	LDI  R31,0
001de3 93fa      	ST   -Y,R31
001de4 93ea      	ST   -Y,R30
001de5 e6a0      	LDI  R26,LOW(_Wert)
001de6 e0b7      	LDI  R27,HIGH(_Wert)
001de7 940c 19dc 	JMP  _itoa
                 
                 ;OPTIMIZER ADDED SUBROUTINE, CALLED 3 TIMES, CODE SIZE REDUCTION:7 WORDS
                 SUBOPT_0x25:
001de9 e0a1      	LDI  R26,LOW(1)
001dea 940e 1c02 	CALL _lcd_gotoxy
001dec e6a0      	LDI  R26,LOW(_Wert)
001ded e0b7      	LDI  R27,HIGH(_Wert)
001dee 940c 1c52 	JMP  _lcd_puts
                 
                 ;OPTIMIZER ADDED SUBROUTINE, CALLED 5 TIMES, CODE SIZE REDUCTION:53 WORDS
                 SUBOPT_0x26:
001df0 91e0 073c 	LDS  R30,_iTime
001df2 91f0 073d 	LDS  R31,_iTime+1
001df4 2766      	CLR  R22
001df5 2777      	CLR  R23
001df6 940e 2152 	CALL __CDF1
001df8 01df      	MOVW R26,R30
001df9 01cb      	MOVW R24,R22
                +
001dfa eced     +LDI R30 , LOW ( 0x4250CCCD )
001dfb ecfc     +LDI R31 , HIGH ( 0x4250CCCD )
001dfc e560     +LDI R22 , BYTE3 ( 0x4250CCCD )
001dfd e472     +LDI R23 , BYTE4 ( 0x4250CCCD )
                 	__GETD1N 0x4250CCCD
001dfe 940e 2180 	CALL __DIVF21
001e00 9508      	RET
                 
                 ;OPTIMIZER ADDED SUBROUTINE, CALLED 2 TIMES, CODE SIZE REDUCTION:3 WORDS
                 SUBOPT_0x27:
001e01 e0e2      	LDI  R30,LOW(2)
001e02 e0f0      	LDI  R31,HIGH(2)
001e03 93e0 0788 	STS  _wheelEncoderCounter_left,R30
001e05 93f0 0789 	STS  _wheelEncoderCounter_left+1,R31
001e07 cec3      	RJMP SUBOPT_0x3
                 
                 ;OPTIMIZER ADDED SUBROUTINE, CALLED 29 TIMES, CODE SIZE REDUCTION:53 WORDS
                 SUBOPT_0x28:
001e08 91e0 0788 	LDS  R30,_wheelEncoderCounter_left
001e0a 91f0 0789 	LDS  R31,_wheelEncoderCounter_left+1
001e0c 9508      	RET
                 
                 ;OPTIMIZER ADDED SUBROUTINE, CALLED 6 TIMES, CODE SIZE REDUCTION:12 WORDS
                 SUBOPT_0x29:
001e0d 93e0 078a 	STS  _wheelEncoderCounter_right,R30
001e0f 93f0 078b 	STS  _wheelEncoderCounter_right+1,R31
001e11 9730      	SBIW R30,0
001e12 9508      	RET
                 
                 ;OPTIMIZER ADDED SUBROUTINE, CALLED 86 TIMES, CODE SIZE REDUCTION:167 WORDS
                 SUBOPT_0x2A:
001e13 e6e4      	LDI  R30,LOW(100)
001e14 e0f0      	LDI  R31,HIGH(100)
001e15 93fa      	ST   -Y,R31
001e16 93ea      	ST   -Y,R30
001e17 9508      	RET
                 
                 ;OPTIMIZER ADDED SUBROUTINE, CALLED 25 TIMES, CODE SIZE REDUCTION:141 WORDS
                 SUBOPT_0x2B:
001e18 e0e0      	LDI  R30,LOW(0)
001e19 e0f0      	LDI  R31,HIGH(0)
001e1a 93fa      	ST   -Y,R31
001e1b 93ea      	ST   -Y,R30
001e1c e0a0      	LDI  R26,LOW(0)
001e1d e0b0      	LDI  R27,0
001e1e 940c 03c1 	JMP  _movement
                 
                 ;OPTIMIZER ADDED SUBROUTINE, CALLED 12 TIMES, CODE SIZE REDUCTION:19 WORDS
                 SUBOPT_0x2C:
001e20 dfe7      	RCALL SUBOPT_0x28
001e21 ce9e      	RJMP SUBOPT_0x1
                 
                 ;OPTIMIZER ADDED SUBROUTINE, CALLED 27 TIMES, CODE SIZE REDUCTION:49 WORDS
                 SUBOPT_0x2D:
001e22 e5e0      	LDI  R30,LOW(80)
001e23 e0f0      	LDI  R31,HIGH(80)
001e24 93fa      	ST   -Y,R31
001e25 93ea      	ST   -Y,R30
001e26 9508      	RET
                 
                 ;OPTIMIZER ADDED SUBROUTINE, CALLED 5 TIMES, CODE SIZE REDUCTION:5 WORDS
                 SUBOPT_0x2E:
001e27 dfe0      	RCALL SUBOPT_0x28
001e28 cfe4      	RJMP SUBOPT_0x29
                 
                 ;OPTIMIZER ADDED SUBROUTINE, CALLED 3 TIMES, CODE SIZE REDUCTION:9 WORDS
                 SUBOPT_0x2F:
001e29 e0e1      	LDI  R30,LOW(1)
001e2a e0f0      	LDI  R31,HIGH(1)
001e2b 93fa      	ST   -Y,R31
001e2c 93ea      	ST   -Y,R30
001e2d e0a1      	LDI  R26,LOW(1)
001e2e e0b0      	LDI  R27,0
001e2f 940c 03c1 	JMP  _movement
                 
                 ;OPTIMIZER ADDED SUBROUTINE, CALLED 62 TIMES, CODE SIZE REDUCTION:119 WORDS
                 SUBOPT_0x30:
001e31 e0e1      	LDI  R30,LOW(1)
001e32 e0f0      	LDI  R31,HIGH(1)
001e33 93fa      	ST   -Y,R31
001e34 93ea      	ST   -Y,R30
001e35 9508      	RET
                 
                 ;OPTIMIZER ADDED SUBROUTINE, CALLED 24 TIMES, CODE SIZE REDUCTION:43 WORDS
                 SUBOPT_0x31:
001e36 e0e0      	LDI  R30,LOW(0)
001e37 e0f0      	LDI  R31,HIGH(0)
001e38 93fa      	ST   -Y,R31
001e39 93ea      	ST   -Y,R30
001e3a 9508      	RET
                 
                 ;OPTIMIZER ADDED SUBROUTINE, CALLED 3 TIMES, CODE SIZE REDUCTION:1 WORDS
                 SUBOPT_0x32:
001e3b 940e 1c16 	CALL _lcd_clear
001e3d cf2a      	RJMP SUBOPT_0x19
                 
                 ;OPTIMIZER ADDED SUBROUTINE, CALLED 10 TIMES, CODE SIZE REDUCTION:105 WORDS
                 SUBOPT_0x33:
001e3e 940e 1c52 	CALL _lcd_puts
001e40 dfc7      	RCALL SUBOPT_0x28
001e41 93fa      	ST   -Y,R31
001e42 93ea      	ST   -Y,R30
001e43 eba2      	LDI  R26,LOW(_str)
001e44 e0b6      	LDI  R27,HIGH(_str)
001e45 940e 19dc 	CALL _itoa
001e47 eba2      	LDI  R26,LOW(_str)
001e48 e0b6      	LDI  R27,HIGH(_str)
001e49 940c 1c52 	JMP  _lcd_puts
                 
                 ;OPTIMIZER ADDED SUBROUTINE, CALLED 10 TIMES, CODE SIZE REDUCTION:123 WORDS
                 SUBOPT_0x34:
001e4b 940e 1c52 	CALL _lcd_puts
001e4d 91e0 078a 	LDS  R30,_wheelEncoderCounter_right
001e4f 91f0 078b 	LDS  R31,_wheelEncoderCounter_right+1
001e51 93fa      	ST   -Y,R31
001e52 93ea      	ST   -Y,R30
001e53 eba2      	LDI  R26,LOW(_str)
001e54 e0b6      	LDI  R27,HIGH(_str)
001e55 940e 19dc 	CALL _itoa
001e57 eba2      	LDI  R26,LOW(_str)
001e58 e0b6      	LDI  R27,HIGH(_str)
001e59 940c 1c52 	JMP  _lcd_puts
                 
                 ;OPTIMIZER ADDED SUBROUTINE, CALLED 2 TIMES, CODE SIZE REDUCTION:1 WORDS
                 SUBOPT_0x35:
001e5b e0e1      	LDI  R30,LOW(1)
001e5c e0f0      	LDI  R31,HIGH(1)
001e5d 93e0 0798 	STS  _detector_value,R30
001e5f 93f0 0799 	STS  _detector_value+1,R31
001e61 9508      	RET
                 
                 ;OPTIMIZER ADDED SUBROUTINE, CALLED 2 TIMES, CODE SIZE REDUCTION:1 WORDS
                 SUBOPT_0x36:
001e62 e0e2      	LDI  R30,LOW(2)
001e63 e0f0      	LDI  R31,HIGH(2)
001e64 93e0 0798 	STS  _detector_value,R30
001e66 93f0 0799 	STS  _detector_value+1,R31
001e68 9508      	RET
                 
                 ;OPTIMIZER ADDED SUBROUTINE, CALLED 2 TIMES, CODE SIZE REDUCTION:1 WORDS
                 SUBOPT_0x37:
001e69 e0e3      	LDI  R30,LOW(3)
001e6a e0f0      	LDI  R31,HIGH(3)
001e6b 93e0 0798 	STS  _detector_value,R30
001e6d 93f0 0799 	STS  _detector_value+1,R31
001e6f 9508      	RET
                 
                 ;OPTIMIZER ADDED SUBROUTINE, CALLED 2 TIMES, CODE SIZE REDUCTION:1 WORDS
                 SUBOPT_0x38:
001e70 e0e4      	LDI  R30,LOW(4)
001e71 e0f0      	LDI  R31,HIGH(4)
001e72 93e0 0798 	STS  _detector_value,R30
001e74 93f0 0799 	STS  _detector_value+1,R31
001e76 9508      	RET
                 
                 ;OPTIMIZER ADDED SUBROUTINE, CALLED 2 TIMES, CODE SIZE REDUCTION:1 WORDS
                 SUBOPT_0x39:
001e77 e0e5      	LDI  R30,LOW(5)
001e78 e0f0      	LDI  R31,HIGH(5)
001e79 93e0 0798 	STS  _detector_value,R30
001e7b 93f0 0799 	STS  _detector_value+1,R31
001e7d 9508      	RET
                 
                 ;OPTIMIZER ADDED SUBROUTINE, CALLED 2 TIMES, CODE SIZE REDUCTION:1 WORDS
                 SUBOPT_0x3A:
001e7e e0e6      	LDI  R30,LOW(6)
001e7f e0f0      	LDI  R31,HIGH(6)
001e80 93e0 0798 	STS  _detector_value,R30
001e82 93f0 0799 	STS  _detector_value+1,R31
001e84 9508      	RET
                 
                 ;OPTIMIZER ADDED SUBROUTINE, CALLED 2 TIMES, CODE SIZE REDUCTION:1 WORDS
                 SUBOPT_0x3B:
001e85 e0e7      	LDI  R30,LOW(7)
001e86 e0f0      	LDI  R31,HIGH(7)
001e87 93e0 0798 	STS  _detector_value,R30
001e89 93f0 0799 	STS  _detector_value+1,R31
001e8b 9508      	RET
                 
                 ;OPTIMIZER ADDED SUBROUTINE, CALLED 2 TIMES, CODE SIZE REDUCTION:1 WORDS
                 SUBOPT_0x3C:
001e8c e0e8      	LDI  R30,LOW(8)
001e8d e0f0      	LDI  R31,HIGH(8)
001e8e 93e0 0798 	STS  _detector_value,R30
001e90 93f0 0799 	STS  _detector_value+1,R31
001e92 9508      	RET
                 
                 ;OPTIMIZER ADDED SUBROUTINE, CALLED 2 TIMES, CODE SIZE REDUCTION:1 WORDS
                 SUBOPT_0x3D:
001e93 e0e9      	LDI  R30,LOW(9)
001e94 e0f0      	LDI  R31,HIGH(9)
001e95 93e0 0798 	STS  _detector_value,R30
001e97 93f0 0799 	STS  _detector_value+1,R31
001e99 9508      	RET
                 
                 ;OPTIMIZER ADDED SUBROUTINE, CALLED 2 TIMES, CODE SIZE REDUCTION:1 WORDS
                 SUBOPT_0x3E:
001e9a e0ea      	LDI  R30,LOW(10)
001e9b e0f0      	LDI  R31,HIGH(10)
001e9c 93e0 0798 	STS  _detector_value,R30
001e9e 93f0 0799 	STS  _detector_value+1,R31
001ea0 9508      	RET
                 
                 ;OPTIMIZER ADDED SUBROUTINE, CALLED 2 TIMES, CODE SIZE REDUCTION:1 WORDS
                 SUBOPT_0x3F:
001ea1 e0eb      	LDI  R30,LOW(11)
001ea2 e0f0      	LDI  R31,HIGH(11)
001ea3 93e0 0798 	STS  _detector_value,R30
001ea5 93f0 0799 	STS  _detector_value+1,R31
001ea7 9508      	RET
                 
                 ;OPTIMIZER ADDED SUBROUTINE, CALLED 2 TIMES, CODE SIZE REDUCTION:1 WORDS
                 SUBOPT_0x40:
001ea8 e0ec      	LDI  R30,LOW(12)
001ea9 e0f0      	LDI  R31,HIGH(12)
001eaa 93e0 0798 	STS  _detector_value,R30
001eac 93f0 0799 	STS  _detector_value+1,R31
001eae 9508      	RET
                 
                 ;OPTIMIZER ADDED SUBROUTINE, CALLED 2 TIMES, CODE SIZE REDUCTION:1 WORDS
                 SUBOPT_0x41:
001eaf e0ed      	LDI  R30,LOW(13)
001eb0 e0f0      	LDI  R31,HIGH(13)
001eb1 93e0 0798 	STS  _detector_value,R30
001eb3 93f0 0799 	STS  _detector_value+1,R31
001eb5 9508      	RET
                 
                 ;OPTIMIZER ADDED SUBROUTINE, CALLED 2 TIMES, CODE SIZE REDUCTION:1 WORDS
                 SUBOPT_0x42:
001eb6 e0ee      	LDI  R30,LOW(14)
001eb7 e0f0      	LDI  R31,HIGH(14)
001eb8 93e0 0798 	STS  _detector_value,R30
001eba 93f0 0799 	STS  _detector_value+1,R31
001ebc 9508      	RET
                 
                 ;OPTIMIZER ADDED SUBROUTINE, CALLED 2 TIMES, CODE SIZE REDUCTION:1 WORDS
                 SUBOPT_0x43:
001ebd e0ef      	LDI  R30,LOW(15)
001ebe e0f0      	LDI  R31,HIGH(15)
001ebf 93e0 0798 	STS  _detector_value,R30
001ec1 93f0 0799 	STS  _detector_value+1,R31
001ec3 9508      	RET
                 
                 ;OPTIMIZER ADDED SUBROUTINE, CALLED 2 TIMES, CODE SIZE REDUCTION:1 WORDS
                 SUBOPT_0x44:
001ec4 e1e0      	LDI  R30,LOW(16)
001ec5 e0f0      	LDI  R31,HIGH(16)
001ec6 93e0 0798 	STS  _detector_value,R30
001ec8 93f0 0799 	STS  _detector_value+1,R31
001eca 9508      	RET
                 
                 ;OPTIMIZER ADDED SUBROUTINE, CALLED 2 TIMES, CODE SIZE REDUCTION:1 WORDS
                 SUBOPT_0x45:
001ecb e1e1      	LDI  R30,LOW(17)
001ecc e0f0      	LDI  R31,HIGH(17)
001ecd 93e0 0798 	STS  _detector_value,R30
001ecf 93f0 0799 	STS  _detector_value+1,R31
001ed1 9508      	RET
                 
                 ;OPTIMIZER ADDED SUBROUTINE, CALLED 2 TIMES, CODE SIZE REDUCTION:1 WORDS
                 SUBOPT_0x46:
001ed2 e1e2      	LDI  R30,LOW(18)
001ed3 e0f0      	LDI  R31,HIGH(18)
001ed4 93e0 0798 	STS  _detector_value,R30
001ed6 93f0 0799 	STS  _detector_value+1,R31
001ed8 9508      	RET
                 
                 ;OPTIMIZER ADDED SUBROUTINE, CALLED 2 TIMES, CODE SIZE REDUCTION:1 WORDS
                 SUBOPT_0x47:
001ed9 e1e3      	LDI  R30,LOW(19)
001eda e0f0      	LDI  R31,HIGH(19)
001edb 93e0 0798 	STS  _detector_value,R30
001edd 93f0 0799 	STS  _detector_value+1,R31
001edf 9508      	RET
                 
                 ;OPTIMIZER ADDED SUBROUTINE, CALLED 2 TIMES, CODE SIZE REDUCTION:1 WORDS
                 SUBOPT_0x48:
001ee0 e1e4      	LDI  R30,LOW(20)
001ee1 e0f0      	LDI  R31,HIGH(20)
001ee2 93e0 0798 	STS  _detector_value,R30
001ee4 93f0 0799 	STS  _detector_value+1,R31
001ee6 9508      	RET
                 
                 ;OPTIMIZER ADDED SUBROUTINE, CALLED 2 TIMES, CODE SIZE REDUCTION:1 WORDS
                 SUBOPT_0x49:
001ee7 e1e5      	LDI  R30,LOW(21)
001ee8 e0f0      	LDI  R31,HIGH(21)
001ee9 93e0 0798 	STS  _detector_value,R30
001eeb 93f0 0799 	STS  _detector_value+1,R31
001eed 9508      	RET
                 
                 ;OPTIMIZER ADDED SUBROUTINE, CALLED 2 TIMES, CODE SIZE REDUCTION:1 WORDS
                 SUBOPT_0x4A:
001eee e1e6      	LDI  R30,LOW(22)
001eef e0f0      	LDI  R31,HIGH(22)
001ef0 93e0 0798 	STS  _detector_value,R30
001ef2 93f0 0799 	STS  _detector_value+1,R31
001ef4 9508      	RET
                 
                 ;OPTIMIZER ADDED SUBROUTINE, CALLED 2 TIMES, CODE SIZE REDUCTION:1 WORDS
                 SUBOPT_0x4B:
001ef5 e1e7      	LDI  R30,LOW(23)
001ef6 e0f0      	LDI  R31,HIGH(23)
001ef7 93e0 0798 	STS  _detector_value,R30
001ef9 93f0 0799 	STS  _detector_value+1,R31
001efb 9508      	RET
                 
                 ;OPTIMIZER ADDED SUBROUTINE, CALLED 2 TIMES, CODE SIZE REDUCTION:1 WORDS
                 SUBOPT_0x4C:
001efc e1e8      	LDI  R30,LOW(24)
001efd e0f0      	LDI  R31,HIGH(24)
001efe 93e0 0798 	STS  _detector_value,R30
001f00 93f0 0799 	STS  _detector_value+1,R31
001f02 9508      	RET
                 
                 ;OPTIMIZER ADDED SUBROUTINE, CALLED 2 TIMES, CODE SIZE REDUCTION:1 WORDS
                 SUBOPT_0x4D:
001f03 e1e9      	LDI  R30,LOW(25)
001f04 e0f0      	LDI  R31,HIGH(25)
001f05 93e0 0798 	STS  _detector_value,R30
001f07 93f0 0799 	STS  _detector_value+1,R31
001f09 9508      	RET
                 
                 ;OPTIMIZER ADDED SUBROUTINE, CALLED 2 TIMES, CODE SIZE REDUCTION:1 WORDS
                 SUBOPT_0x4E:
001f0a e1ea      	LDI  R30,LOW(26)
001f0b e0f0      	LDI  R31,HIGH(26)
001f0c 93e0 0798 	STS  _detector_value,R30
001f0e 93f0 0799 	STS  _detector_value+1,R31
001f10 9508      	RET
                 
                 ;OPTIMIZER ADDED SUBROUTINE, CALLED 2 TIMES, CODE SIZE REDUCTION:1 WORDS
                 SUBOPT_0x4F:
001f11 e1eb      	LDI  R30,LOW(27)
001f12 e0f0      	LDI  R31,HIGH(27)
001f13 93e0 0798 	STS  _detector_value,R30
001f15 93f0 0799 	STS  _detector_value+1,R31
001f17 9508      	RET
                 
                 ;OPTIMIZER ADDED SUBROUTINE, CALLED 2 TIMES, CODE SIZE REDUCTION:1 WORDS
                 SUBOPT_0x50:
001f18 e1ec      	LDI  R30,LOW(28)
001f19 e0f0      	LDI  R31,HIGH(28)
001f1a 93e0 0798 	STS  _detector_value,R30
001f1c 93f0 0799 	STS  _detector_value+1,R31
001f1e 9508      	RET
                 
                 ;OPTIMIZER ADDED SUBROUTINE, CALLED 2 TIMES, CODE SIZE REDUCTION:1 WORDS
                 SUBOPT_0x51:
001f1f e1ed      	LDI  R30,LOW(29)
001f20 e0f0      	LDI  R31,HIGH(29)
001f21 93e0 0798 	STS  _detector_value,R30
001f23 93f0 0799 	STS  _detector_value+1,R31
001f25 9508      	RET
                 
                 ;OPTIMIZER ADDED SUBROUTINE, CALLED 2 TIMES, CODE SIZE REDUCTION:1 WORDS
                 SUBOPT_0x52:
001f26 e1ee      	LDI  R30,LOW(30)
001f27 e0f0      	LDI  R31,HIGH(30)
001f28 93e0 0798 	STS  _detector_value,R30
001f2a 93f0 0799 	STS  _detector_value+1,R31
001f2c 9508      	RET
                 
                 ;OPTIMIZER ADDED SUBROUTINE, CALLED 2 TIMES, CODE SIZE REDUCTION:1 WORDS
                 SUBOPT_0x53:
001f2d e1ef      	LDI  R30,LOW(31)
001f2e e0f0      	LDI  R31,HIGH(31)
001f2f 93e0 0798 	STS  _detector_value,R30
001f31 93f0 0799 	STS  _detector_value+1,R31
001f33 9508      	RET
                 
                 ;OPTIMIZER ADDED SUBROUTINE, CALLED 2 TIMES, CODE SIZE REDUCTION:1 WORDS
                 SUBOPT_0x54:
001f34 e2e0      	LDI  R30,LOW(32)
001f35 e0f0      	LDI  R31,HIGH(32)
001f36 93e0 0798 	STS  _detector_value,R30
001f38 93f0 0799 	STS  _detector_value+1,R31
001f3a 9508      	RET
                 
                 ;OPTIMIZER ADDED SUBROUTINE, CALLED 2 TIMES, CODE SIZE REDUCTION:1 WORDS
                 SUBOPT_0x55:
001f3b e2e1      	LDI  R30,LOW(33)
001f3c e0f0      	LDI  R31,HIGH(33)
001f3d 93e0 0798 	STS  _detector_value,R30
001f3f 93f0 0799 	STS  _detector_value+1,R31
001f41 9508      	RET
                 
                 ;OPTIMIZER ADDED SUBROUTINE, CALLED 2 TIMES, CODE SIZE REDUCTION:1 WORDS
                 SUBOPT_0x56:
001f42 e2e2      	LDI  R30,LOW(34)
001f43 e0f0      	LDI  R31,HIGH(34)
001f44 93e0 0798 	STS  _detector_value,R30
001f46 93f0 0799 	STS  _detector_value+1,R31
001f48 9508      	RET
                 
                 ;OPTIMIZER ADDED SUBROUTINE, CALLED 2 TIMES, CODE SIZE REDUCTION:1 WORDS
                 SUBOPT_0x57:
001f49 e2e3      	LDI  R30,LOW(35)
001f4a e0f0      	LDI  R31,HIGH(35)
001f4b 93e0 0798 	STS  _detector_value,R30
001f4d 93f0 0799 	STS  _detector_value+1,R31
001f4f 9508      	RET
                 
                 ;OPTIMIZER ADDED SUBROUTINE, CALLED 2 TIMES, CODE SIZE REDUCTION:1 WORDS
                 SUBOPT_0x58:
001f50 e2e4      	LDI  R30,LOW(36)
001f51 e0f0      	LDI  R31,HIGH(36)
001f52 93e0 0798 	STS  _detector_value,R30
001f54 93f0 0799 	STS  _detector_value+1,R31
001f56 9508      	RET
                 
                 ;OPTIMIZER ADDED SUBROUTINE, CALLED 2 TIMES, CODE SIZE REDUCTION:1 WORDS
                 SUBOPT_0x59:
001f57 e2e5      	LDI  R30,LOW(37)
001f58 e0f0      	LDI  R31,HIGH(37)
001f59 93e0 0798 	STS  _detector_value,R30
001f5b 93f0 0799 	STS  _detector_value+1,R31
001f5d 9508      	RET
                 
                 ;OPTIMIZER ADDED SUBROUTINE, CALLED 2 TIMES, CODE SIZE REDUCTION:1 WORDS
                 SUBOPT_0x5A:
001f5e e2e6      	LDI  R30,LOW(38)
001f5f e0f0      	LDI  R31,HIGH(38)
001f60 93e0 0798 	STS  _detector_value,R30
001f62 93f0 0799 	STS  _detector_value+1,R31
001f64 9508      	RET
                 
                 ;OPTIMIZER ADDED SUBROUTINE, CALLED 2 TIMES, CODE SIZE REDUCTION:1 WORDS
                 SUBOPT_0x5B:
001f65 e2e7      	LDI  R30,LOW(39)
001f66 e0f0      	LDI  R31,HIGH(39)
001f67 93e0 0798 	STS  _detector_value,R30
001f69 93f0 0799 	STS  _detector_value+1,R31
001f6b 9508      	RET
                 
                 ;OPTIMIZER ADDED SUBROUTINE, CALLED 2 TIMES, CODE SIZE REDUCTION:1 WORDS
                 SUBOPT_0x5C:
001f6c e2e8      	LDI  R30,LOW(40)
001f6d e0f0      	LDI  R31,HIGH(40)
001f6e 93e0 0798 	STS  _detector_value,R30
001f70 93f0 0799 	STS  _detector_value+1,R31
001f72 9508      	RET
                 
                 ;OPTIMIZER ADDED SUBROUTINE, CALLED 2 TIMES, CODE SIZE REDUCTION:1 WORDS
                 SUBOPT_0x5D:
001f73 e2e9      	LDI  R30,LOW(41)
001f74 e0f0      	LDI  R31,HIGH(41)
001f75 93e0 0798 	STS  _detector_value,R30
001f77 93f0 0799 	STS  _detector_value+1,R31
001f79 9508      	RET
                 
                 ;OPTIMIZER ADDED SUBROUTINE, CALLED 2 TIMES, CODE SIZE REDUCTION:1 WORDS
                 SUBOPT_0x5E:
001f7a e2ea      	LDI  R30,LOW(42)
001f7b e0f0      	LDI  R31,HIGH(42)
001f7c 93e0 0798 	STS  _detector_value,R30
001f7e 93f0 0799 	STS  _detector_value+1,R31
001f80 9508      	RET
                 
                 ;OPTIMIZER ADDED SUBROUTINE, CALLED 2 TIMES, CODE SIZE REDUCTION:1 WORDS
                 SUBOPT_0x5F:
001f81 e2eb      	LDI  R30,LOW(43)
001f82 e0f0      	LDI  R31,HIGH(43)
001f83 93e0 0798 	STS  _detector_value,R30
001f85 93f0 0799 	STS  _detector_value+1,R31
001f87 9508      	RET
                 
                 ;OPTIMIZER ADDED SUBROUTINE, CALLED 2 TIMES, CODE SIZE REDUCTION:1 WORDS
                 SUBOPT_0x60:
001f88 e2ec      	LDI  R30,LOW(44)
001f89 e0f0      	LDI  R31,HIGH(44)
001f8a 93e0 0798 	STS  _detector_value,R30
001f8c 93f0 0799 	STS  _detector_value+1,R31
001f8e 9508      	RET
                 
                 ;OPTIMIZER ADDED SUBROUTINE, CALLED 2 TIMES, CODE SIZE REDUCTION:1 WORDS
                 SUBOPT_0x61:
001f8f e2ed      	LDI  R30,LOW(45)
001f90 e0f0      	LDI  R31,HIGH(45)
001f91 93e0 0798 	STS  _detector_value,R30
001f93 93f0 0799 	STS  _detector_value+1,R31
001f95 9508      	RET
                 
                 ;OPTIMIZER ADDED SUBROUTINE, CALLED 2 TIMES, CODE SIZE REDUCTION:1 WORDS
                 SUBOPT_0x62:
001f96 e2ee      	LDI  R30,LOW(46)
001f97 e0f0      	LDI  R31,HIGH(46)
001f98 93e0 0798 	STS  _detector_value,R30
001f9a 93f0 0799 	STS  _detector_value+1,R31
001f9c 9508      	RET
                 
                 ;OPTIMIZER ADDED SUBROUTINE, CALLED 2 TIMES, CODE SIZE REDUCTION:1 WORDS
                 SUBOPT_0x63:
001f9d e2ef      	LDI  R30,LOW(47)
001f9e e0f0      	LDI  R31,HIGH(47)
001f9f 93e0 0798 	STS  _detector_value,R30
001fa1 93f0 0799 	STS  _detector_value+1,R31
001fa3 9508      	RET
                 
                 ;OPTIMIZER ADDED SUBROUTINE, CALLED 2 TIMES, CODE SIZE REDUCTION:1 WORDS
                 SUBOPT_0x64:
001fa4 e3e0      	LDI  R30,LOW(48)
001fa5 e0f0      	LDI  R31,HIGH(48)
001fa6 93e0 0798 	STS  _detector_value,R30
001fa8 93f0 0799 	STS  _detector_value+1,R31
001faa 9508      	RET
                 
                 ;OPTIMIZER ADDED SUBROUTINE, CALLED 2 TIMES, CODE SIZE REDUCTION:1 WORDS
                 SUBOPT_0x65:
001fab e3e1      	LDI  R30,LOW(49)
001fac e0f0      	LDI  R31,HIGH(49)
001fad 93e0 0798 	STS  _detector_value,R30
001faf 93f0 0799 	STS  _detector_value+1,R31
001fb1 9508      	RET
                 
                 ;OPTIMIZER ADDED SUBROUTINE, CALLED 2 TIMES, CODE SIZE REDUCTION:1 WORDS
                 SUBOPT_0x66:
001fb2 e3e2      	LDI  R30,LOW(50)
001fb3 e0f0      	LDI  R31,HIGH(50)
001fb4 93e0 0798 	STS  _detector_value,R30
001fb6 93f0 0799 	STS  _detector_value+1,R31
001fb8 9508      	RET
                 
                 ;OPTIMIZER ADDED SUBROUTINE, CALLED 2 TIMES, CODE SIZE REDUCTION:1 WORDS
                 SUBOPT_0x67:
001fb9 e3e3      	LDI  R30,LOW(51)
001fba e0f0      	LDI  R31,HIGH(51)
001fbb 93e0 0798 	STS  _detector_value,R30
001fbd 93f0 0799 	STS  _detector_value+1,R31
001fbf 9508      	RET
                 
                 ;OPTIMIZER ADDED SUBROUTINE, CALLED 2 TIMES, CODE SIZE REDUCTION:1 WORDS
                 SUBOPT_0x68:
001fc0 e3e4      	LDI  R30,LOW(52)
001fc1 e0f0      	LDI  R31,HIGH(52)
001fc2 93e0 0798 	STS  _detector_value,R30
001fc4 93f0 0799 	STS  _detector_value+1,R31
001fc6 9508      	RET
                 
                 ;OPTIMIZER ADDED SUBROUTINE, CALLED 2 TIMES, CODE SIZE REDUCTION:1 WORDS
                 SUBOPT_0x69:
001fc7 e3e5      	LDI  R30,LOW(53)
001fc8 e0f0      	LDI  R31,HIGH(53)
001fc9 93e0 0798 	STS  _detector_value,R30
001fcb 93f0 0799 	STS  _detector_value+1,R31
001fcd 9508      	RET
                 
                 ;OPTIMIZER ADDED SUBROUTINE, CALLED 2 TIMES, CODE SIZE REDUCTION:1 WORDS
                 SUBOPT_0x6A:
001fce e3e6      	LDI  R30,LOW(54)
001fcf e0f0      	LDI  R31,HIGH(54)
001fd0 93e0 0798 	STS  _detector_value,R30
001fd2 93f0 0799 	STS  _detector_value+1,R31
001fd4 9508      	RET
                 
                 ;OPTIMIZER ADDED SUBROUTINE, CALLED 2 TIMES, CODE SIZE REDUCTION:1 WORDS
                 SUBOPT_0x6B:
001fd5 e3e7      	LDI  R30,LOW(55)
001fd6 e0f0      	LDI  R31,HIGH(55)
001fd7 93e0 0798 	STS  _detector_value,R30
001fd9 93f0 0799 	STS  _detector_value+1,R31
001fdb 9508      	RET
                 
                 ;OPTIMIZER ADDED SUBROUTINE, CALLED 2 TIMES, CODE SIZE REDUCTION:1 WORDS
                 SUBOPT_0x6C:
001fdc e3e8      	LDI  R30,LOW(56)
001fdd e0f0      	LDI  R31,HIGH(56)
001fde 93e0 0798 	STS  _detector_value,R30
001fe0 93f0 0799 	STS  _detector_value+1,R31
001fe2 9508      	RET
                 
                 ;OPTIMIZER ADDED SUBROUTINE, CALLED 2 TIMES, CODE SIZE REDUCTION:1 WORDS
                 SUBOPT_0x6D:
001fe3 e3e9      	LDI  R30,LOW(57)
001fe4 e0f0      	LDI  R31,HIGH(57)
001fe5 93e0 0798 	STS  _detector_value,R30
001fe7 93f0 0799 	STS  _detector_value+1,R31
001fe9 9508      	RET
                 
                 ;OPTIMIZER ADDED SUBROUTINE, CALLED 2 TIMES, CODE SIZE REDUCTION:1 WORDS
                 SUBOPT_0x6E:
001fea e3ea      	LDI  R30,LOW(58)
001feb e0f0      	LDI  R31,HIGH(58)
001fec 93e0 0798 	STS  _detector_value,R30
001fee 93f0 0799 	STS  _detector_value+1,R31
001ff0 9508      	RET
                 
                 ;OPTIMIZER ADDED SUBROUTINE, CALLED 2 TIMES, CODE SIZE REDUCTION:1 WORDS
                 SUBOPT_0x6F:
001ff1 e3eb      	LDI  R30,LOW(59)
001ff2 e0f0      	LDI  R31,HIGH(59)
001ff3 93e0 0798 	STS  _detector_value,R30
001ff5 93f0 0799 	STS  _detector_value+1,R31
001ff7 9508      	RET
                 
                 ;OPTIMIZER ADDED SUBROUTINE, CALLED 2 TIMES, CODE SIZE REDUCTION:1 WORDS
                 SUBOPT_0x70:
001ff8 e3ec      	LDI  R30,LOW(60)
001ff9 e0f0      	LDI  R31,HIGH(60)
001ffa 93e0 0798 	STS  _detector_value,R30
001ffc 93f0 0799 	STS  _detector_value+1,R31
001ffe 9508      	RET
                 
                 ;OPTIMIZER ADDED SUBROUTINE, CALLED 2 TIMES, CODE SIZE REDUCTION:3 WORDS
                 SUBOPT_0x71:
001fff 01df      	MOVW R26,R30
002000 01cb      	MOVW R24,R22
                +
002001 e0e0     +LDI R30 , LOW ( 0x41A00000 )
002002 e0f0     +LDI R31 , HIGH ( 0x41A00000 )
002003 ea60     +LDI R22 , BYTE3 ( 0x41A00000 )
002004 e471     +LDI R23 , BYTE4 ( 0x41A00000 )
                 	__GETD1N 0x41A00000
002005 940e 21c5 	CALL __CMPF12
002007 9508      	RET
                 
                 ;OPTIMIZER ADDED SUBROUTINE, CALLED 2 TIMES, CODE SIZE REDUCTION:1 WORDS
                 SUBOPT_0x72:
002008 e4e0      	LDI  R30,LOW(64)
002009 e0f0      	LDI  R31,HIGH(64)
00200a 93e0 0798 	STS  _detector_value,R30
00200c 93f0 0799 	STS  _detector_value+1,R31
00200e 9508      	RET
                 
                 ;OPTIMIZER ADDED SUBROUTINE, CALLED 10 TIMES, CODE SIZE REDUCTION:15 WORDS
                 SUBOPT_0x73:
00200f 93e0 079a 	STS  _detector_value_line,R30
002011 93f0 079b 	STS  _detector_value_line+1,R31
002013 9508      	RET
                 
                 ;OPTIMIZER ADDED SUBROUTINE, CALLED 45 TIMES, CODE SIZE REDUCTION:85 WORDS
                 SUBOPT_0x74:
002014 e4e6      	LDI  R30,LOW(70)
002015 e0f0      	LDI  R31,HIGH(70)
002016 93fa      	ST   -Y,R31
002017 93ea      	ST   -Y,R30
002018 9508      	RET
                 
                 ;OPTIMIZER ADDED SUBROUTINE, CALLED 9 TIMES, CODE SIZE REDUCTION:13 WORDS
                 SUBOPT_0x75:
002019 e3e2      	LDI  R30,LOW(50)
00201a e0f0      	LDI  R31,HIGH(50)
00201b 93fa      	ST   -Y,R31
00201c 93ea      	ST   -Y,R30
00201d 9508      	RET
                 
                 ;OPTIMIZER ADDED SUBROUTINE, CALLED 3 TIMES, CODE SIZE REDUCTION:5 WORDS
                 SUBOPT_0x76:
00201e e5ea      	LDI  R30,LOW(90)
00201f e0f0      	LDI  R31,HIGH(90)
002020 93fa      	ST   -Y,R31
002021 93ea      	ST   -Y,R30
002022 cdf0      	RJMP SUBOPT_0x2A
                 
                 ;OPTIMIZER ADDED SUBROUTINE, CALLED 9 TIMES, CODE SIZE REDUCTION:13 WORDS
                 SUBOPT_0x77:
002023 e5ea      	LDI  R30,LOW(90)
002024 e0f0      	LDI  R31,HIGH(90)
002025 93fa      	ST   -Y,R31
002026 93ea      	ST   -Y,R30
002027 9508      	RET
                 
                 ;OPTIMIZER ADDED SUBROUTINE, CALLED 3 TIMES, CODE SIZE REDUCTION:5 WORDS
                 SUBOPT_0x78:
002028 e5e5      	LDI  R30,LOW(85)
002029 e0f0      	LDI  R31,HIGH(85)
00202a 93fa      	ST   -Y,R31
00202b 93ea      	ST   -Y,R30
00202c ce04      	RJMP SUBOPT_0x30
                 
                 ;OPTIMIZER ADDED SUBROUTINE, CALLED 2 TIMES, CODE SIZE REDUCTION:1 WORDS
                 SUBOPT_0x79:
00202d e5e5      	LDI  R30,LOW(85)
00202e e0f0      	LDI  R31,HIGH(85)
00202f 93fa      	ST   -Y,R31
002030 93ea      	ST   -Y,R30
002031 cde1      	RJMP SUBOPT_0x2A
                 
                 ;OPTIMIZER ADDED SUBROUTINE, CALLED 3 TIMES, CODE SIZE REDUCTION:1 WORDS
                 SUBOPT_0x7A:
002032 e4e1      	LDI  R30,LOW(65)
002033 e0f0      	LDI  R31,HIGH(65)
002034 93fa      	ST   -Y,R31
002035 93ea      	ST   -Y,R30
002036 9508      	RET
                 
                 ;OPTIMIZER ADDED SUBROUTINE, CALLED 2 TIMES, CODE SIZE REDUCTION:1 WORDS
                 SUBOPT_0x7B:
002037 e4eb      	LDI  R30,LOW(75)
002038 e0f0      	LDI  R31,HIGH(75)
002039 93fa      	ST   -Y,R31
00203a 93ea      	ST   -Y,R30
00203b cdd7      	RJMP SUBOPT_0x2A
                 
                 ;OPTIMIZER ADDED SUBROUTINE, CALLED 10 TIMES, CODE SIZE REDUCTION:15 WORDS
                 SUBOPT_0x7C:
00203c 93fa      	ST   -Y,R31
00203d 93ea      	ST   -Y,R30
00203e cdd9      	RJMP SUBOPT_0x2B
                 
                 ;OPTIMIZER ADDED SUBROUTINE, CALLED 3 TIMES, CODE SIZE REDUCTION:5 WORDS
                 SUBOPT_0x7D:
00203f e3ec      	LDI  R30,LOW(60)
002040 e0f0      	LDI  R31,HIGH(60)
002041 93fa      	ST   -Y,R31
002042 93ea      	ST   -Y,R30
002043 e4e6      	LDI  R30,LOW(70)
002044 e0f0      	LDI  R31,HIGH(70)
002045 9508      	RET
                 
                 ;OPTIMIZER ADDED SUBROUTINE, CALLED 8 TIMES, CODE SIZE REDUCTION:11 WORDS
                 SUBOPT_0x7E:
002046 e3ec      	LDI  R30,LOW(60)
002047 e0f0      	LDI  R31,HIGH(60)
002048 93fa      	ST   -Y,R31
002049 93ea      	ST   -Y,R30
00204a 9508      	RET
                 
                 ;OPTIMIZER ADDED SUBROUTINE, CALLED 8 TIMES, CODE SIZE REDUCTION:11 WORDS
                 SUBOPT_0x7F:
00204b e3ec      	LDI  R30,LOW(60)
00204c e0f0      	LDI  R31,HIGH(60)
00204d cfee      	RJMP SUBOPT_0x7C
                 
                 ;OPTIMIZER ADDED SUBROUTINE, CALLED 4 TIMES, CODE SIZE REDUCTION:33 WORDS
                 SUBOPT_0x80:
00204e dc71      	RCALL SUBOPT_0x1
00204f eced      	LDI  R30,LOW(205)
002050 e0f0      	LDI  R31,HIGH(205)
002051 940e 2216 	CALL __LTW12
002053 2e0e      	MOV  R0,R30
002054 dc6b      	RCALL SUBOPT_0x1
002055 efef      	LDI  R30,LOW(65535)
002056 efff      	LDI  R31,HIGH(65535)
002057 940e 221c 	CALL __GTW12
002059 21e0      	AND  R30,R0
00205a 9508      	RET
                 
                 ;OPTIMIZER ADDED SUBROUTINE, CALLED 6 TIMES, CODE SIZE REDUCTION:7 WORDS
                 SUBOPT_0x81:
00205b edac      	LDI  R26,LOW(1500)
00205c e0b5      	LDI  R27,HIGH(1500)
00205d 940c 20e2 	JMP  _delay_ms
                 
                 ;OPTIMIZER ADDED SUBROUTINE, CALLED 2 TIMES, CODE SIZE REDUCTION:1 WORDS
                 SUBOPT_0x82:
00205f e0a1      	LDI  R26,LOW(1)
002060 e0b0      	LDI  R27,0
002061 940e 03c1 	CALL _movement
002063 cd04      	RJMP SUBOPT_0x19
                 
                 ;OPTIMIZER ADDED SUBROUTINE, CALLED 4 TIMES, CODE SIZE REDUCTION:9 WORDS
                 SUBOPT_0x83:
002064 91e0 0790 	LDS  R30,_newvalR
002066 91f0 0791 	LDS  R31,_newvalR+1
002068 93fa      	ST   -Y,R31
002069 93ea      	ST   -Y,R30
00206a 9508      	RET
                 
                 ;OPTIMIZER ADDED SUBROUTINE, CALLED 4 TIMES, CODE SIZE REDUCTION:15 WORDS
                 SUBOPT_0x84:
00206b eba2      	LDI  R26,LOW(_str)
00206c e0b6      	LDI  R27,HIGH(_str)
00206d 940e 19dc 	CALL _itoa
00206f eba2      	LDI  R26,LOW(_str)
002070 e0b6      	LDI  R27,HIGH(_str)
002071 940c 1c52 	JMP  _lcd_puts
                 
                 ;OPTIMIZER ADDED SUBROUTINE, CALLED 2 TIMES, CODE SIZE REDUCTION:5 WORDS
                 SUBOPT_0x85:
002073 940e 1c52 	CALL _lcd_puts
002075 91e0 078c 	LDS  R30,_newvalL
002077 91f0 078d 	LDS  R31,_newvalL+1
002079 93fa      	ST   -Y,R31
00207a 93ea      	ST   -Y,R30
00207b cfef      	RJMP SUBOPT_0x84
                 
                 ;OPTIMIZER ADDED SUBROUTINE, CALLED 2 TIMES, CODE SIZE REDUCTION:1 WORDS
                 SUBOPT_0x86:
00207c e4a6      	LDI  R26,LOW(70)
00207d e0b0      	LDI  R27,0
00207e 940e 036d 	CALL _pwmmaker
002080 cfe3      	RJMP SUBOPT_0x83
                 
                 ;OPTIMIZER ADDED SUBROUTINE, CALLED 2 TIMES, CODE SIZE REDUCTION:1 WORDS
                 SUBOPT_0x87:
002081 91e0 078c 	LDS  R30,_newvalL
002083 91f0 078d 	LDS  R31,_newvalL+1
002085 93fa      	ST   -Y,R31
002086 93ea      	ST   -Y,R30
002087 9508      	RET
                 
                 ;OPTIMIZER ADDED SUBROUTINE, CALLED 3 TIMES, CODE SIZE REDUCTION:3 WORDS
                 SUBOPT_0x88:
002088 940e 1c74 	CALL __long_delay_G104
00208a e3a0      	LDI  R26,LOW(48)
00208b 940c 1c79 	JMP  __lcd_init_write_G104
                 
                 ;OPTIMIZER ADDED SUBROUTINE, CALLED 3 TIMES, CODE SIZE REDUCTION:1 WORDS
                 SUBOPT_0x89:
00208d 940e 1be1 	CALL __lcd_write_data
00208f 940c 1c74 	JMP  __long_delay_G104
                 
                 
                 	.CSEG
                 	.equ __sda_bit=5
                 	.equ __scl_bit=3
                 	.equ __i2c_port=0x18 ;PORTB
                 	.equ __i2c_dir=__i2c_port-1
                 	.equ __i2c_pin=__i2c_port-2
                 
                 _i2c_init:
002091 98c3      	cbi  __i2c_port,__scl_bit
002092 98c5      	cbi  __i2c_port,__sda_bit
002093 9abb      	sbi  __i2c_dir,__scl_bit
002094 98bd      	cbi  __i2c_dir,__sda_bit
002095 c015      	rjmp __i2c_delay2
                 _i2c_start:
002096 98bd      	cbi  __i2c_dir,__sda_bit
002097 98bb      	cbi  __i2c_dir,__scl_bit
002098 27ee      	clr  r30
002099 0000      	nop
00209a 9bb5      	sbis __i2c_pin,__sda_bit
00209b 9508      	ret
00209c 9bb3      	sbis __i2c_pin,__scl_bit
00209d 9508      	ret
00209e d004      	rcall __i2c_delay1
00209f 9abd      	sbi  __i2c_dir,__sda_bit
0020a0 d002      	rcall __i2c_delay1
0020a1 9abb      	sbi  __i2c_dir,__scl_bit
0020a2 e0e1      	ldi  r30,1
                 __i2c_delay1:
0020a3 e16b      	ldi  r22,27
0020a4 c007      	rjmp __i2c_delay2l
                 _i2c_stop:
0020a5 9abd      	sbi  __i2c_dir,__sda_bit
0020a6 9abb      	sbi  __i2c_dir,__scl_bit
0020a7 d003      	rcall __i2c_delay2
0020a8 98bb      	cbi  __i2c_dir,__scl_bit
0020a9 dff9      	rcall __i2c_delay1
0020aa 98bd      	cbi  __i2c_dir,__sda_bit
                 __i2c_delay2:
0020ab e365      	ldi  r22,53
                 __i2c_delay2l:
0020ac 956a      	dec  r22
0020ad f7f1      	brne __i2c_delay2l
0020ae 9508      	ret
                 _i2c_read:
0020af e078      	ldi  r23,8
                 __i2c_read0:
0020b0 98bb      	cbi  __i2c_dir,__scl_bit
0020b1 dff1      	rcall __i2c_delay1
                 __i2c_read3:
0020b2 9bb3      	sbis __i2c_pin,__scl_bit
0020b3 cffe      	rjmp __i2c_read3
0020b4 dfee      	rcall __i2c_delay1
0020b5 9488      	clc
0020b6 99b5      	sbic __i2c_pin,__sda_bit
0020b7 9408      	sec
0020b8 9abb      	sbi  __i2c_dir,__scl_bit
0020b9 dff1      	rcall __i2c_delay2
0020ba 1fee      	rol  r30
0020bb 957a      	dec  r23
0020bc f799      	brne __i2c_read0
0020bd 2f7a      	mov  r23,r26
0020be 2377      	tst  r23
0020bf f411      	brne __i2c_read1
0020c0 98bd      	cbi  __i2c_dir,__sda_bit
0020c1 c001      	rjmp __i2c_read2
                 __i2c_read1:
0020c2 9abd      	sbi  __i2c_dir,__sda_bit
                 __i2c_read2:
0020c3 dfdf      	rcall __i2c_delay1
0020c4 98bb      	cbi  __i2c_dir,__scl_bit
0020c5 dfe5      	rcall __i2c_delay2
0020c6 9abb      	sbi  __i2c_dir,__scl_bit
0020c7 dfdb      	rcall __i2c_delay1
0020c8 98bd      	cbi  __i2c_dir,__sda_bit
0020c9 cfd9      	rjmp __i2c_delay1
                 
                 _i2c_write:
0020ca e078      	ldi  r23,8
                 __i2c_write0:
0020cb 0faa      	lsl  r26
0020cc f410      	brcc __i2c_write1
0020cd 98bd      	cbi  __i2c_dir,__sda_bit
0020ce c001      	rjmp __i2c_write2
                 __i2c_write1:
0020cf 9abd      	sbi  __i2c_dir,__sda_bit
                 __i2c_write2:
0020d0 dfda      	rcall __i2c_delay2
0020d1 98bb      	cbi  __i2c_dir,__scl_bit
0020d2 dfd0      	rcall __i2c_delay1
                 __i2c_write3:
0020d3 9bb3      	sbis __i2c_pin,__scl_bit
0020d4 cffe      	rjmp __i2c_write3
0020d5 dfcd      	rcall __i2c_delay1
0020d6 9abb      	sbi  __i2c_dir,__scl_bit
0020d7 957a      	dec  r23
0020d8 f791      	brne __i2c_write0
0020d9 98bd      	cbi  __i2c_dir,__sda_bit
0020da dfc8      	rcall __i2c_delay1
0020db 98bb      	cbi  __i2c_dir,__scl_bit
0020dc dfce      	rcall __i2c_delay2
0020dd e0e1      	ldi  r30,1
0020de 99b5      	sbic __i2c_pin,__sda_bit
0020df 27ee      	clr  r30
0020e0 9abb      	sbi  __i2c_dir,__scl_bit
0020e1 cfc1      	rjmp __i2c_delay1
                 
                 _delay_ms:
0020e2 9610      	adiw r26,0
0020e3 f039      	breq __delay_ms1
                 __delay_ms0:
                +
0020e4 ea80     +LDI R24 , LOW ( 0xFA0 )
0020e5 e09f     +LDI R25 , HIGH ( 0xFA0 )
                +__DELAY_USW_LOOP :
0020e6 9701     +SBIW R24 , 1
0020e7 f7f1     +BRNE __DELAY_USW_LOOP
                 	__DELAY_USW 0xFA0
0020e8 95a8      	wdr
0020e9 9711      	sbiw r26,1
0020ea f7c9      	brne __delay_ms0
                 __delay_ms1:
0020eb 9508      	ret
                 
                 __ROUND_REPACK:
0020ec 2355      	TST  R21
0020ed f442      	BRPL __REPACK
0020ee 3850      	CPI  R21,0x80
0020ef f411      	BRNE __ROUND_REPACK0
0020f0 ffe0      	SBRS R30,0
0020f1 c004      	RJMP __REPACK
                 __ROUND_REPACK0:
0020f2 9631      	ADIW R30,1
0020f3 1f69      	ADC  R22,R25
0020f4 1f79      	ADC  R23,R25
0020f5 f06b      	BRVS __REPACK1
                 
                 __REPACK:
0020f6 e850      	LDI  R21,0x80
0020f7 2757      	EOR  R21,R23
0020f8 f411      	BRNE __REPACK0
0020f9 935f      	PUSH R21
0020fa c073      	RJMP __ZERORES
                 __REPACK0:
0020fb 3f5f      	CPI  R21,0xFF
0020fc f031      	BREQ __REPACK1
0020fd 0f66      	LSL  R22
0020fe 0c00      	LSL  R0
0020ff 9557      	ROR  R21
002100 9567      	ROR  R22
002101 2f75      	MOV  R23,R21
002102 9508      	RET
                 __REPACK1:
002103 935f      	PUSH R21
002104 2000      	TST  R0
002105 f00a      	BRMI __REPACK2
002106 c073      	RJMP __MAXRES
                 __REPACK2:
002107 c06c      	RJMP __MINRES
                 
                 __UNPACK:
002108 e850      	LDI  R21,0x80
002109 2e19      	MOV  R1,R25
00210a 2215      	AND  R1,R21
00210b 0f88      	LSL  R24
00210c 1f99      	ROL  R25
00210d 2795      	EOR  R25,R21
00210e 0f55      	LSL  R21
00210f 9587      	ROR  R24
                 
                 __UNPACK1:
002110 e850      	LDI  R21,0x80
002111 2e07      	MOV  R0,R23
002112 2205      	AND  R0,R21
002113 0f66      	LSL  R22
002114 1f77      	ROL  R23
002115 2775      	EOR  R23,R21
002116 0f55      	LSL  R21
002117 9567      	ROR  R22
002118 9508      	RET
                 
                 __CFD1U:
002119 9468      	SET
00211a c001      	RJMP __CFD1U0
                 __CFD1:
00211b 94e8      	CLT
                 __CFD1U0:
00211c 935f      	PUSH R21
00211d dff2      	RCALL __UNPACK1
00211e 3870      	CPI  R23,0x80
00211f f018      	BRLO __CFD10
002120 3f7f      	CPI  R23,0xFF
002121 f408      	BRCC __CFD10
002122 c04b      	RJMP __ZERORES
                 __CFD10:
002123 e156      	LDI  R21,22
002124 1b57      	SUB  R21,R23
002125 f4aa      	BRPL __CFD11
002126 9551      	NEG  R21
002127 3058      	CPI  R21,8
002128 f40e      	BRTC __CFD19
002129 3059      	CPI  R21,9
                 __CFD19:
00212a f030      	BRLO __CFD17
00212b efef      	SER  R30
00212c efff      	SER  R31
00212d ef6f      	SER  R22
00212e e77f      	LDI  R23,0x7F
00212f f977      	BLD  R23,7
002130 c01a      	RJMP __CFD15
                 __CFD17:
002131 2777      	CLR  R23
002132 2355      	TST  R21
002133 f0b9      	BREQ __CFD15
                 __CFD18:
002134 0fee      	LSL  R30
002135 1fff      	ROL  R31
002136 1f66      	ROL  R22
002137 1f77      	ROL  R23
002138 955a      	DEC  R21
002139 f7d1      	BRNE __CFD18
00213a c010      	RJMP __CFD15
                 __CFD11:
00213b 2777      	CLR  R23
                 __CFD12:
00213c 3058      	CPI  R21,8
00213d f028      	BRLO __CFD13
00213e 2fef      	MOV  R30,R31
00213f 2ff6      	MOV  R31,R22
002140 2f67      	MOV  R22,R23
002141 5058      	SUBI R21,8
002142 cff9      	RJMP __CFD12
                 __CFD13:
002143 2355      	TST  R21
002144 f031      	BREQ __CFD15
                 __CFD14:
002145 9576      	LSR  R23
002146 9567      	ROR  R22
002147 95f7      	ROR  R31
002148 95e7      	ROR  R30
002149 955a      	DEC  R21
00214a f7d1      	BRNE __CFD14
                 __CFD15:
00214b 2000      	TST  R0
00214c f40a      	BRPL __CFD16
00214d d09b      	RCALL __ANEGD1
                 __CFD16:
00214e 915f      	POP  R21
00214f 9508      	RET
                 
                 __CDF1U:
002150 9468      	SET
002151 c001      	RJMP __CDF1U0
                 __CDF1:
002152 94e8      	CLT
                 __CDF1U0:
002153 9730      	SBIW R30,0
002154 4060      	SBCI R22,0
002155 4070      	SBCI R23,0
002156 f0b1      	BREQ __CDF10
002157 2400      	CLR  R0
002158 f026      	BRTS __CDF11
002159 2377      	TST  R23
00215a f412      	BRPL __CDF11
00215b 9400      	COM  R0
00215c d08c      	RCALL __ANEGD1
                 __CDF11:
00215d 2e17      	MOV  R1,R23
00215e e17e      	LDI  R23,30
00215f 2011      	TST  R1
                 __CDF12:
002160 f032      	BRMI __CDF13
002161 957a      	DEC  R23
002162 0fee      	LSL  R30
002163 1fff      	ROL  R31
002164 1f66      	ROL  R22
002165 1c11      	ROL  R1
002166 cff9      	RJMP __CDF12
                 __CDF13:
002167 2fef      	MOV  R30,R31
002168 2ff6      	MOV  R31,R22
002169 2d61      	MOV  R22,R1
00216a 935f      	PUSH R21
00216b df8a      	RCALL __REPACK
00216c 915f      	POP  R21
                 __CDF10:
00216d 9508      	RET
                 
                 __ZERORES:
00216e 27ee      	CLR  R30
00216f 27ff      	CLR  R31
002170 2766      	CLR  R22
002171 2777      	CLR  R23
002172 915f      	POP  R21
002173 9508      	RET
                 
                 __MINRES:
002174 efef      	SER  R30
002175 efff      	SER  R31
002176 e76f      	LDI  R22,0x7F
002177 ef7f      	SER  R23
002178 915f      	POP  R21
002179 9508      	RET
                 
                 __MAXRES:
00217a efef      	SER  R30
00217b efff      	SER  R31
00217c e76f      	LDI  R22,0x7F
00217d e77f      	LDI  R23,0x7F
00217e 915f      	POP  R21
00217f 9508      	RET
                 
                 __DIVF21:
002180 935f      	PUSH R21
002181 df86      	RCALL __UNPACK
002182 3870      	CPI  R23,0x80
002183 f421      	BRNE __DIVF210
002184 2011      	TST  R1
                 __DIVF211:
002185 f40a      	BRPL __DIVF219
002186 cfed      	RJMP __MINRES
                 __DIVF219:
002187 cff2      	RJMP __MAXRES
                 __DIVF210:
002188 3890      	CPI  R25,0x80
002189 f409      	BRNE __DIVF218
                 __DIVF217:
00218a cfe3      	RJMP __ZERORES
                 __DIVF218:
00218b 2401      	EOR  R0,R1
00218c 9408      	SEC
00218d 0b97      	SBC  R25,R23
00218e f41b      	BRVC __DIVF216
00218f f3d4      	BRLT __DIVF217
002190 2000      	TST  R0
002191 cff3      	RJMP __DIVF211
                 __DIVF216:
002192 2f79      	MOV  R23,R25
002193 931f      	PUSH R17
002194 932f      	PUSH R18
002195 933f      	PUSH R19
002196 934f      	PUSH R20
002197 2411      	CLR  R1
002198 2711      	CLR  R17
002199 2722      	CLR  R18
00219a 2733      	CLR  R19
00219b 2744      	CLR  R20
00219c 2755      	CLR  R21
00219d e290      	LDI  R25,32
                 __DIVF212:
00219e 17ae      	CP   R26,R30
00219f 07bf      	CPC  R27,R31
0021a0 0786      	CPC  R24,R22
0021a1 0741      	CPC  R20,R17
0021a2 f030      	BRLO __DIVF213
0021a3 1bae      	SUB  R26,R30
0021a4 0bbf      	SBC  R27,R31
0021a5 0b86      	SBC  R24,R22
0021a6 0b41      	SBC  R20,R17
0021a7 9408      	SEC
0021a8 c001      	RJMP __DIVF214
                 __DIVF213:
0021a9 9488      	CLC
                 __DIVF214:
0021aa 1f55      	ROL  R21
0021ab 1f22      	ROL  R18
0021ac 1f33      	ROL  R19
0021ad 1c11      	ROL  R1
0021ae 1faa      	ROL  R26
0021af 1fbb      	ROL  R27
0021b0 1f88      	ROL  R24
0021b1 1f44      	ROL  R20
0021b2 959a      	DEC  R25
0021b3 f751      	BRNE __DIVF212
0021b4 01f9      	MOVW R30,R18
0021b5 2d61      	MOV  R22,R1
0021b6 914f      	POP  R20
0021b7 913f      	POP  R19
0021b8 912f      	POP  R18
0021b9 911f      	POP  R17
0021ba 2366      	TST  R22
0021bb f032      	BRMI __DIVF215
0021bc 0f55      	LSL  R21
0021bd 1fee      	ROL  R30
0021be 1fff      	ROL  R31
0021bf 1f66      	ROL  R22
0021c0 957a      	DEC  R23
0021c1 f243      	BRVS __DIVF217
                 __DIVF215:
0021c2 df29      	RCALL __ROUND_REPACK
0021c3 915f      	POP  R21
0021c4 9508      	RET
                 
                 __CMPF12:
0021c5 2399      	TST  R25
0021c6 f09a      	BRMI __CMPF120
0021c7 2377      	TST  R23
0021c8 f042      	BRMI __CMPF121
0021c9 1797      	CP   R25,R23
0021ca f048      	BRLO __CMPF122
0021cb f429      	BRNE __CMPF121
0021cc 17ae      	CP   R26,R30
0021cd 07bf      	CPC  R27,R31
0021ce 0786      	CPC  R24,R22
0021cf f020      	BRLO __CMPF122
0021d0 f031      	BREQ __CMPF123
                 __CMPF121:
0021d1 9498      	CLZ
0021d2 9488      	CLC
0021d3 9508      	RET
                 __CMPF122:
0021d4 9498      	CLZ
0021d5 9408      	SEC
0021d6 9508      	RET
                 __CMPF123:
0021d7 9418      	SEZ
0021d8 9488      	CLC
0021d9 9508      	RET
                 __CMPF120:
0021da 2377      	TST  R23
0021db f7c2      	BRPL __CMPF122
0021dc 1797      	CP   R25,R23
0021dd f398      	BRLO __CMPF121
0021de f7a9      	BRNE __CMPF122
0021df 17ea      	CP   R30,R26
0021e0 07fb      	CPC  R31,R27
0021e1 0768      	CPC  R22,R24
0021e2 f388      	BRLO __CMPF122
0021e3 f399      	BREQ __CMPF123
0021e4 cfec      	RJMP __CMPF121
                 
                 __ANEGW1:
0021e5 95f1      	NEG  R31
0021e6 95e1      	NEG  R30
0021e7 40f0      	SBCI R31,0
0021e8 9508      	RET
                 
                 __ANEGD1:
0021e9 95f0      	COM  R31
0021ea 9560      	COM  R22
0021eb 9570      	COM  R23
0021ec 95e1      	NEG  R30
0021ed 4fff      	SBCI R31,-1
0021ee 4f6f      	SBCI R22,-1
0021ef 4f7f      	SBCI R23,-1
0021f0 9508      	RET
                 
                 __LSRW12:
0021f1 23ee      	TST  R30
0021f2 2e0e      	MOV  R0,R30
0021f3 01fd      	MOVW R30,R26
0021f4 f021      	BREQ __LSRW12R
                 __LSRW12L:
0021f5 95f6      	LSR  R31
0021f6 95e7      	ROR  R30
0021f7 940a      	DEC  R0
0021f8 f7e1      	BRNE __LSRW12L
                 __LSRW12R:
0021f9 9508      	RET
                 
                 __LSLW4:
0021fa 0fee      	LSL  R30
0021fb 1fff      	ROL  R31
                 __LSLW3:
0021fc 0fee      	LSL  R30
0021fd 1fff      	ROL  R31
                 __LSLW2:
0021fe 0fee      	LSL  R30
0021ff 1fff      	ROL  R31
002200 0fee      	LSL  R30
002201 1fff      	ROL  R31
002202 9508      	RET
                 
                 __LSRW4:
002203 95f6      	LSR  R31
002204 95e7      	ROR  R30
                 __LSRW3:
002205 95f6      	LSR  R31
002206 95e7      	ROR  R30
                 __LSRW2:
002207 95f6      	LSR  R31
002208 95e7      	ROR  R30
002209 95f6      	LSR  R31
00220a 95e7      	ROR  R30
00220b 9508      	RET
                 
                 __CWD1:
00220c 2f6f      	MOV  R22,R31
00220d 0f66      	ADD  R22,R22
00220e 0b66      	SBC  R22,R22
00220f 2f76      	MOV  R23,R22
002210 9508      	RET
                 
                 __LTB12U:
002211 17ae      	CP   R26,R30
002212 e0e1      	LDI  R30,1
002213 f008      	BRLO __LTB12U1
002214 27ee      	CLR  R30
                 __LTB12U1:
002215 9508      	RET
                 
                 __LTW12:
002216 17ae      	CP   R26,R30
002217 07bf      	CPC  R27,R31
002218 e0e1      	LDI  R30,1
002219 f00c      	BRLT __LTW12T
00221a 27ee      	CLR  R30
                 __LTW12T:
00221b 9508      	RET
                 
                 __GTW12:
00221c 17ea      	CP   R30,R26
00221d 07fb      	CPC  R31,R27
00221e e0e1      	LDI  R30,1
00221f f00c      	BRLT __GTW12T
002220 27ee      	CLR  R30
                 __GTW12T:
002221 9508      	RET
                 
                 __LNEGW1:
002222 2bef      	OR   R30,R31
002223 e0e1      	LDI  R30,1
002224 f009      	BREQ __LNEGW1F
002225 e0e0      	LDI  R30,0
                 __LNEGW1F:
002226 9508      	RET
                 
                 __MULW12U:
002227 9ffa      	MUL  R31,R26
002228 2df0      	MOV  R31,R0
002229 9feb      	MUL  R30,R27
00222a 0df0      	ADD  R31,R0
00222b 9fea      	MUL  R30,R26
00222c 2de0      	MOV  R30,R0
00222d 0df1      	ADD  R31,R1
00222e 9508      	RET
                 
                 __MULW12:
00222f d017      	RCALL __CHKSIGNW
002230 dff6      	RCALL __MULW12U
002231 f40e      	BRTC __MULW121
002232 dfb2      	RCALL __ANEGW1
                 __MULW121:
002233 9508      	RET
                 
                 __DIVW21U:
002234 2400      	CLR  R0
002235 2411      	CLR  R1
002236 e190      	LDI  R25,16
                 __DIVW21U1:
002237 0faa      	LSL  R26
002238 1fbb      	ROL  R27
002239 1c00      	ROL  R0
00223a 1c11      	ROL  R1
00223b 1a0e      	SUB  R0,R30
00223c 0a1f      	SBC  R1,R31
00223d f418      	BRCC __DIVW21U2
00223e 0e0e      	ADD  R0,R30
00223f 1e1f      	ADC  R1,R31
002240 c001      	RJMP __DIVW21U3
                 __DIVW21U2:
002241 60a1      	SBR  R26,1
                 __DIVW21U3:
002242 959a      	DEC  R25
002243 f799      	BRNE __DIVW21U1
002244 01fd      	MOVW R30,R26
002245 01d0      	MOVW R26,R0
002246 9508      	RET
                 
                 __CHKSIGNW:
002247 94e8      	CLT
002248 fff7      	SBRS R31,7
002249 c002      	RJMP __CHKSW1
00224a df9a      	RCALL __ANEGW1
00224b 9468      	SET
                 __CHKSW1:
00224c ffb7      	SBRS R27,7
00224d c006      	RJMP __CHKSW2
00224e 95a0      	COM  R26
00224f 95b0      	COM  R27
002250 9611      	ADIW R26,1
002251 f800      	BLD  R0,0
002252 9403      	INC  R0
002253 fa00      	BST  R0,0
                 __CHKSW2:
002254 9508      	RET
                 
                 __GETW1P:
002255 91ed      	LD   R30,X+
002256 91fc      	LD   R31,X
002257 9711      	SBIW R26,1
002258 9508      	RET
                 
                 __CPW02:
002259 2400      	CLR  R0
00225a 160a      	CP   R0,R26
00225b 060b      	CPC  R0,R27
00225c 9508      	RET
                 
                 __SAVELOCR6:
00225d 935a      	ST   -Y,R21
                 __SAVELOCR5:
00225e 934a      	ST   -Y,R20
                 __SAVELOCR4:
00225f 933a      	ST   -Y,R19
                 __SAVELOCR3:
002260 932a      	ST   -Y,R18
                 __SAVELOCR2:
002261 931a      	ST   -Y,R17
002262 930a      	ST   -Y,R16
002263 9508      	RET
                 
                 __LOADLOCR6:
002264 815d      	LDD  R21,Y+5
                 __LOADLOCR5:
002265 814c      	LDD  R20,Y+4
                 __LOADLOCR4:
002266 813b      	LDD  R19,Y+3
                 __LOADLOCR3:
002267 812a      	LDD  R18,Y+2
                 __LOADLOCR2:
002268 8119      	LDD  R17,Y+1
002269 8108      	LD   R16,Y
00226a 9508      	RET
                 
                 ;END OF CODE MARKER
                 __END_OF_CODE:


RESOURCE USE INFORMATION
------------------------

Notice:
The register and instruction counts are symbol table hit counts,
and hence implicitly used resources are not counted, eg, the
'lpm' instruction without operands implicitly uses r0 and z,
none of which are counted.

x,y,z are separate entities in the symbol table and are
counted separately from r26..r31 here.

.dseg memory usage only counts static data declared with .byte

ATmega128 register use summary:
r0 :  89 r1 :  19 r2 :  20 r3 :   0 r4 :   4 r5 :   1 r6 :  11 r7 :   3 
r8 :   2 r9 :   1 r10:  46 r11:  23 r12:   0 r13:   0 r14:   0 r15:   2 
r16:  33 r17:  64 r18:  26 r19:  13 r20:  12 r21:  42 r22:  69 r23:  53 
r24:  40 r25:  29 r26: 795 r27: 236 r28:  22 r29:   1 r30:1306 r31: 739 
x  :  40 y  : 278 z  :  10 
Registers used: 31 out of 35 (88.6%)

ATmega128 instruction use summary:
.lds  :   0 .lds.l:   0 .sts  :   0 .sts.l:   0 adc   :  16 add   :  18 
adiw  :  24 and   :   3 andi  :  35 asr   :   0 bclr  :   0 bld   :  14 
brbc  :   0 brbs  :   0 brcc  :   4 brcs  :   0 break :   0 breq  :  41 
brge  :  26 brhc  :   0 brhs  :   0 brid  :   0 brie  :   0 brlo  :  19 
brlt  :  14 brmi  :   5 brne  : 262 brpl  :   7 brsh  :  14 brtc  :   2 
brts  :   3 brvc  :   1 brvs  :   2 bset  :   0 bst   :   1 call  : 846 
cbi   :  40 cbr   :   0 clc   :   4 clh   :   0 cli   :   2 cln   :   0 
clr   :  34 cls   :   0 clt   :  10 clv   :   0 clz   :   2 com   :  10 
cp    :  39 cpc   : 209 cpi   : 243 cpse  :   0 dec   :  14 des   :   0 
elpm  :   0 eor   :   5 fmul  :   0 fmuls :   0 fmulsu:   0 icall :   4 
ijmp  :   0 in    :  16 inc   :   2 jmp   :  61 ld    :  73 ldd   :  38 
ldi   :1156 lds   : 212 lpm   :   9 lsl   :  26 lsr   :   6 mov   :  63 
movw  :  82 mul   :   3 muls  :   6 mulsu :   0 neg   :   4 nop   :   1 
or    :  28 ori   :  20 out   :  51 pop   :  14 push  :  13 rcall :  76 
ret   : 190 reti  :   6 rjmp  :1232 rol   :  37 ror   :  12 sbc   :   8 
sbci  :  20 sbi   :  38 sbic  : 408 sbis  : 386 sbiw  :  37 sbr   :   1 
sbrc  :   4 sbrs  :   8 sec   :   4 seh   :   0 sei   :   2 sen   :   0 
ser   :   9 ses   :   0 set   :  12 sev   :   0 sez   :   1 sleep :   0 
spm   :   0 st    : 205 std   :   4 sts   : 321 sub   :   5 subi  :  41 
swap  :   2 tst   :  16 wdr   :   1 
Instructions used: 83 out of 117 (70.9%)

ATmega128 memory use summary [bytes]:
Segment   Begin    End      Code   Data   Used    Size   Use%
---------------------------------------------------------------
[.cseg] 0x000000 0x0044d6  16764    858  17622  131072  13.4%
[.dseg] 0x000100 0x0007b3      0    691    691    4096  16.9%
[.eseg] 0x000000 0x000000      0      0      0    4096   0.0%

Assembly complete, 0 errors, 15 warnings
