
AVRASM ver. 2.1.30  C:\Users\Viktor\Documents\Projekte\Bluematics Robby\BlueMatics-Robby\Roboterprojekt-avr\Debug\List\project.asm Sat Dec 09 22:57:11 2017

C:\Users\Viktor\Documents\Projekte\Bluematics Robby\BlueMatics-Robby\Roboterprojekt-avr\Debug\List\project.asm(1090): warning: Register r4 already defined by the .DEF directive
C:\Users\Viktor\Documents\Projekte\Bluematics Robby\BlueMatics-Robby\Roboterprojekt-avr\Debug\List\project.asm(1091): warning: Register r5 already defined by the .DEF directive
C:\Users\Viktor\Documents\Projekte\Bluematics Robby\BlueMatics-Robby\Roboterprojekt-avr\Debug\List\project.asm(1092): warning: Register r6 already defined by the .DEF directive
C:\Users\Viktor\Documents\Projekte\Bluematics Robby\BlueMatics-Robby\Roboterprojekt-avr\Debug\List\project.asm(1093): warning: Register r7 already defined by the .DEF directive
C:\Users\Viktor\Documents\Projekte\Bluematics Robby\BlueMatics-Robby\Roboterprojekt-avr\Debug\List\project.asm(1094): warning: Register r8 already defined by the .DEF directive
C:\Users\Viktor\Documents\Projekte\Bluematics Robby\BlueMatics-Robby\Roboterprojekt-avr\Debug\List\project.asm(1095): warning: Register r9 already defined by the .DEF directive
C:\Users\Viktor\Documents\Projekte\Bluematics Robby\BlueMatics-Robby\Roboterprojekt-avr\Debug\List\project.asm(1096): warning: Register r10 already defined by the .DEF directive
C:\Users\Viktor\Documents\Projekte\Bluematics Robby\BlueMatics-Robby\Roboterprojekt-avr\Debug\List\project.asm(1097): warning: Register r11 already defined by the .DEF directive
C:\Users\Viktor\Documents\Projekte\Bluematics Robby\BlueMatics-Robby\Roboterprojekt-avr\Debug\List\project.asm(1098): warning: Register r12 already defined by the .DEF directive
C:\Users\Viktor\Documents\Projekte\Bluematics Robby\BlueMatics-Robby\Roboterprojekt-avr\Debug\List\project.asm(1099): warning: Register r13 already defined by the .DEF directive
                 
                 
                 ;CodeVisionAVR C Compiler V3.12 Advanced
                 ;(C) Copyright 1998-2014 Pavel Haiduc, HP InfoTech s.r.l.
                 ;http://www.hpinfotech.com
                 
                 ;Build configuration    : Debug
                 ;Chip type              : ATmega128
                 ;Program type           : Application
                 ;Clock frequency        : 16,000000 MHz
                 ;Memory model           : Small
                 ;Optimize for           : Size
                 ;(s)printf features     : int, width
                 ;(s)scanf features      : int, width
                 ;External RAM size      : 0
                 ;Data Stack size        : 1024 byte(s)
                 ;Heap size              : 0 byte(s)
                 ;Promote 'char' to 'int': Yes
                 ;'char' is unsigned     : Yes
                 ;8 bit enums            : Yes
                 ;Global 'const' stored in FLASH: Yes
                 ;Enhanced function parameter passing: Yes
                 ;Enhanced core instructions: On
                 ;Automatic register allocation for global variables: On
                 ;Smart register allocation: On
                 
                 	#define _MODEL_SMALL_
                 
                 	#pragma AVRPART ADMIN PART_NAME ATmega128
                 	#pragma AVRPART MEMORY PROG_FLASH 131072
                 	#pragma AVRPART MEMORY EEPROM 4096
                 	#pragma AVRPART MEMORY INT_SRAM SIZE 4096
                 	#pragma AVRPART MEMORY INT_SRAM START_ADDR 0x100
                 
                 	#define CALL_SUPPORTED 1
                 
                 	.LISTMAC
                 	.EQU UDRE=0x5
                 	.EQU RXC=0x7
                 	.EQU USR=0xB
                 	.EQU UDR=0xC
                 	.EQU SPSR=0xE
                 	.EQU SPDR=0xF
                 	.EQU EERE=0x0
                 	.EQU EEWE=0x1
                 	.EQU EEMWE=0x2
                 	.EQU EECR=0x1C
                 	.EQU EEDR=0x1D
                 	.EQU EEARL=0x1E
                 	.EQU EEARH=0x1F
                 	.EQU WDTCR=0x21
                 	.EQU MCUCR=0x35
                 	.EQU RAMPZ=0x3B
                 	.EQU SPL=0x3D
                 	.EQU SPH=0x3E
                 	.EQU SREG=0x3F
                 	.EQU XMCRA=0x6D
                 	.EQU XMCRB=0x6C
                 
                 	.DEF R0X0=R0
                 	.DEF R0X1=R1
                 	.DEF R0X2=R2
                 	.DEF R0X3=R3
                 	.DEF R0X4=R4
                 	.DEF R0X5=R5
                 	.DEF R0X6=R6
                 	.DEF R0X7=R7
                 	.DEF R0X8=R8
                 	.DEF R0X9=R9
                 	.DEF R0XA=R10
                 	.DEF R0XB=R11
                 	.DEF R0XC=R12
                 	.DEF R0XD=R13
                 	.DEF R0XE=R14
                 	.DEF R0XF=R15
                 	.DEF R0X10=R16
                 	.DEF R0X11=R17
                 	.DEF R0X12=R18
                 	.DEF R0X13=R19
                 	.DEF R0X14=R20
                 	.DEF R0X15=R21
                 	.DEF R0X16=R22
                 	.DEF R0X17=R23
                 	.DEF R0X18=R24
                 	.DEF R0X19=R25
                 	.DEF R0X1A=R26
                 	.DEF R0X1B=R27
                 	.DEF R0X1C=R28
                 	.DEF R0X1D=R29
                 	.DEF R0X1E=R30
                 	.DEF R0X1F=R31
                 
                 	.EQU __SRAM_START=0x0100
                 	.EQU __SRAM_END=0x10FF
                 	.EQU __DSTACK_SIZE=0x0400
                 	.EQU __HEAP_SIZE=0x0000
                 	.EQU __CLEAR_SRAM_SIZE=__SRAM_END-__SRAM_START+1
                 
                 	.MACRO __CPD1N
                 	CPI  R30,LOW(@0)
                 	LDI  R26,HIGH(@0)
                 	CPC  R31,R26
                 	LDI  R26,BYTE3(@0)
                 	CPC  R22,R26
                 	LDI  R26,BYTE4(@0)
                 	CPC  R23,R26
                 	.ENDM
                 
                 	.MACRO __CPD2N
                 	CPI  R26,LOW(@0)
                 	LDI  R30,HIGH(@0)
                 	CPC  R27,R30
                 	LDI  R30,BYTE3(@0)
                 	CPC  R24,R30
                 	LDI  R30,BYTE4(@0)
                 	CPC  R25,R30
                 	.ENDM
                 
                 	.MACRO __CPWRR
                 	CP   R@0,R@2
                 	CPC  R@1,R@3
                 	.ENDM
                 
                 	.MACRO __CPWRN
                 	CPI  R@0,LOW(@2)
                 	LDI  R30,HIGH(@2)
                 	CPC  R@1,R30
                 	.ENDM
                 
                 	.MACRO __ADDB1MN
                 	SUBI R30,LOW(-@0-(@1))
                 	.ENDM
                 
                 	.MACRO __ADDB2MN
                 	SUBI R26,LOW(-@0-(@1))
                 	.ENDM
                 
                 	.MACRO __ADDW1MN
                 	SUBI R30,LOW(-@0-(@1))
                 	SBCI R31,HIGH(-@0-(@1))
                 	.ENDM
                 
                 	.MACRO __ADDW2MN
                 	SUBI R26,LOW(-@0-(@1))
                 	SBCI R27,HIGH(-@0-(@1))
                 	.ENDM
                 
                 	.MACRO __ADDW1FN
                 	SUBI R30,LOW(-2*@0-(@1))
                 	SBCI R31,HIGH(-2*@0-(@1))
                 	.ENDM
                 
                 	.MACRO __ADDD1FN
                 	SUBI R30,LOW(-2*@0-(@1))
                 	SBCI R31,HIGH(-2*@0-(@1))
                 	SBCI R22,BYTE3(-2*@0-(@1))
                 	.ENDM
                 
                 	.MACRO __ADDD1N
                 	SUBI R30,LOW(-@0)
                 	SBCI R31,HIGH(-@0)
                 	SBCI R22,BYTE3(-@0)
                 	SBCI R23,BYTE4(-@0)
                 	.ENDM
                 
                 	.MACRO __ADDD2N
                 	SUBI R26,LOW(-@0)
                 	SBCI R27,HIGH(-@0)
                 	SBCI R24,BYTE3(-@0)
                 	SBCI R25,BYTE4(-@0)
                 	.ENDM
                 
                 	.MACRO __SUBD1N
                 	SUBI R30,LOW(@0)
                 	SBCI R31,HIGH(@0)
                 	SBCI R22,BYTE3(@0)
                 	SBCI R23,BYTE4(@0)
                 	.ENDM
                 
                 	.MACRO __SUBD2N
                 	SUBI R26,LOW(@0)
                 	SBCI R27,HIGH(@0)
                 	SBCI R24,BYTE3(@0)
                 	SBCI R25,BYTE4(@0)
                 	.ENDM
                 
                 	.MACRO __ANDBMNN
                 	LDS  R30,@0+(@1)
                 	ANDI R30,LOW(@2)
                 	STS  @0+(@1),R30
                 	.ENDM
                 
                 	.MACRO __ANDWMNN
                 	LDS  R30,@0+(@1)
                 	ANDI R30,LOW(@2)
                 	STS  @0+(@1),R30
                 	LDS  R30,@0+(@1)+1
                 	ANDI R30,HIGH(@2)
                 	STS  @0+(@1)+1,R30
                 	.ENDM
                 
                 	.MACRO __ANDD1N
                 	ANDI R30,LOW(@0)
                 	ANDI R31,HIGH(@0)
                 	ANDI R22,BYTE3(@0)
                 	ANDI R23,BYTE4(@0)
                 	.ENDM
                 
                 	.MACRO __ANDD2N
                 	ANDI R26,LOW(@0)
                 	ANDI R27,HIGH(@0)
                 	ANDI R24,BYTE3(@0)
                 	ANDI R25,BYTE4(@0)
                 	.ENDM
                 
                 	.MACRO __ORBMNN
                 	LDS  R30,@0+(@1)
                 	ORI  R30,LOW(@2)
                 	STS  @0+(@1),R30
                 	.ENDM
                 
                 	.MACRO __ORWMNN
                 	LDS  R30,@0+(@1)
                 	ORI  R30,LOW(@2)
                 	STS  @0+(@1),R30
                 	LDS  R30,@0+(@1)+1
                 	ORI  R30,HIGH(@2)
                 	STS  @0+(@1)+1,R30
                 	.ENDM
                 
                 	.MACRO __ORD1N
                 	ORI  R30,LOW(@0)
                 	ORI  R31,HIGH(@0)
                 	ORI  R22,BYTE3(@0)
                 	ORI  R23,BYTE4(@0)
                 	.ENDM
                 
                 	.MACRO __ORD2N
                 	ORI  R26,LOW(@0)
                 	ORI  R27,HIGH(@0)
                 	ORI  R24,BYTE3(@0)
                 	ORI  R25,BYTE4(@0)
                 	.ENDM
                 
                 	.MACRO __DELAY_USB
                 	LDI  R24,LOW(@0)
                 __DELAY_USB_LOOP:
                 	DEC  R24
                 	BRNE __DELAY_USB_LOOP
                 	.ENDM
                 
                 	.MACRO __DELAY_USW
                 	LDI  R24,LOW(@0)
                 	LDI  R25,HIGH(@0)
                 __DELAY_USW_LOOP:
                 	SBIW R24,1
                 	BRNE __DELAY_USW_LOOP
                 	.ENDM
                 
                 	.MACRO __GETD1S
                 	LDD  R30,Y+@0
                 	LDD  R31,Y+@0+1
                 	LDD  R22,Y+@0+2
                 	LDD  R23,Y+@0+3
                 	.ENDM
                 
                 	.MACRO __GETD2S
                 	LDD  R26,Y+@0
                 	LDD  R27,Y+@0+1
                 	LDD  R24,Y+@0+2
                 	LDD  R25,Y+@0+3
                 	.ENDM
                 
                 	.MACRO __PUTD1S
                 	STD  Y+@0,R30
                 	STD  Y+@0+1,R31
                 	STD  Y+@0+2,R22
                 	STD  Y+@0+3,R23
                 	.ENDM
                 
                 	.MACRO __PUTD2S
                 	STD  Y+@0,R26
                 	STD  Y+@0+1,R27
                 	STD  Y+@0+2,R24
                 	STD  Y+@0+3,R25
                 	.ENDM
                 
                 	.MACRO __PUTDZ2
                 	STD  Z+@0,R26
                 	STD  Z+@0+1,R27
                 	STD  Z+@0+2,R24
                 	STD  Z+@0+3,R25
                 	.ENDM
                 
                 	.MACRO __CLRD1S
                 	STD  Y+@0,R30
                 	STD  Y+@0+1,R30
                 	STD  Y+@0+2,R30
                 	STD  Y+@0+3,R30
                 	.ENDM
                 
                 	.MACRO __POINTB1MN
                 	LDI  R30,LOW(@0+(@1))
                 	.ENDM
                 
                 	.MACRO __POINTW1MN
                 	LDI  R30,LOW(@0+(@1))
                 	LDI  R31,HIGH(@0+(@1))
                 	.ENDM
                 
                 	.MACRO __POINTD1M
                 	LDI  R30,LOW(@0)
                 	LDI  R31,HIGH(@0)
                 	LDI  R22,BYTE3(@0)
                 	LDI  R23,BYTE4(@0)
                 	.ENDM
                 
                 	.MACRO __POINTW1FN
                 	LDI  R30,LOW(2*@0+(@1))
                 	LDI  R31,HIGH(2*@0+(@1))
                 	.ENDM
                 
                 	.MACRO __POINTD1FN
                 	LDI  R30,LOW(2*@0+(@1))
                 	LDI  R31,HIGH(2*@0+(@1))
                 	LDI  R22,BYTE3(2*@0+(@1))
                 	LDI  R23,BYTE4(2*@0+(@1))
                 	.ENDM
                 
                 	.MACRO __POINTB2MN
                 	LDI  R26,LOW(@0+(@1))
                 	.ENDM
                 
                 	.MACRO __POINTW2MN
                 	LDI  R26,LOW(@0+(@1))
                 	LDI  R27,HIGH(@0+(@1))
                 	.ENDM
                 
                 	.MACRO __POINTW2FN
                 	LDI  R26,LOW(2*@0+(@1))
                 	LDI  R27,HIGH(2*@0+(@1))
                 	.ENDM
                 
                 	.MACRO __POINTD2FN
                 	LDI  R26,LOW(2*@0+(@1))
                 	LDI  R27,HIGH(2*@0+(@1))
                 	LDI  R24,BYTE3(2*@0+(@1))
                 	LDI  R25,BYTE4(2*@0+(@1))
                 	.ENDM
                 
                 	.MACRO __POINTBRM
                 	LDI  R@0,LOW(@1)
                 	.ENDM
                 
                 	.MACRO __POINTWRM
                 	LDI  R@0,LOW(@2)
                 	LDI  R@1,HIGH(@2)
                 	.ENDM
                 
                 	.MACRO __POINTBRMN
                 	LDI  R@0,LOW(@1+(@2))
                 	.ENDM
                 
                 	.MACRO __POINTWRMN
                 	LDI  R@0,LOW(@2+(@3))
                 	LDI  R@1,HIGH(@2+(@3))
                 	.ENDM
                 
                 	.MACRO __POINTWRFN
                 	LDI  R@0,LOW(@2*2+(@3))
                 	LDI  R@1,HIGH(@2*2+(@3))
                 	.ENDM
                 
                 	.MACRO __GETD1N
                 	LDI  R30,LOW(@0)
                 	LDI  R31,HIGH(@0)
                 	LDI  R22,BYTE3(@0)
                 	LDI  R23,BYTE4(@0)
                 	.ENDM
                 
                 	.MACRO __GETD2N
                 	LDI  R26,LOW(@0)
                 	LDI  R27,HIGH(@0)
                 	LDI  R24,BYTE3(@0)
                 	LDI  R25,BYTE4(@0)
                 	.ENDM
                 
                 	.MACRO __GETB1MN
                 	LDS  R30,@0+(@1)
                 	.ENDM
                 
                 	.MACRO __GETB1HMN
                 	LDS  R31,@0+(@1)
                 	.ENDM
                 
                 	.MACRO __GETW1MN
                 	LDS  R30,@0+(@1)
                 	LDS  R31,@0+(@1)+1
                 	.ENDM
                 
                 	.MACRO __GETD1MN
                 	LDS  R30,@0+(@1)
                 	LDS  R31,@0+(@1)+1
                 	LDS  R22,@0+(@1)+2
                 	LDS  R23,@0+(@1)+3
                 	.ENDM
                 
                 	.MACRO __GETBRMN
                 	LDS  R@0,@1+(@2)
                 	.ENDM
                 
                 	.MACRO __GETWRMN
                 	LDS  R@0,@2+(@3)
                 	LDS  R@1,@2+(@3)+1
                 	.ENDM
                 
                 	.MACRO __GETWRZ
                 	LDD  R@0,Z+@2
                 	LDD  R@1,Z+@2+1
                 	.ENDM
                 
                 	.MACRO __GETD2Z
                 	LDD  R26,Z+@0
                 	LDD  R27,Z+@0+1
                 	LDD  R24,Z+@0+2
                 	LDD  R25,Z+@0+3
                 	.ENDM
                 
                 	.MACRO __GETB2MN
                 	LDS  R26,@0+(@1)
                 	.ENDM
                 
                 	.MACRO __GETW2MN
                 	LDS  R26,@0+(@1)
                 	LDS  R27,@0+(@1)+1
                 	.ENDM
                 
                 	.MACRO __GETD2MN
                 	LDS  R26,@0+(@1)
                 	LDS  R27,@0+(@1)+1
                 	LDS  R24,@0+(@1)+2
                 	LDS  R25,@0+(@1)+3
                 	.ENDM
                 
                 	.MACRO __PUTB1MN
                 	STS  @0+(@1),R30
                 	.ENDM
                 
                 	.MACRO __PUTW1MN
                 	STS  @0+(@1),R30
                 	STS  @0+(@1)+1,R31
                 	.ENDM
                 
                 	.MACRO __PUTD1MN
                 	STS  @0+(@1),R30
                 	STS  @0+(@1)+1,R31
                 	STS  @0+(@1)+2,R22
                 	STS  @0+(@1)+3,R23
                 	.ENDM
                 
                 	.MACRO __PUTB1EN
                 	LDI  R26,LOW(@0+(@1))
                 	LDI  R27,HIGH(@0+(@1))
                 	CALL __EEPROMWRB
                 	.ENDM
                 
                 	.MACRO __PUTW1EN
                 	LDI  R26,LOW(@0+(@1))
                 	LDI  R27,HIGH(@0+(@1))
                 	CALL __EEPROMWRW
                 	.ENDM
                 
                 	.MACRO __PUTD1EN
                 	LDI  R26,LOW(@0+(@1))
                 	LDI  R27,HIGH(@0+(@1))
                 	CALL __EEPROMWRD
                 	.ENDM
                 
                 	.MACRO __PUTBR0MN
                 	STS  @0+(@1),R0
                 	.ENDM
                 
                 	.MACRO __PUTBMRN
                 	STS  @0+(@1),R@2
                 	.ENDM
                 
                 	.MACRO __PUTWMRN
                 	STS  @0+(@1),R@2
                 	STS  @0+(@1)+1,R@3
                 	.ENDM
                 
                 	.MACRO __PUTBZR
                 	STD  Z+@1,R@0
                 	.ENDM
                 
                 	.MACRO __PUTWZR
                 	STD  Z+@2,R@0
                 	STD  Z+@2+1,R@1
                 	.ENDM
                 
                 	.MACRO __GETW1R
                 	MOV  R30,R@0
                 	MOV  R31,R@1
                 	.ENDM
                 
                 	.MACRO __GETW2R
                 	MOV  R26,R@0
                 	MOV  R27,R@1
                 	.ENDM
                 
                 	.MACRO __GETWRN
                 	LDI  R@0,LOW(@2)
                 	LDI  R@1,HIGH(@2)
                 	.ENDM
                 
                 	.MACRO __PUTW1R
                 	MOV  R@0,R30
                 	MOV  R@1,R31
                 	.ENDM
                 
                 	.MACRO __PUTW2R
                 	MOV  R@0,R26
                 	MOV  R@1,R27
                 	.ENDM
                 
                 	.MACRO __ADDWRN
                 	SUBI R@0,LOW(-@2)
                 	SBCI R@1,HIGH(-@2)
                 	.ENDM
                 
                 	.MACRO __ADDWRR
                 	ADD  R@0,R@2
                 	ADC  R@1,R@3
                 	.ENDM
                 
                 	.MACRO __SUBWRN
                 	SUBI R@0,LOW(@2)
                 	SBCI R@1,HIGH(@2)
                 	.ENDM
                 
                 	.MACRO __SUBWRR
                 	SUB  R@0,R@2
                 	SBC  R@1,R@3
                 	.ENDM
                 
                 	.MACRO __ANDWRN
                 	ANDI R@0,LOW(@2)
                 	ANDI R@1,HIGH(@2)
                 	.ENDM
                 
                 	.MACRO __ANDWRR
                 	AND  R@0,R@2
                 	AND  R@1,R@3
                 	.ENDM
                 
                 	.MACRO __ORWRN
                 	ORI  R@0,LOW(@2)
                 	ORI  R@1,HIGH(@2)
                 	.ENDM
                 
                 	.MACRO __ORWRR
                 	OR   R@0,R@2
                 	OR   R@1,R@3
                 	.ENDM
                 
                 	.MACRO __EORWRR
                 	EOR  R@0,R@2
                 	EOR  R@1,R@3
                 	.ENDM
                 
                 	.MACRO __GETWRS
                 	LDD  R@0,Y+@2
                 	LDD  R@1,Y+@2+1
                 	.ENDM
                 
                 	.MACRO __PUTBSR
                 	STD  Y+@1,R@0
                 	.ENDM
                 
                 	.MACRO __PUTWSR
                 	STD  Y+@2,R@0
                 	STD  Y+@2+1,R@1
                 	.ENDM
                 
                 	.MACRO __MOVEWRR
                 	MOV  R@0,R@2
                 	MOV  R@1,R@3
                 	.ENDM
                 
                 	.MACRO __INWR
                 	IN   R@0,@2
                 	IN   R@1,@2+1
                 	.ENDM
                 
                 	.MACRO __OUTWR
                 	OUT  @2+1,R@1
                 	OUT  @2,R@0
                 	.ENDM
                 
                 	.MACRO __CALL1MN
                 	LDS  R30,@0+(@1)
                 	LDS  R31,@0+(@1)+1
                 	ICALL
                 	.ENDM
                 
                 	.MACRO __CALL1FN
                 	LDI  R30,LOW(2*@0+(@1))
                 	LDI  R31,HIGH(2*@0+(@1))
                 	CALL __GETW1PF
                 	ICALL
                 	.ENDM
                 
                 	.MACRO __CALL2EN
                 	PUSH R26
                 	PUSH R27
                 	LDI  R26,LOW(@0+(@1))
                 	LDI  R27,HIGH(@0+(@1))
                 	CALL __EEPROMRDW
                 	POP  R27
                 	POP  R26
                 	ICALL
                 	.ENDM
                 
                 	.MACRO __CALL2EX
                 	SUBI R26,LOW(-@0)
                 	SBCI R27,HIGH(-@0)
                 	CALL __EEPROMRDD
                 	ICALL
                 	.ENDM
                 
                 	.MACRO __GETW1STACK
                 	IN   R30,SPL
                 	IN   R31,SPH
                 	ADIW R30,@0+1
                 	LD   R0,Z+
                 	LD   R31,Z
                 	MOV  R30,R0
                 	.ENDM
                 
                 	.MACRO __GETD1STACK
                 	IN   R30,SPL
                 	IN   R31,SPH
                 	ADIW R30,@0+1
                 	LD   R0,Z+
                 	LD   R1,Z+
                 	LD   R22,Z
                 	MOVW R30,R0
                 	.ENDM
                 
                 	.MACRO __NBST
                 	BST  R@0,@1
                 	IN   R30,SREG
                 	LDI  R31,0x40
                 	EOR  R30,R31
                 	OUT  SREG,R30
                 	.ENDM
                 
                 
                 	.MACRO __PUTB1SN
                 	LDD  R26,Y+@0
                 	LDD  R27,Y+@0+1
                 	SUBI R26,LOW(-@1)
                 	SBCI R27,HIGH(-@1)
                 	ST   X,R30
                 	.ENDM
                 
                 	.MACRO __PUTW1SN
                 	LDD  R26,Y+@0
                 	LDD  R27,Y+@0+1
                 	SUBI R26,LOW(-@1)
                 	SBCI R27,HIGH(-@1)
                 	ST   X+,R30
                 	ST   X,R31
                 	.ENDM
                 
                 	.MACRO __PUTD1SN
                 	LDD  R26,Y+@0
                 	LDD  R27,Y+@0+1
                 	SUBI R26,LOW(-@1)
                 	SBCI R27,HIGH(-@1)
                 	CALL __PUTDP1
                 	.ENDM
                 
                 	.MACRO __PUTB1SNS
                 	LDD  R26,Y+@0
                 	LDD  R27,Y+@0+1
                 	ADIW R26,@1
                 	ST   X,R30
                 	.ENDM
                 
                 	.MACRO __PUTW1SNS
                 	LDD  R26,Y+@0
                 	LDD  R27,Y+@0+1
                 	ADIW R26,@1
                 	ST   X+,R30
                 	ST   X,R31
                 	.ENDM
                 
                 	.MACRO __PUTD1SNS
                 	LDD  R26,Y+@0
                 	LDD  R27,Y+@0+1
                 	ADIW R26,@1
                 	CALL __PUTDP1
                 	.ENDM
                 
                 	.MACRO __PUTB1PMN
                 	LDS  R26,@0
                 	LDS  R27,@0+1
                 	SUBI R26,LOW(-@1)
                 	SBCI R27,HIGH(-@1)
                 	ST   X,R30
                 	.ENDM
                 
                 	.MACRO __PUTW1PMN
                 	LDS  R26,@0
                 	LDS  R27,@0+1
                 	SUBI R26,LOW(-@1)
                 	SBCI R27,HIGH(-@1)
                 	ST   X+,R30
                 	ST   X,R31
                 	.ENDM
                 
                 	.MACRO __PUTD1PMN
                 	LDS  R26,@0
                 	LDS  R27,@0+1
                 	SUBI R26,LOW(-@1)
                 	SBCI R27,HIGH(-@1)
                 	CALL __PUTDP1
                 	.ENDM
                 
                 	.MACRO __PUTB1PMNS
                 	LDS  R26,@0
                 	LDS  R27,@0+1
                 	ADIW R26,@1
                 	ST   X,R30
                 	.ENDM
                 
                 	.MACRO __PUTW1PMNS
                 	LDS  R26,@0
                 	LDS  R27,@0+1
                 	ADIW R26,@1
                 	ST   X+,R30
                 	ST   X,R31
                 	.ENDM
                 
                 	.MACRO __PUTD1PMNS
                 	LDS  R26,@0
                 	LDS  R27,@0+1
                 	ADIW R26,@1
                 	CALL __PUTDP1
                 	.ENDM
                 
                 	.MACRO __PUTB1RN
                 	MOVW R26,R@0
                 	SUBI R26,LOW(-@1)
                 	SBCI R27,HIGH(-@1)
                 	ST   X,R30
                 	.ENDM
                 
                 	.MACRO __PUTW1RN
                 	MOVW R26,R@0
                 	SUBI R26,LOW(-@1)
                 	SBCI R27,HIGH(-@1)
                 	ST   X+,R30
                 	ST   X,R31
                 	.ENDM
                 
                 	.MACRO __PUTD1RN
                 	MOVW R26,R@0
                 	SUBI R26,LOW(-@1)
                 	SBCI R27,HIGH(-@1)
                 	CALL __PUTDP1
                 	.ENDM
                 
                 	.MACRO __PUTB1RNS
                 	MOVW R26,R@0
                 	ADIW R26,@1
                 	ST   X,R30
                 	.ENDM
                 
                 	.MACRO __PUTW1RNS
                 	MOVW R26,R@0
                 	ADIW R26,@1
                 	ST   X+,R30
                 	ST   X,R31
                 	.ENDM
                 
                 	.MACRO __PUTD1RNS
                 	MOVW R26,R@0
                 	ADIW R26,@1
                 	CALL __PUTDP1
                 	.ENDM
                 
                 	.MACRO __PUTB1RON
                 	MOV  R26,R@0
                 	MOV  R27,R@1
                 	SUBI R26,LOW(-@2)
                 	SBCI R27,HIGH(-@2)
                 	ST   X,R30
                 	.ENDM
                 
                 	.MACRO __PUTW1RON
                 	MOV  R26,R@0
                 	MOV  R27,R@1
                 	SUBI R26,LOW(-@2)
                 	SBCI R27,HIGH(-@2)
                 	ST   X+,R30
                 	ST   X,R31
                 	.ENDM
                 
                 	.MACRO __PUTD1RON
                 	MOV  R26,R@0
                 	MOV  R27,R@1
                 	SUBI R26,LOW(-@2)
                 	SBCI R27,HIGH(-@2)
                 	CALL __PUTDP1
                 	.ENDM
                 
                 	.MACRO __PUTB1RONS
                 	MOV  R26,R@0
                 	MOV  R27,R@1
                 	ADIW R26,@2
                 	ST   X,R30
                 	.ENDM
                 
                 	.MACRO __PUTW1RONS
                 	MOV  R26,R@0
                 	MOV  R27,R@1
                 	ADIW R26,@2
                 	ST   X+,R30
                 	ST   X,R31
                 	.ENDM
                 
                 	.MACRO __PUTD1RONS
                 	MOV  R26,R@0
                 	MOV  R27,R@1
                 	ADIW R26,@2
                 	CALL __PUTDP1
                 	.ENDM
                 
                 
                 	.MACRO __GETB1SX
                 	MOVW R30,R28
                 	SUBI R30,LOW(-@0)
                 	SBCI R31,HIGH(-@0)
                 	LD   R30,Z
                 	.ENDM
                 
                 	.MACRO __GETB1HSX
                 	MOVW R30,R28
                 	SUBI R30,LOW(-@0)
                 	SBCI R31,HIGH(-@0)
                 	LD   R31,Z
                 	.ENDM
                 
                 	.MACRO __GETW1SX
                 	MOVW R30,R28
                 	SUBI R30,LOW(-@0)
                 	SBCI R31,HIGH(-@0)
                 	LD   R0,Z+
                 	LD   R31,Z
                 	MOV  R30,R0
                 	.ENDM
                 
                 	.MACRO __GETD1SX
                 	MOVW R30,R28
                 	SUBI R30,LOW(-@0)
                 	SBCI R31,HIGH(-@0)
                 	LD   R0,Z+
                 	LD   R1,Z+
                 	LD   R22,Z+
                 	LD   R23,Z
                 	MOVW R30,R0
                 	.ENDM
                 
                 	.MACRO __GETB2SX
                 	MOVW R26,R28
                 	SUBI R26,LOW(-@0)
                 	SBCI R27,HIGH(-@0)
                 	LD   R26,X
                 	.ENDM
                 
                 	.MACRO __GETW2SX
                 	MOVW R26,R28
                 	SUBI R26,LOW(-@0)
                 	SBCI R27,HIGH(-@0)
                 	LD   R0,X+
                 	LD   R27,X
                 	MOV  R26,R0
                 	.ENDM
                 
                 	.MACRO __GETD2SX
                 	MOVW R26,R28
                 	SUBI R26,LOW(-@0)
                 	SBCI R27,HIGH(-@0)
                 	LD   R0,X+
                 	LD   R1,X+
                 	LD   R24,X+
                 	LD   R25,X
                 	MOVW R26,R0
                 	.ENDM
                 
                 	.MACRO __GETBRSX
                 	MOVW R30,R28
                 	SUBI R30,LOW(-@1)
                 	SBCI R31,HIGH(-@1)
                 	LD   R@0,Z
                 	.ENDM
                 
                 	.MACRO __GETWRSX
                 	MOVW R30,R28
                 	SUBI R30,LOW(-@2)
                 	SBCI R31,HIGH(-@2)
                 	LD   R@0,Z+
                 	LD   R@1,Z
                 	.ENDM
                 
                 	.MACRO __GETBRSX2
                 	MOVW R26,R28
                 	SUBI R26,LOW(-@1)
                 	SBCI R27,HIGH(-@1)
                 	LD   R@0,X
                 	.ENDM
                 
                 	.MACRO __GETWRSX2
                 	MOVW R26,R28
                 	SUBI R26,LOW(-@2)
                 	SBCI R27,HIGH(-@2)
                 	LD   R@0,X+
                 	LD   R@1,X
                 	.ENDM
                 
                 	.MACRO __LSLW8SX
                 	MOVW R30,R28
                 	SUBI R30,LOW(-@0)
                 	SBCI R31,HIGH(-@0)
                 	LD   R31,Z
                 	CLR  R30
                 	.ENDM
                 
                 	.MACRO __PUTB1SX
                 	MOVW R26,R28
                 	SUBI R26,LOW(-@0)
                 	SBCI R27,HIGH(-@0)
                 	ST   X,R30
                 	.ENDM
                 
                 	.MACRO __PUTW1SX
                 	MOVW R26,R28
                 	SUBI R26,LOW(-@0)
                 	SBCI R27,HIGH(-@0)
                 	ST   X+,R30
                 	ST   X,R31
                 	.ENDM
                 
                 	.MACRO __PUTD1SX
                 	MOVW R26,R28
                 	SUBI R26,LOW(-@0)
                 	SBCI R27,HIGH(-@0)
                 	ST   X+,R30
                 	ST   X+,R31
                 	ST   X+,R22
                 	ST   X,R23
                 	.ENDM
                 
                 	.MACRO __CLRW1SX
                 	MOVW R26,R28
                 	SUBI R26,LOW(-@0)
                 	SBCI R27,HIGH(-@0)
                 	ST   X+,R30
                 	ST   X,R30
                 	.ENDM
                 
                 	.MACRO __CLRD1SX
                 	MOVW R26,R28
                 	SUBI R26,LOW(-@0)
                 	SBCI R27,HIGH(-@0)
                 	ST   X+,R30
                 	ST   X+,R30
                 	ST   X+,R30
                 	ST   X,R30
                 	.ENDM
                 
                 	.MACRO __PUTB2SX
                 	MOVW R30,R28
                 	SUBI R30,LOW(-@0)
                 	SBCI R31,HIGH(-@0)
                 	ST   Z,R26
                 	.ENDM
                 
                 	.MACRO __PUTW2SX
                 	MOVW R30,R28
                 	SUBI R30,LOW(-@0)
                 	SBCI R31,HIGH(-@0)
                 	ST   Z+,R26
                 	ST   Z,R27
                 	.ENDM
                 
                 	.MACRO __PUTD2SX
                 	MOVW R30,R28
                 	SUBI R30,LOW(-@0)
                 	SBCI R31,HIGH(-@0)
                 	ST   Z+,R26
                 	ST   Z+,R27
                 	ST   Z+,R24
                 	ST   Z,R25
                 	.ENDM
                 
                 	.MACRO __PUTBSRX
                 	MOVW R30,R28
                 	SUBI R30,LOW(-@1)
                 	SBCI R31,HIGH(-@1)
                 	ST   Z,R@0
                 	.ENDM
                 
                 	.MACRO __PUTWSRX
                 	MOVW R30,R28
                 	SUBI R30,LOW(-@2)
                 	SBCI R31,HIGH(-@2)
                 	ST   Z+,R@0
                 	ST   Z,R@1
                 	.ENDM
                 
                 	.MACRO __PUTB1SNX
                 	MOVW R26,R28
                 	SUBI R26,LOW(-@0)
                 	SBCI R27,HIGH(-@0)
                 	LD   R0,X+
                 	LD   R27,X
                 	MOV  R26,R0
                 	SUBI R26,LOW(-@1)
                 	SBCI R27,HIGH(-@1)
                 	ST   X,R30
                 	.ENDM
                 
                 	.MACRO __PUTW1SNX
                 	MOVW R26,R28
                 	SUBI R26,LOW(-@0)
                 	SBCI R27,HIGH(-@0)
                 	LD   R0,X+
                 	LD   R27,X
                 	MOV  R26,R0
                 	SUBI R26,LOW(-@1)
                 	SBCI R27,HIGH(-@1)
                 	ST   X+,R30
                 	ST   X,R31
                 	.ENDM
                 
                 	.MACRO __PUTD1SNX
                 	MOVW R26,R28
                 	SUBI R26,LOW(-@0)
                 	SBCI R27,HIGH(-@0)
                 	LD   R0,X+
                 	LD   R27,X
                 	MOV  R26,R0
                 	SUBI R26,LOW(-@1)
                 	SBCI R27,HIGH(-@1)
                 	ST   X+,R30
                 	ST   X+,R31
                 	ST   X+,R22
                 	ST   X,R23
                 	.ENDM
                 
                 	.MACRO __MULBRR
                 	MULS R@0,R@1
                 	MOVW R30,R0
                 	.ENDM
                 
                 	.MACRO __MULBRRU
                 	MUL  R@0,R@1
                 	MOVW R30,R0
                 	.ENDM
                 
                 	.MACRO __MULBRR0
                 	MULS R@0,R@1
                 	.ENDM
                 
                 	.MACRO __MULBRRU0
                 	MUL  R@0,R@1
                 	.ENDM
                 
                 	.MACRO __MULBNWRU
                 	LDI  R26,@2
                 	MUL  R26,R@0
                 	MOVW R30,R0
                 	MUL  R26,R@1
                 	ADD  R31,R0
                 	.ENDM
                 
                 ;NAME DEFINITIONS FOR GLOBAL VARIABLES ALLOCATED TO REGISTERS
                 	.DEF _currstate=R4
                 	.DEF _currstate_msb=R5
                 	.DEF _state=R6
                 	.DEF _state_msb=R7
                 	.DEF _line_left=R8
                 	.DEF _line_left_msb=R9
                 	.DEF _line_mleft=R10
                 	.DEF _line_mleft_msb=R11
                 	.DEF _line_mright=R12
                 	.DEF _line_mright_msb=R13
                 
                 	.CSEG
                 	.ORG 0x00
                 
                 ;START OF CODE MARKER
                 __START_OF_CODE:
                 
                 ;INTERRUPT VECTORS
000000 940c 0272 	JMP  __RESET
000002 940c 0000 	JMP  0x00
000004 940c 0000 	JMP  0x00
000006 940c 0000 	JMP  0x00
000008 940c 0000 	JMP  0x00
00000a 940c 02d0 	JMP  _ext_int4_isr
00000c 940c 0000 	JMP  0x00
00000e 940c 02e0 	JMP  _ext_int6_isr
000010 940c 0000 	JMP  0x00
000012 940c 0000 	JMP  0x00
000014 940c 033e 	JMP  _timer2_ovf_isr
000016 940c 0000 	JMP  0x00
000018 940c 0000 	JMP  0x00
00001a 940c 0000 	JMP  0x00
00001c 940c 0000 	JMP  0x00
00001e 940c 0000 	JMP  0x00
000020 940c 037c 	JMP  _timer0_ovf_isr
000022 940c 0000 	JMP  0x00
000024 940c 0000 	JMP  0x00
000026 940c 0000 	JMP  0x00
000028 940c 0000 	JMP  0x00
00002a 940c 02a2 	JMP  _adc_isr
00002c 940c 0000 	JMP  0x00
00002e 940c 0000 	JMP  0x00
000030 940c 0000 	JMP  0x00
000032 940c 05a3 	JMP  _timer3_capt_isr
000034 940c 05e3 	JMP  _timer3_compa_isr
000036 940c 0000 	JMP  0x00
000038 940c 0000 	JMP  0x00
00003a 940c 0000 	JMP  0x00
00003c 940c 0000 	JMP  0x00
00003e 940c 0000 	JMP  0x00
000040 940c 0000 	JMP  0x00
000042 940c 0a33 	JMP  _twi_int_handler
000044 940c 0000 	JMP  0x00
                 
                 _tbl10_G102:
000046 2710
000047 03e8
000048 0064
000049 000a      	.DB  0x10,0x27,0xE8,0x3,0x64,0x0,0xA,0x0
00004a 0001      	.DB  0x1,0x0
                 _tbl16_G102:
00004b 1000
00004c 0100
00004d 0010
00004e 0001      	.DB  0x0,0x10,0x0,0x1,0x10,0x0,0x1,0x0
                 
                 ;REGISTER BIT VARIABLES INITIALIZATION
                 __REG_BIT_VARS:
00004f 000b      	.DW  0x000B
                 
                 ;GLOBAL REGISTER VARIABLES INITIALIZATION
                 __REG_VARS:
000050 0000
000051 0011      	.DB  0x0,0x0,0x11,0x0
                 
                 _0x3:
000052 015e      	.DB  0x5E,0x1
                 _0x4:
000053 0fa0      	.DB  0xA0,0xF
                 _0x5:
C:\Users\Viktor\Documents\Projekte\Bluematics Robby\BlueMatics-Robby\Roboterprojekt-avr\Debug\List\project.asm(1163): warning: .cseg .db misalignment - padding zero byte
000054 0001      	.DB  0x1
                 _0x6:
C:\Users\Viktor\Documents\Projekte\Bluematics Robby\BlueMatics-Robby\Roboterprojekt-avr\Debug\List\project.asm(1165): warning: .cseg .db misalignment - padding zero byte
000055 00aa      	.DB  0xAA
                 _0x7:
C:\Users\Viktor\Documents\Projekte\Bluematics Robby\BlueMatics-Robby\Roboterprojekt-avr\Debug\List\project.asm(1167): warning: .cseg .db misalignment - padding zero byte
000056 000a      	.DB  0xA
                 _0x0:
000057 4f50
000058 4953
000059 4954
00005a 4e4f      	.DB  0x50,0x4F,0x53,0x49,0x54,0x49,0x4F,0x4E
00005b 532d
00005c 5245
00005d 4f56
00005e 4400      	.DB  0x2D,0x53,0x45,0x52,0x56,0x4F,0x0,0x44
00005f 5441
000060 0041
000061 454c
000062 5446      	.DB  0x41,0x54,0x41,0x0,0x4C,0x45,0x46,0x54
000063 203a
000064 0031
000065 454c
000066 5446      	.DB  0x3A,0x20,0x31,0x0,0x4C,0x45,0x46,0x54
000067 203a
000068 0030
000069 5220
00006a 4749      	.DB  0x3A,0x20,0x30,0x0,0x20,0x52,0x49,0x47
00006b 5448
00006c 203a
00006d 0031
00006e 5220      	.DB  0x48,0x54,0x3A,0x20,0x31,0x0,0x20,0x52
00006f 4749
000070 5448
000071 203a
000072 0030      	.DB  0x49,0x47,0x48,0x54,0x3A,0x20,0x30,0x0
000073 4c4d
000074 4645
000075 3a54
000076 3120      	.DB  0x4D,0x4C,0x45,0x46,0x54,0x3A,0x20,0x31
000077 4d00
000078 454c
000079 5446
00007a 203a      	.DB  0x0,0x4D,0x4C,0x45,0x46,0x54,0x3A,0x20
00007b 0030
00007c 524d
00007d 4749
00007e 5448      	.DB  0x30,0x0,0x4D,0x52,0x49,0x47,0x48,0x54
00007f 313a
000080 4d00
000081 4952
000082 4847      	.DB  0x3A,0x31,0x0,0x4D,0x52,0x49,0x47,0x48
000083 3a54
000084 0030
000085 2020
000086 2020      	.DB  0x54,0x3A,0x30,0x0,0x20,0x20,0x20,0x20
000087 4520
000088 434e
000089 444f
00008a 5245      	.DB  0x20,0x45,0x4E,0x43,0x4F,0x44,0x45,0x52
00008b 2020
00008c 3e3e
00008d 3c00
00008e 203c      	.DB  0x20,0x20,0x3E,0x3E,0x0,0x3C,0x3C,0x20
00008f 2020
000090 4e45
000091 4f43
000092 4544      	.DB  0x20,0x20,0x45,0x4E,0x43,0x4F,0x44,0x45
000093 2052
000094 2020
000095 0020
000096 3a4c      	.DB  0x52,0x20,0x20,0x20,0x20,0x0,0x4C,0x3A
000097 2000
000098 3a52
000099 2000
00009a 2020      	.DB  0x0,0x20,0x52,0x3A,0x0,0x20,0x20,0x20
00009b 2020
00009c 4552
00009d 4843
00009e 5354      	.DB  0x20,0x20,0x52,0x45,0x43,0x48,0x54,0x53
00009f 2020
0000a0 2020
0000a1 2000
0000a2 2020      	.DB  0x20,0x20,0x20,0x20,0x0,0x20,0x20,0x20
0000a3 2020
0000a4 494c
0000a5 4b4e
0000a6 2053      	.DB  0x20,0x20,0x4C,0x49,0x4E,0x4B,0x53,0x20
0000a7 2020
0000a8 0020
0000a9 4c46
0000aa 4645      	.DB  0x20,0x20,0x20,0x0,0x46,0x4C,0x45,0x46
0000ab 3a54
0000ac 3120
0000ad 4600
0000ae 454c      	.DB  0x54,0x3A,0x20,0x31,0x0,0x46,0x4C,0x45
0000af 5446
0000b0 203a
0000b1 0030
0000b2 5246      	.DB  0x46,0x54,0x3A,0x20,0x30,0x0,0x46,0x52
0000b3 4749
0000b4 5448
0000b5 313a
0000b6 4600      	.DB  0x49,0x47,0x48,0x54,0x3A,0x31,0x0,0x46
0000b7 4952
0000b8 4847
0000b9 3a54
0000ba 0030      	.DB  0x52,0x49,0x47,0x48,0x54,0x3A,0x30,0x0
0000bb 454c
0000bc 5446
0000bd 003a
0000be 4952      	.DB  0x4C,0x45,0x46,0x54,0x3A,0x0,0x52,0x49
0000bf 4847
0000c0 3a54
0000c1 4e00
0000c2 206f      	.DB  0x47,0x48,0x54,0x3A,0x0,0x4E,0x6F,0x20
0000c3 624f
0000c4 656a
0000c5 7463
0000c6 0021      	.DB  0x4F,0x62,0x6A,0x65,0x63,0x74,0x21,0x0
0000c7 624f
0000c8 656a
0000c9 746b
0000ca 6720      	.DB  0x4F,0x62,0x6A,0x65,0x6B,0x74,0x20,0x67
0000cb 6665
0000cc 6e75
0000cd 6564
0000ce 006e      	.DB  0x65,0x66,0x75,0x6E,0x64,0x65,0x6E,0x0
0000cf 654b
0000d0 6e69
0000d1 4f20
0000d2 6a62      	.DB  0x4B,0x65,0x69,0x6E,0x20,0x4F,0x62,0x6A
0000d3 6b65
0000d4 0074
0000d5 2020
0000d6 494c      	.DB  0x65,0x6B,0x74,0x0,0x20,0x20,0x4C,0x49
0000d7 454e
0000d8 4544
0000d9 4554
0000da 5443      	.DB  0x4E,0x45,0x44,0x45,0x54,0x45,0x43,0x54
0000db 524f
0000dc 2020
0000dd 2000
0000de 2020      	.DB  0x4F,0x52,0x20,0x20,0x0,0x20,0x20,0x20
0000df 2020
0000e0 4f4d
0000e1 4f54
0000e2 4552      	.DB  0x20,0x20,0x4D,0x4F,0x54,0x4F,0x52,0x45
0000e3 204e
0000e4 2020
0000e5 0020
0000e6 2020      	.DB  0x4E,0x20,0x20,0x20,0x20,0x0,0x20,0x20
0000e7 2020
0000e8 4c20
0000e9 4e45
0000ea 554b      	.DB  0x20,0x20,0x20,0x4C,0x45,0x4E,0x4B,0x55
0000eb 474e
0000ec 2020
0000ed 2020
0000ee 2000      	.DB  0x4E,0x47,0x20,0x20,0x20,0x20,0x0,0x20
0000ef 4944
0000f0 5453
0000f1 4e41
0000f2 205a      	.DB  0x44,0x49,0x53,0x54,0x41,0x4E,0x5A,0x20
0000f3 4553
0000f4 534e
0000f5 524f
0000f6 0020      	.DB  0x53,0x45,0x4E,0x53,0x4F,0x52,0x20,0x0
0000f7 2020
0000f8 494c
0000f9 4843
0000fa 2054      	.DB  0x20,0x20,0x4C,0x49,0x43,0x48,0x54,0x20
0000fb 4553
0000fc 534e
0000fd 524f
0000fe 2020      	.DB  0x53,0x45,0x4E,0x53,0x4F,0x52,0x20,0x20
0000ff 2000
000100 2020
000101 2020
000102 4957      	.DB  0x0,0x20,0x20,0x20,0x20,0x20,0x57,0x49
000103 2049
000104 4143
000105 204d
000106 2020      	.DB  0x49,0x20,0x43,0x41,0x4D,0x20,0x20,0x20
000107 2000
000108 2020
000109 4920
00010a 2052      	.DB  0x0,0x20,0x20,0x20,0x20,0x49,0x52,0x20
00010b 4f54
00010c 4557
00010d 2052
00010e 2020      	.DB  0x54,0x4F,0x57,0x45,0x52,0x20,0x20,0x20
00010f 0020
000110 2020
000111 2020
000112 5320      	.DB  0x20,0x0,0x20,0x20,0x20,0x20,0x20,0x53
000113 5245
000114 4f56
000115 2020
000116 2020      	.DB  0x45,0x52,0x56,0x4F,0x20,0x20,0x20,0x20
000117 2000
000118 2020
000119 4c55
00011a 5254      	.DB  0x0,0x20,0x20,0x20,0x55,0x4C,0x54,0x52
00011b 5341
00011c 4843
00011d 4c41
00011e 204c      	.DB  0x41,0x53,0x43,0x48,0x41,0x4C,0x4C,0x20
00011f 0020
000120 2020
000121 2020
000122 2020      	.DB  0x20,0x0,0x20,0x20,0x20,0x20,0x20,0x20
000123 4f56
000124 2052
000125 2020
000126 2020      	.DB  0x56,0x4F,0x52,0x20,0x20,0x20,0x20,0x20
000127 2020
000128 2000
000129 2020
00012a 2020      	.DB  0x20,0x20,0x0,0x20,0x20,0x20,0x20,0x20
00012b 5a20
00012c 5255
00012d 2020
00012e 2020      	.DB  0x20,0x5A,0x55,0x52,0x20,0x20,0x20,0x20
00012f 2020
000130 0020
000131 2020
000132 2020      	.DB  0x20,0x20,0x20,0x0,0x20,0x20,0x20,0x20
000133 2020
000134 494c
000135 4b4e
000136 2053      	.DB  0x20,0x20,0x4C,0x49,0x4E,0x4B,0x53,0x20
000137 2020
000138 2020
000139 0020
00013a 2020      	.DB  0x20,0x20,0x20,0x20,0x20,0x0,0x20,0x20
00013b 2020
00013c 5220
00013d 4345
00013e 5448      	.DB  0x20,0x20,0x20,0x52,0x45,0x43,0x48,0x54
00013f 2053
000140 2020
000141 2020
000142 2000      	.DB  0x53,0x20,0x20,0x20,0x20,0x20,0x0,0x20
000143 2020
000144 2020
000145 3039
000146 494c      	.DB  0x20,0x20,0x20,0x20,0x39,0x30,0x4C,0x49
000147 4b4e
000148 2053
000149 2020
00014a 2020      	.DB  0x4E,0x4B,0x53,0x20,0x20,0x20,0x20,0x20
00014b 2000
00014c 2020
00014d 3920
00014e 5230      	.DB  0x0,0x20,0x20,0x20,0x20,0x39,0x30,0x52
00014f 4345
000150 5448
000151 2053
000152 2020      	.DB  0x45,0x43,0x48,0x54,0x53,0x20,0x20,0x20
000153 0020
000154 2020
000155 2020
000156 5244      	.DB  0x20,0x0,0x20,0x20,0x20,0x20,0x44,0x52
000157 4845
000158 4e55
000159 2047
00015a 2020      	.DB  0x45,0x48,0x55,0x4E,0x47,0x20,0x20,0x20
00015b 0020
00015c 2020
00015d 2020
00015e 6d31      	.DB  0x20,0x0,0x20,0x20,0x20,0x20,0x31,0x6D
00015f 6d31
000160 2020
000161 2020
000162 2000      	.DB  0x31,0x6D,0x20,0x20,0x20,0x20,0x0,0x20
000163 2020
000164 6c42
000165 6575
000166 614d      	.DB  0x20,0x20,0x42,0x6C,0x75,0x65,0x4D,0x61
000167 6974
000168 7363
000169 2000
00016a 2020      	.DB  0x74,0x69,0x63,0x73,0x0,0x20,0x20,0x20
00016b 2020
00016c 6f52
00016d 6262
00016e 0079      	.DB  0x20,0x20,0x52,0x6F,0x62,0x62,0x79,0x0
00016f 4b4f
000170 4200
000171 6675
000172 6566      	.DB  0x4F,0x4B,0x0,0x42,0x75,0x66,0x66,0x65
000173 2072
000174 766f
000175 7265
000176 6c66      	.DB  0x72,0x20,0x6F,0x76,0x65,0x72,0x66,0x6C
000177 776f
000178 4100
000179 6272
00017a 7469      	.DB  0x6F,0x77,0x0,0x41,0x72,0x62,0x69,0x74
00017b 6172
00017c 6974
00017d 6e6f
00017e 6c20      	.DB  0x72,0x61,0x74,0x69,0x6F,0x6E,0x20,0x6C
00017f 736f
000180 0074
000181 7542
000182 2073      	.DB  0x6F,0x73,0x74,0x0,0x42,0x75,0x73,0x20
000183 7265
000184 6f72
000185 0072
000186 414e      	.DB  0x65,0x72,0x72,0x6F,0x72,0x0,0x4E,0x41
000187 4b43
000188 7220
000189 6365
00018a 6965      	.DB  0x43,0x4B,0x20,0x72,0x65,0x63,0x65,0x69
00018b 6576
00018c 0064
00018d 7542
00018e 2073      	.DB  0x76,0x65,0x64,0x0,0x42,0x75,0x73,0x20
00018f 6974
000190 656d
000191 756f
000192 0074      	.DB  0x74,0x69,0x6D,0x65,0x6F,0x75,0x74,0x0
000193 6146
000194 6c69
000195 5500
000196 6b6e      	.DB  0x46,0x61,0x69,0x6C,0x0,0x55,0x6E,0x6B
000197 6f6e
000198 6e77
000199 6520
00019a 7272      	.DB  0x6E,0x6F,0x77,0x6E,0x20,0x65,0x72,0x72
00019b 726f
C:\Users\Viktor\Documents\Projekte\Bluematics Robby\BlueMatics-Robby\Roboterprojekt-avr\Debug\List\project.asm(1250): warning: .cseg .db misalignment - padding zero byte
00019c 0000      	.DB  0x6F,0x72,0x0
                 _0x2000060:
C:\Users\Viktor\Documents\Projekte\Bluematics Robby\BlueMatics-Robby\Roboterprojekt-avr\Debug\List\project.asm(1252): warning: .cseg .db misalignment - padding zero byte
00019d 0001      	.DB  0x1
                 _0x2000000:
00019e 4e2d
00019f 4e41
0001a0 4900
0001a1 464e      	.DB  0x2D,0x4E,0x41,0x4E,0x0,0x49,0x4E,0x46
C:\Users\Viktor\Documents\Projekte\Bluematics Robby\BlueMatics-Robby\Roboterprojekt-avr\Debug\List\project.asm(1255): warning: .cseg .db misalignment - padding zero byte
0001a2 0000      	.DB  0x0
                 _0x2060003:
C:\Users\Viktor\Documents\Projekte\Bluematics Robby\BlueMatics-Robby\Roboterprojekt-avr\Debug\List\project.asm(1257): warning: .cseg .db misalignment - padding zero byte
0001a3 0007      	.DB  0x7
                 _0x2080003:
0001a4 c080      	.DB  0x80,0xC0
                 
                 __GLOBAL_INI_TBL:
0001a5 0002      	.DW  0x02
0001a6 0002      	.DW  0x02
0001a7 009e      	.DW  __REG_BIT_VARS*2
                 
0001a8 0004      	.DW  0x04
0001a9 0004      	.DW  0x04
0001aa 00a0      	.DW  __REG_VARS*2
                 
0001ab 0001      	.DW  0x01
0001ac 07a0      	.DW  _servo_breaks
0001ad 00a8      	.DW  _0x5*2
                 
0001ae 0001      	.DW  0x01
0001af 07a2      	.DW  _servo_value_cur
0001b0 00aa      	.DW  _0x6*2
                 
0001b1 000f      	.DW  0x0F
0001b2 0500      	.DW  _0x15
0001b3 00ae      	.DW  _0x0*2
                 
0001b4 0005      	.DW  0x05
0001b5 050f      	.DW  _0x23
0001b6 00bd      	.DW  _0x0*2+15
                 
0001b7 0008      	.DW  0x08
0001b8 0514      	.DW  _0x47
0001b9 00c2      	.DW  _0x0*2+20
                 
0001ba 0008      	.DW  0x08
0001bb 051c      	.DW  _0x47+8
0001bc 00ca      	.DW  _0x0*2+28
                 
0001bd 000a      	.DW  0x0A
0001be 0524      	.DW  _0x47+16
0001bf 00d2      	.DW  _0x0*2+36
                 
0001c0 000a      	.DW  0x0A
0001c1 052e      	.DW  _0x47+26
0001c2 00dc      	.DW  _0x0*2+46
                 
0001c3 0009      	.DW  0x09
0001c4 0538      	.DW  _0x47+36
0001c5 00e6      	.DW  _0x0*2+56
                 
0001c6 0009      	.DW  0x09
0001c7 0541      	.DW  _0x47+45
0001c8 00ef      	.DW  _0x0*2+65
                 
0001c9 0009      	.DW  0x09
0001ca 054a      	.DW  _0x47+54
0001cb 00f8      	.DW  _0x0*2+74
                 
0001cc 0009      	.DW  0x09
0001cd 0553      	.DW  _0x47+63
0001ce 0101      	.DW  _0x0*2+83
                 
0001cf 0011      	.DW  0x11
0001d0 055c      	.DW  _0x54
0001d1 010a      	.DW  _0x0*2+92
                 
0001d2 0011      	.DW  0x11
0001d3 056d      	.DW  _0x54+17
0001d4 011b      	.DW  _0x0*2+109
                 
0001d5 0003      	.DW  0x03
0001d6 057e      	.DW  _0x54+34
0001d7 012c      	.DW  _0x0*2+126
                 
0001d8 0004      	.DW  0x04
0001d9 0581      	.DW  _0x54+37
0001da 012f      	.DW  _0x0*2+129
                 
0001db 0010      	.DW  0x10
0001dc 0585      	.DW  _0x64
0001dd 0133      	.DW  _0x0*2+133
                 
0001de 000f      	.DW  0x0F
0001df 0595      	.DW  _0x64+16
0001e0 0143      	.DW  _0x0*2+149
                 
0001e1 0003      	.DW  0x03
0001e2 05a4      	.DW  _0x64+31
0001e3 012c      	.DW  _0x0*2+126
                 
0001e4 0004      	.DW  0x04
0001e5 05a7      	.DW  _0x64+34
0001e6 012f      	.DW  _0x0*2+129
                 
0001e7 0008      	.DW  0x08
0001e8 05ab      	.DW  _0x70
0001e9 00c2      	.DW  _0x0*2+20
                 
0001ea 0008      	.DW  0x08
0001eb 05b3      	.DW  _0x70+8
0001ec 00ca      	.DW  _0x0*2+28
                 
0001ed 000a      	.DW  0x0A
0001ee 05bb      	.DW  _0x70+16
0001ef 00d2      	.DW  _0x0*2+36
                 
0001f0 000a      	.DW  0x0A
0001f1 05c5      	.DW  _0x70+26
0001f2 00dc      	.DW  _0x0*2+46
                 
0001f3 0009      	.DW  0x09
0001f4 05cf      	.DW  _0x70+36
0001f5 0152      	.DW  _0x0*2+164
                 
0001f6 0009      	.DW  0x09
0001f7 05d8      	.DW  _0x70+45
0001f8 015b      	.DW  _0x0*2+173
                 
0001f9 0009      	.DW  0x09
0001fa 05e1      	.DW  _0x70+54
0001fb 0164      	.DW  _0x0*2+182
                 
0001fc 0009      	.DW  0x09
0001fd 05ea      	.DW  _0x70+63
0001fe 016d      	.DW  _0x0*2+191
                 
0001ff 0006      	.DW  0x06
000200 05f3      	.DW  _0x78
000201 0176      	.DW  _0x0*2+200
                 
000202 0007      	.DW  0x07
000203 05f9      	.DW  _0x78+6
000204 017c      	.DW  _0x0*2+206
                 
000205 0003      	.DW  0x03
000206 0600      	.DW  _0xBB
000207 012c      	.DW  _0x0*2+126
                 
000208 0004      	.DW  0x04
000209 0603      	.DW  _0xBB+3
00020a 012f      	.DW  _0x0*2+129
                 
00020b 0003      	.DW  0x03
00020c 0607      	.DW  _0xC7
00020d 012c      	.DW  _0x0*2+126
                 
00020e 0004      	.DW  0x04
00020f 060a      	.DW  _0xC7+3
000210 012f      	.DW  _0x0*2+129
                 
000211 0003      	.DW  0x03
000212 060e      	.DW  _0xD3
000213 012c      	.DW  _0x0*2+126
                 
000214 0004      	.DW  0x04
000215 0611      	.DW  _0xD3+3
000216 012f      	.DW  _0x0*2+129
                 
000217 0003      	.DW  0x03
000218 0615      	.DW  _0xE1
000219 012c      	.DW  _0x0*2+126
                 
00021a 0004      	.DW  0x04
00021b 0618      	.DW  _0xE1+3
00021c 012f      	.DW  _0x0*2+129
                 
00021d 0003      	.DW  0x03
00021e 061c      	.DW  _0xE1+7
00021f 012c      	.DW  _0x0*2+126
                 
000220 0004      	.DW  0x04
000221 061f      	.DW  _0xE1+10
000222 012f      	.DW  _0x0*2+129
                 
000223 0003      	.DW  0x03
000224 0623      	.DW  _0xE1+14
000225 012c      	.DW  _0x0*2+126
                 
000226 0004      	.DW  0x04
000227 0626      	.DW  _0xE1+17
000228 012f      	.DW  _0x0*2+129
                 
000229 0003      	.DW  0x03
00022a 062a      	.DW  _0xE1+21
00022b 012c      	.DW  _0x0*2+126
                 
00022c 0004      	.DW  0x04
00022d 062d      	.DW  _0xE1+24
00022e 012f      	.DW  _0x0*2+129
                 
00022f 0011      	.DW  0x11
000230 0631      	.DW  _0x11C
000231 01aa      	.DW  _0x0*2+252
                 
000232 0011      	.DW  0x11
000233 0642      	.DW  _0x11C+17
000234 01bb      	.DW  _0x0*2+269
                 
000235 0011      	.DW  0x11
000236 0653      	.DW  _0x11C+34
000237 01cc      	.DW  _0x0*2+286
                 
000238 0011      	.DW  0x11
000239 0664      	.DW  _0x11C+51
00023a 01dd      	.DW  _0x0*2+303
                 
00023b 0011      	.DW  0x11
00023c 0675      	.DW  _0x11C+68
00023d 01ee      	.DW  _0x0*2+320
                 
00023e 0010      	.DW  0x10
00023f 0686      	.DW  _0x11C+85
000240 01ff      	.DW  _0x0*2+337
                 
000241 0011      	.DW  0x11
000242 0696      	.DW  _0x11C+101
000243 020f      	.DW  _0x0*2+353
                 
000244 000f      	.DW  0x0F
000245 06a7      	.DW  _0x11C+118
000246 0220      	.DW  _0x0*2+370
                 
000247 0011      	.DW  0x11
000248 06b6      	.DW  _0x11C+133
000249 022f      	.DW  _0x0*2+385
                 
00024a 0011      	.DW  0x11
00024b 06c7      	.DW  _0x11C+150
00024c 0240      	.DW  _0x0*2+402
                 
00024d 0011      	.DW  0x11
00024e 06d8      	.DW  _0x11C+167
00024f 0251      	.DW  _0x0*2+419
                 
000250 0012      	.DW  0x12
000251 06e9      	.DW  _0x11C+184
000252 0262      	.DW  _0x0*2+436
                 
000253 0011      	.DW  0x11
000254 06fb      	.DW  _0x11C+202
000255 0274      	.DW  _0x0*2+454
                 
000256 0012      	.DW  0x12
000257 070c      	.DW  _0x11C+219
000258 0285      	.DW  _0x0*2+471
                 
000259 0011      	.DW  0x11
00025a 071e      	.DW  _0x11C+237
00025b 0297      	.DW  _0x0*2+489
                 
00025c 0010      	.DW  0x10
00025d 072f      	.DW  _0x11C+254
00025e 02a8      	.DW  _0x0*2+506
                 
00025f 000d      	.DW  0x0D
000260 073f      	.DW  _0x11C+270
000261 02b8      	.DW  _0x0*2+522
                 
000262 000e      	.DW  0x0E
000263 074c      	.DW  _0x11C+283
000264 02c5      	.DW  _0x0*2+535
                 
000265 000b      	.DW  0x0B
000266 075a      	.DW  _0x11C+297
000267 02d3      	.DW  _0x0*2+549
                 
000268 0001      	.DW  0x01
000269 0842      	.DW  __seed_G100
00026a 033a      	.DW  _0x2000060*2
                 
00026b 0001      	.DW  0x01
00026c 0767      	.DW  _twi_result
00026d 0346      	.DW  _0x2060003*2
                 
00026e 0002      	.DW  0x02
00026f 0852      	.DW  __base_y_G104
000270 0348      	.DW  _0x2080003*2
                 
                 _0xFFFFFFFF:
000271 0000      	.DW  0
                 
                 #define __GLOBAL_INI_TBL_PRESENT 1
                 
                 __RESET:
000272 94f8      	CLI
000273 27ee      	CLR  R30
000274 bbec      	OUT  EECR,R30
                 
                 ;INTERRUPT VECTORS ARE PLACED
                 ;AT THE START OF FLASH
000275 e0f1      	LDI  R31,1
000276 bff5      	OUT  MCUCR,R31
000277 bfe5      	OUT  MCUCR,R30
000278 93e0 006c 	STS  XMCRB,R30
                 
                 ;CLEAR R2-R14
00027a e08d      	LDI  R24,(14-2)+1
00027b e0a2      	LDI  R26,2
00027c 27bb      	CLR  R27
                 __CLEAR_REG:
00027d 93ed      	ST   X+,R30
00027e 958a      	DEC  R24
00027f f7e9      	BRNE __CLEAR_REG
                 
                 ;CLEAR SRAM
000280 e080      	LDI  R24,LOW(__CLEAR_SRAM_SIZE)
000281 e190      	LDI  R25,HIGH(__CLEAR_SRAM_SIZE)
000282 e0a0      	LDI  R26,LOW(__SRAM_START)
000283 e0b1      	LDI  R27,HIGH(__SRAM_START)
                 __CLEAR_SRAM:
000284 93ed      	ST   X+,R30
000285 9701      	SBIW R24,1
000286 f7e9      	BRNE __CLEAR_SRAM
                 
                 ;GLOBAL VARIABLES INITIALIZATION
000287 e4ea      	LDI  R30,LOW(__GLOBAL_INI_TBL*2)
000288 e0f3      	LDI  R31,HIGH(__GLOBAL_INI_TBL*2)
                 __GLOBAL_INI_NEXT:
000289 9185      	LPM  R24,Z+
00028a 9195      	LPM  R25,Z+
00028b 9700      	SBIW R24,0
00028c f061      	BREQ __GLOBAL_INI_END
00028d 91a5      	LPM  R26,Z+
00028e 91b5      	LPM  R27,Z+
00028f 9005      	LPM  R0,Z+
000290 9015      	LPM  R1,Z+
000291 01bf      	MOVW R22,R30
000292 01f0      	MOVW R30,R0
                 __GLOBAL_INI_LOOP:
000293 9005      	LPM  R0,Z+
000294 920d      	ST   X+,R0
000295 9701      	SBIW R24,1
000296 f7e1      	BRNE __GLOBAL_INI_LOOP
000297 01fb      	MOVW R30,R22
000298 cff0      	RJMP __GLOBAL_INI_NEXT
                 __GLOBAL_INI_END:
                 
000299 bf8b      	OUT  RAMPZ,R24
                 
                 ;HARDWARE STACK POINTER INITIALIZATION
00029a efef      	LDI  R30,LOW(__SRAM_END-__HEAP_SIZE)
00029b bfed      	OUT  SPL,R30
00029c e1e0      	LDI  R30,HIGH(__SRAM_END-__HEAP_SIZE)
00029d bfee      	OUT  SPH,R30
                 
                 ;DATA STACK POINTER INITIALIZATION
00029e e0c0      	LDI  R28,LOW(__SRAM_START+__DSTACK_SIZE)
00029f e0d5      	LDI  R29,HIGH(__SRAM_START+__DSTACK_SIZE)
                 
0002a0 940c 0991 	JMP  _main
                 
                 	.ESEG
                 	.ORG 0
                 
                 	.DSEG
                 	.ORG 0x500
                 
                 	.CSEG
                 ;/*******************************************************
                 ;This program was created by the
                 ;CodeWizardAVR V3.17 UL Advanced
                 ;Automatic Program Generator
                 ; Copyright 1998-2014 Pavel Haiduc, HP InfoTech s.r.l.
                 ;http://www.hpinfotech.com
                 ;
                 ;Project : BlueMatics
                 ;Version : 0.0.8
                 ;Date    : 28.11.2017
                 ;Author  : Viktor Lau
                 ;Company : https://lauviktor.de
                 ;Comments:
                 ;
                 ;
                 ;Chip type               : ATmega128
                 ;Program type            : Application
                 ;AVR Core Clock frequency: 16,000000 MHz
                 ;Memory model            : Small
                 ;External RAM size       : 0
                 ;Data Stack size         : 1024
                 ;*******************************************************/
                 ;
                 ;//Header includes
                 ;#include <mega128.h>
                 	#ifndef __SLEEP_DEFINED__
                 	#define __SLEEP_DEFINED__
                 	.EQU __se_bit=0x20
                 	.EQU __sm_mask=0x1C
                 	.EQU __sm_powerdown=0x10
                 	.EQU __sm_powersave=0x18
                 	.EQU __sm_standby=0x14
                 	.EQU __sm_ext_standby=0x1C
                 	.EQU __sm_adc_noise_red=0x08
                 	.SET power_ctrl_reg=mcucr
                 	#endif
                 ;#include <delay.h>
                 ;#include <stdlib.h>
                 ;#include <string.h>
                 ;#include <stdint.h>
                 ;#include <stdio.h>
                 ;#include <twi.h>
                 ;#include <i2c.h>
                 ;#include <io.h>
                 ;
                 ;
                 ;
                 ;
                 ;//Verkrzung von lcd_puts
                 ;#define puts lcd_puts
                 ;//STATES
                 ;#define state_linedetector  0
                 ;#define state_engine  1
                 ;#define state_engine_dir  2
                 ;#define state_distance_sensor  3
                 ;#define state_lightsensor  4
                 ;#define state_wiicam  5
                 ;#define state_irtower  6
                 ;#define state_servo  7
                 ;#define state_ultrasonic  8
                 ;#define state_vor  9
                 ;#define state_zur  10
                 ;#define state_links  11
                 ;#define state_rechts  12
                 ;#define state_90links  13
                 ;#define state_90rechts  14
                 ;#define state_drehung  15
                 ;#define state_meterlinksmeterrechts  16
                 ;#define state_stop 17
                 ;
                 ;#include "modules/variables.h"
                 
                 	.DSEG
                 ;#include "modules/port_init.h"
                 
                 	.CSEG
                 _adc_isr:
                 ; .FSTART _adc_isr
0002a2 938a      	ST   -Y,R24
0002a3 93aa      	ST   -Y,R26
0002a4 93ba      	ST   -Y,R27
0002a5 93ea      	ST   -Y,R30
0002a6 93fa      	ST   -Y,R31
0002a7 b7ef      	IN   R30,SREG
0002a8 93ea      	ST   -Y,R30
0002a9 91e0 083d 	LDS  R30,_input_index_S0000000000
0002ab e3a1      	LDI  R26,LOW(_adc_data)
0002ac e0b8      	LDI  R27,HIGH(_adc_data)
0002ad e0f0      	LDI  R31,0
0002ae 0fee      	LSL  R30
0002af 1fff      	ROL  R31
0002b0 0fae      	ADD  R26,R30
0002b1 1fbf      	ADC  R27,R31
0002b2 b1e4      	IN   R30,0x4
0002b3 b1f5      	IN   R31,0x4+1
0002b4 93ed      	ST   X+,R30
0002b5 93fc      	ST   X,R31
0002b6 91a0 083d 	LDS  R26,_input_index_S0000000000
0002b8 5faf      	SUBI R26,-LOW(1)
0002b9 93a0 083d 	STS  _input_index_S0000000000,R26
0002bb 30a6      	CPI  R26,LOW(0x6)
0002bc f018      	BRLO _0x8
0002bd e0e0      	LDI  R30,LOW(0)
0002be 93e0 083d 	STS  _input_index_S0000000000,R30
                 _0x8:
0002c0 91e0 083d 	LDS  R30,_input_index_S0000000000
0002c2 5ce0      	SUBI R30,-LOW(64)
0002c3 b9e7      	OUT  0x7,R30
                +
0002c4 e385     +LDI R24 , LOW ( 53 )
                +__DELAY_USB_LOOP :
0002c5 958a     +DEC R24
0002c6 f7f1     +BRNE __DELAY_USB_LOOP
                 	__DELAY_USB 53
0002c7 9a36      	SBI  0x6,6
0002c8 91e9      	LD   R30,Y+
0002c9 bfef      	OUT  SREG,R30
0002ca 91f9      	LD   R31,Y+
0002cb 91e9      	LD   R30,Y+
0002cc 91b9      	LD   R27,Y+
0002cd 91a9      	LD   R26,Y+
0002ce 9189      	LD   R24,Y+
0002cf 9518      	RETI
                 ; .FEND
                 _ext_int4_isr:
                 ; .FSTART _ext_int4_isr
0002d0 940e 0cad 	CALL SUBOPT_0x0
0002d2 940e 0cb4 	CALL SUBOPT_0x1
0002d4 32a0      	CPI  R26,LOW(0x4E20)
0002d5 e4ee      	LDI  R30,HIGH(0x4E20)
0002d6 07be      	CPC  R27,R30
0002d7 f42c      	BRGE _0x9
0002d8 e4a0      	LDI  R26,LOW(_wheelEncoderCounter_right)
0002d9 e0b8      	LDI  R27,HIGH(_wheelEncoderCounter_right)
0002da 940e 0cb9 	CALL SUBOPT_0x2
0002dc c002      	RJMP _0xA
                 _0x9:
0002dd 940e 0cbf 	CALL SUBOPT_0x3
                 _0xA:
0002df c2fc      	RJMP _0x159
                 ; .FEND
                 _ext_int6_isr:
                 ; .FSTART _ext_int6_isr
0002e0 940e 0cad 	CALL SUBOPT_0x0
0002e2 940e 0cc5 	CALL SUBOPT_0x4
0002e4 32a0      	CPI  R26,LOW(0x4E20)
0002e5 e4ee      	LDI  R30,HIGH(0x4E20)
0002e6 07be      	CPC  R27,R30
0002e7 f42c      	BRGE _0xB
0002e8 e3ae      	LDI  R26,LOW(_wheelEncoderCounter_left)
0002e9 e0b8      	LDI  R27,HIGH(_wheelEncoderCounter_left)
0002ea 940e 0cb9 	CALL SUBOPT_0x2
0002ec c002      	RJMP _0xC
                 _0xB:
0002ed 940e 0cca 	CALL SUBOPT_0x5
                 _0xC:
0002ef c2ec      	RJMP _0x159
                 ; .FEND
                    .equ __lcd_port=0x15 ;PORTC
                 _port_init:
                 ; .FSTART _port_init
0002f0 e8ea      	LDI  R30,LOW(138)
0002f1 bbea      	OUT  0x1A,R30
0002f2 e0e2      	LDI  R30,LOW(2)
0002f3 bbe7      	OUT  0x17,R30
0002f4 eae1      	LDI  R30,LOW(161)
0002f5 bbe1      	OUT  0x11,R30
0002f6 e2e0      	LDI  R30,LOW(32)
0002f7 b9e2      	OUT  0x2,R30
0002f8 93e0 0061 	STS  97,R30
0002fa e1a0      	LDI  R26,LOW(16)
0002fb 940e 0c79 	CALL _lcd_init
0002fd e4e0      	LDI  R30,LOW(64)
0002fe b9e7      	OUT  0x7,R30
0002ff ecef      	LDI  R30,LOW(207)
000300 b9e6      	OUT  0x6,R30
000301 e0e0      	LDI  R30,LOW(0)
000302 bde0      	OUT  0x20,R30
000303 e8e0      	LDI  R30,LOW(128)
000304 b9e8      	OUT  0x8,R30
000305 e0e0      	LDI  R30,LOW(0)
000306 93e0 006a 	STS  106,R30
000308 e1e1      	LDI  R30,LOW(17)
000309 bfea      	OUT  0x3A,R30
00030a e5e0      	LDI  R30,LOW(80)
00030b bfe9      	OUT  0x39,R30
00030c e0e0      	LDI  R30,LOW(0)
00030d bfe8      	OUT  0x38,R30
00030e bfe0      	OUT  0x30,R30
00030f e0e6      	LDI  R30,LOW(6)
000310 bfe3      	OUT  0x33,R30
000311 e8e3      	LDI  R30,LOW(131)
000312 bfe2      	OUT  0x32,R30
000313 e0e0      	LDI  R30,LOW(0)
000314 bfe1      	OUT  0x31,R30
000315 93e0 008b 	STS  139,R30
000317 eceb      	LDI  R30,LOW(203)
000318 93e0 008a 	STS  138,R30
00031a e0e0      	LDI  R30,LOW(0)
00031b 93e0 0089 	STS  137,R30
00031d 93e0 0088 	STS  136,R30
00031f 93e0 0081 	STS  129,R30
000321 93e0 0080 	STS  128,R30
000323 e6e1      	LDI  R30,LOW(97)
000324 93e0 0087 	STS  135,R30
000326 eae8      	LDI  R30,LOW(168)
000327 93e0 0086 	STS  134,R30
000329 e0e0      	LDI  R30,LOW(0)
00032a 93e0 0085 	STS  133,R30
00032c 93e0 0084 	STS  132,R30
00032e 93e0 0083 	STS  131,R30
000330 93e0 0082 	STS  130,R30
000332 e0e4      	LDI  R30,LOW(4)
000333 bde5      	OUT  0x25,R30
000334 e0e0      	LDI  R30,LOW(0)
000335 bde4      	OUT  0x24,R30
000336 bde3      	OUT  0x23,R30
000337 e4e1      	LDI  R30,LOW(65)
000338 bfe7      	OUT  0x37,R30
000339 e3e0      	LDI  R30,LOW(48)
00033a 93e0 007d 	STS  125,R30
00033c 9478      	sei
00033d 9508      	RET
                 ; .FEND
                 ;#include "modules/servo_ir.h"
                 _timer2_ovf_isr:
                 ; .FSTART _timer2_ovf_isr
00033e 940e 0cad 	CALL SUBOPT_0x0
000340 9897      	CBI  0x12,7
000341 91e0 07a4 	LDS  R30,_servo_value_copy
000343 91f0 07a5 	LDS  R31,_servo_value_copy+1
000345 940e 0cd0 	CALL SUBOPT_0x6
000347 17ea      	CP   R30,R26
000348 07fb      	CPC  R31,R27
000349 f431      	BRNE _0x10
00034a 91a0 07a0 	LDS  R26,_servo_breaks
00034c 91b0 07a1 	LDS  R27,_servo_breaks+1
00034e 9715      	SBIW R26,5
00034f f489      	BRNE _0xF
                 _0x10:
000350 940e 0cd5 	CALL SUBOPT_0x7
000352 93e0 07a4 	STS  _servo_value_copy,R30
000354 93f0 07a5 	STS  _servo_value_copy+1,R31
000356 e0e1      	LDI  R30,LOW(1)
000357 e0f0      	LDI  R31,HIGH(1)
000358 93e0 07a0 	STS  _servo_breaks,R30
00035a 93f0 07a1 	STS  _servo_breaks+1,R31
00035c 91e0 07a2 	LDS  R30,_servo_value_cur
00035e bde4      	OUT  0x24,R30
00035f 9a97      	SBI  0x12,7
000360 c006      	RJMP _0x14
                 _0xF:
000361 eaa0      	LDI  R26,LOW(_servo_breaks)
000362 e0b7      	LDI  R27,HIGH(_servo_breaks)
000363 940e 0cb9 	CALL SUBOPT_0x2
000365 e0e0      	LDI  R30,LOW(0)
000366 bde4      	OUT  0x24,R30
                 _0x14:
000367 c274      	RJMP _0x159
                 ; .FEND
                 _fnDisplay:
                 ; .FSTART _fnDisplay
000368 972a      	SBIW R28,10
                 ;	str -> Y+0
000369 940e 0c0a 	CALL _lcd_clear
                +
00036b e0a0     +LDI R26 , LOW ( _0x15 + ( 0 ) )
00036c e0b5     +LDI R27 , HIGH ( _0x15 + ( 0 ) )
                 	__POINTW2MN _0x15,0
00036d 940e 0cda 	CALL SUBOPT_0x8
00036f 940e 0cd5 	CALL SUBOPT_0x7
000371 93fa      	ST   -Y,R31
000372 93ea      	ST   -Y,R30
000373 e8af      	LDI  R26,LOW(_strTemp)
000374 e0b7      	LDI  R27,HIGH(_strTemp)
000375 940e 09d0 	CALL _itoa
000377 e8af      	LDI  R26,LOW(_strTemp)
000378 e0b7      	LDI  R27,HIGH(_strTemp)
000379 940e 0c46 	CALL _lcd_puts
00037b c2dc      	RJMP _0x20E0007
                 ; .FEND
                 
                 	.DSEG
                 _0x15:
000500           	.BYTE 0xF
                 
                 	.CSEG
                 _timer0_ovf_isr:
                 ; .FSTART _timer0_ovf_isr
00037c 940e 0cad 	CALL SUBOPT_0x0
00037e efee      	LDI  R30,LOW(254)
00037f bfe2      	OUT  0x32,R30
000380 91a0 0776 	LDS  R26,_rc5_time
000382 5faf      	SUBI R26,-LOW(1)
000383 93a0 0776 	STS  _rc5_time,R26
000385 34a4      	CPI  R26,LOW(0x44)
000386 f0a0      	BRLO _0x16
                +
000387 91e0 077a+LDS R30 , _tmp + ( 1 )
                 	__GETB1MN _tmp,1
000389 74e0      	ANDI R30,LOW(0x40)
00038a f421      	BRNE _0x18
                +
00038b 91e0 077a+LDS R30 , _tmp + ( 1 )
                 	__GETB1MN _tmp,1
00038d 72e0      	ANDI R30,LOW(0x20)
00038e f409      	BRNE _0x19
                 _0x18:
00038f c006      	RJMP _0x17
                 _0x19:
000390 940e 0ce1 	CALL SUBOPT_0x9
000392 93e0 0777 	STS  _rc5_data,R30
000394 93f0 0778 	STS  _rc5_data+1,R31
                 _0x17:
000396 e0e0      	LDI  R30,LOW(0)
000397 93e0 0779 	STS  _tmp,R30
000399 93e0 077a 	STS  _tmp+1,R30
                 _0x16:
00039b e0a0      	LDI  R26,0
00039c fc20      	SBRC R2,0
00039d e0a1      	LDI  R26,1
00039e e0e0      	LDI  R30,0
00039f 99ca      	SBIC 0x19,2
0003a0 e0e1      	LDI  R30,1
0003a1 e0b0      	LDI  R27,0
0003a2 e0f0      	LDI  R31,0
0003a3 fde7      	SBRC R30,7
0003a4 efff      	SER  R31
0003a5 17ea      	CP   R30,R26
0003a6 07fb      	CPC  R31,R27
0003a7 f159      	BREQ _0x1A
0003a8 e0e1      	LDI  R30,LOW(1)
0003a9 262e      	EOR  R2,R30
0003aa 91a0 0776 	LDS  R26,_rc5_time
0003ac 30ab      	CPI  R26,LOW(0xB)
0003ad f428      	BRSH _0x1B
0003ae e0e0      	LDI  R30,LOW(0)
0003af 93e0 0779 	STS  _tmp,R30
0003b1 93e0 077a 	STS  _tmp+1,R30
                 _0x1B:
0003b3 940e 0ce1 	CALL SUBOPT_0x9
0003b5 9730      	SBIW R30,0
0003b6 f021      	BREQ _0x1D
0003b7 91a0 0776 	LDS  R26,_rc5_time
0003b9 32ad      	CPI  R26,LOW(0x2D)
0003ba f0c0      	BRLO _0x1C
                 _0x1D:
                +
0003bb 91e0 077a+LDS R30 , _tmp + ( 1 )
                 	__GETB1MN _tmp,1
0003bd 74e0      	ANDI R30,LOW(0x40)
0003be f441      	BRNE _0x1F
0003bf 940e 0ce1 	CALL SUBOPT_0x9
0003c1 0fee      	LSL  R30
0003c2 1fff      	ROL  R31
0003c3 93e0 0779 	STS  _tmp,R30
0003c5 93f0 077a 	STS  _tmp+1,R31
                 _0x1F:
0003c7 fc20      	SBRC R2,0
0003c8 c007      	RJMP _0x20
0003c9 940e 0ce1 	CALL SUBOPT_0x9
0003cb 60e1      	ORI  R30,1
0003cc 93e0 0779 	STS  _tmp,R30
0003ce 93f0 077a 	STS  _tmp+1,R31
                 _0x20:
0003d0 e0e0      	LDI  R30,LOW(0)
0003d1 93e0 0776 	STS  _rc5_time,R30
                 _0x1C:
                 _0x1A:
0003d3 c208      	RJMP _0x159
                 ; .FEND
                 _rc5_receive:
                 ; .FSTART _rc5_receive
0003d4 93ba      	ST   -Y,R27
0003d5 93aa      	ST   -Y,R26
0003d6 931a      	ST   -Y,R17
0003d7 930a      	ST   -Y,R16
                 ;	*ucToggle -> Y+6
                 ;	*ucAdress -> Y+4
                 ;	*ucData -> Y+2
                 ;	i -> R16,R17
0003d8 94f8      	cli
                +
0003d9 9100 0777+LDS R16 , 0 + ( _rc5_data )
0003db 9110 0778+LDS R17 , 0 + ( _rc5_data ) + 1
                 	__GETWRMN 16,17,0,_rc5_data
0003dd e0e0      	LDI  R30,LOW(0)
0003de 93e0 0777 	STS  _rc5_data,R30
0003e0 93e0 0778 	STS  _rc5_data+1,R30
0003e2 9478      	sei
0003e3 2e00      	MOV  R0,R16
0003e4 2a01      	OR   R0,R17
0003e5 f109      	BREQ _0x21
0003e6 01d8      	MOVW R26,R16
0003e7 e0eb      	LDI  R30,LOW(11)
0003e8 940e 0f7b 	CALL __LSRW12
0003ea 70e1      	ANDI R30,LOW(0x1)
0003eb 81ae      	LDD  R26,Y+6
0003ec 81bf      	LDD  R27,Y+6+1
0003ed 93ec      	ST   X,R30
0003ee 01d8      	MOVW R26,R16
0003ef e0e6      	LDI  R30,LOW(6)
0003f0 940e 0f7b 	CALL __LSRW12
0003f2 71ef      	ANDI R30,LOW(0x1F)
0003f3 81ac      	LDD  R26,Y+4
0003f4 81bd      	LDD  R27,Y+4+1
0003f5 93ec      	ST   X,R30
0003f6 2fe0      	MOV  R30,R16
0003f7 73ef      	ANDI R30,LOW(0x3F)
0003f8 2fae      	MOV  R26,R30
0003f9 01f8      	MOVW R30,R16
0003fa 95e0      	COM  R30
0003fb 95f0      	COM  R31
0003fc 940e 0f8f 	CALL __LSRW3
0003fe 940e 0f8d 	CALL __LSRW4
000400 74e0      	ANDI R30,LOW(0x40)
000401 2bea      	OR   R30,R26
000402 81aa      	LDD  R26,Y+2
000403 81bb      	LDD  R27,Y+2+1
000404 93ec      	ST   X,R30
000405 01f8      	MOVW R30,R16
000406 c002      	RJMP _0x20E0008
                 _0x21:
000407 e0e0      	LDI  R30,LOW(0)
000408 e0f0      	LDI  R31,HIGH(0)
                 _0x20E0008:
000409 8119      	LDD  R17,Y+1
00040a 8108      	LDD  R16,Y+0
00040b 9628      	ADIW R28,8
00040c 9508      	RET
                 ; .FEND
                 _rc5_display:
                 ; .FSTART _rc5_display
00040d 940e 0c0a 	CALL _lcd_clear
                +
00040f e0af     +LDI R26 , LOW ( _0x23 + ( 0 ) )
000410 e0b5     +LDI R27 , HIGH ( _0x23 + ( 0 ) )
                 	__POINTW2MN _0x23,0
000411 940e 0cda 	CALL SUBOPT_0x8
000413 91a0 077b 	LDS  R26,_ucToggle
000415 5da0      	SUBI R26,-LOW(48)
000416 940e 0c1f 	CALL _lcd_putchar
000418 e2a0      	LDI  R26,LOW(32)
000419 940e 0c1f 	CALL _lcd_putchar
00041b 91e0 077c 	LDS  R30,_ucAdress
00041d 940e 0ce6 	CALL SUBOPT_0xA
00041f e2a0      	LDI  R26,LOW(32)
000420 940e 0c1f 	CALL _lcd_putchar
000422 91e0 077d 	LDS  R30,_ucData
000424 940e 0ce6 	CALL SUBOPT_0xA
000426 9508      	RET
                 ; .FEND
                 
                 	.DSEG
                 _0x23:
00050f           	.BYTE 0x5
                 ;#include "modules/esp_main_func.h"
                 
                 	.CSEG
                 _esp_states:
                 ; .FSTART _esp_states
000427 e1e4      	LDI  R30,LOW(20)
000428 e0f0      	LDI  R31,HIGH(20)
000429 15e4      	CP   R30,R4
00042a 05f5      	CPC  R31,R5
00042b f469      	BRNE _0x24
00042c 940e 0cd0 	CALL SUBOPT_0x6
00042e 3dac      	CPI  R26,LOW(0xDC)
00042f e0e0      	LDI  R30,HIGH(0xDC)
000430 07be      	CPC  R27,R30
000431 f43c      	BRGE _0x25
000432 940e 0cd5 	CALL SUBOPT_0x7
000434 9635      	ADIW R30,5
000435 93e0 07a2 	STS  _servo_value_cur,R30
000437 93f0 07a3 	STS  _servo_value_cur+1,R31
                 _0x25:
                 _0x24:
000439 e1e5      	LDI  R30,LOW(21)
00043a e0f0      	LDI  R31,HIGH(21)
00043b 15e4      	CP   R30,R4
00043c 05f5      	CPC  R31,R5
00043d f469      	BRNE _0x26
00043e 940e 0cd0 	CALL SUBOPT_0x6
000440 37a9      	CPI  R26,LOW(0x79)
000441 e0e0      	LDI  R30,HIGH(0x79)
000442 07be      	CPC  R27,R30
000443 f03c      	BRLT _0x27
000444 940e 0cd5 	CALL SUBOPT_0x7
000446 9735      	SBIW R30,5
000447 93e0 07a2 	STS  _servo_value_cur,R30
000449 93f0 07a3 	STS  _servo_value_cur+1,R31
                 _0x27:
                 _0x26:
00044b 2c04      	MOV  R0,R4
00044c 2805      	OR   R0,R5
00044d f419      	BRNE _0x28
00044e e1e1      	LDI  R30,LOW(17)
00044f e0f0      	LDI  R31,HIGH(17)
000450 c002      	RJMP _0x14F
                 _0x28:
000451 01f2      	MOVW R30,R4
000452 9731      	SBIW R30,1
                 _0x14F:
000453 013f      	MOVW R6,R30
000454 9508      	RET
                 ; .FEND
                 _esp_mainfunctions:
                 ; .FSTART _esp_mainfunctions
000455 9900      	SBIC 0x0,0
000456 c004      	RJMP _0x2A
000457 e0e1      	LDI  R30,LOW(1)
000458 e0f0      	LDI  R31,HIGH(1)
000459 014f      	MOVW R8,R30
00045a c002      	RJMP _0x2B
                 _0x2A:
00045b 2488      	CLR  R8
00045c 2499      	CLR  R9
                 _0x2B:
00045d 9902      	SBIC 0x0,2
00045e c004      	RJMP _0x2C
00045f e0e1      	LDI  R30,LOW(1)
000460 e0f0      	LDI  R31,HIGH(1)
000461 015f      	MOVW R10,R30
000462 c002      	RJMP _0x2D
                 _0x2C:
000463 24aa      	CLR  R10
000464 24bb      	CLR  R11
                 _0x2D:
000465 9904      	SBIC 0x0,4
000466 c004      	RJMP _0x2E
000467 e0e1      	LDI  R30,LOW(1)
000468 e0f0      	LDI  R31,HIGH(1)
000469 016f      	MOVW R12,R30
00046a c002      	RJMP _0x2F
                 _0x2E:
00046b 24cc      	CLR  R12
00046c 24dd      	CLR  R13
                 _0x2F:
00046d 9906      	SBIC 0x0,6
00046e c007      	RJMP _0x30
00046f e0e1      	LDI  R30,LOW(1)
000470 e0f0      	LDI  R31,HIGH(1)
000471 93e0 0768 	STS  _line_right,R30
000473 93f0 0769 	STS  _line_right+1,R31
000475 c005      	RJMP _0x31
                 _0x30:
000476 e0e0      	LDI  R30,LOW(0)
000477 93e0 0768 	STS  _line_right,R30
000479 93e0 0769 	STS  _line_right+1,R30
                 _0x31:
00047b 01f4      	MOVW R30,R8
00047c eea8      	LDI  R26,LOW(1000)
00047d e0b3      	LDI  R27,HIGH(1000)
00047e 940e 0fad 	CALL __MULW12
000480 01bf      	MOVW R22,R30
000481 01f5      	MOVW R30,R10
000482 940e 0cf1 	CALL SUBOPT_0xB
000484 01f6      	MOVW R30,R12
000485 940e 0cf8 	CALL SUBOPT_0xC
000487 91a0 0768 	LDS  R26,_line_right
000489 91b0 0769 	LDS  R27,_line_right+1
00048b 0fea      	ADD  R30,R26
00048c 1ffb      	ADC  R31,R27
00048d 93e0 0772 	STS  _linesensorvaluetemp,R30
00048f 93f0 0773 	STS  _linesensorvaluetemp+1,R31
000491 99b0      	SBIC 0x16,0
000492 c007      	RJMP _0x32
000493 e0e1      	LDI  R30,LOW(1)
000494 e0f0      	LDI  R31,HIGH(1)
000495 93e0 076a 	STS  _dist_left,R30
000497 93f0 076b 	STS  _dist_left+1,R31
000499 c005      	RJMP _0x33
                 _0x32:
00049a e0e0      	LDI  R30,LOW(0)
00049b 93e0 076a 	STS  _dist_left,R30
00049d 93e0 076b 	STS  _dist_left+1,R30
                 _0x33:
00049f 99b2      	SBIC 0x16,2
0004a0 c007      	RJMP _0x34
0004a1 e0e1      	LDI  R30,LOW(1)
0004a2 e0f0      	LDI  R31,HIGH(1)
0004a3 93e0 076c 	STS  _dist_fleft,R30
0004a5 93f0 076d 	STS  _dist_fleft+1,R31
0004a7 c005      	RJMP _0x35
                 _0x34:
0004a8 e0e0      	LDI  R30,LOW(0)
0004a9 93e0 076c 	STS  _dist_fleft,R30
0004ab 93e0 076d 	STS  _dist_fleft+1,R30
                 _0x35:
0004ad 99b4      	SBIC 0x16,4
0004ae c007      	RJMP _0x36
0004af e0e1      	LDI  R30,LOW(1)
0004b0 e0f0      	LDI  R31,HIGH(1)
0004b1 93e0 076e 	STS  _dist_fright,R30
0004b3 93f0 076f 	STS  _dist_fright+1,R31
0004b5 c005      	RJMP _0x37
                 _0x36:
0004b6 e0e0      	LDI  R30,LOW(0)
0004b7 93e0 076e 	STS  _dist_fright,R30
0004b9 93e0 076f 	STS  _dist_fright+1,R30
                 _0x37:
0004bb 99b6      	SBIC 0x16,6
0004bc c007      	RJMP _0x38
0004bd e0e1      	LDI  R30,LOW(1)
0004be e0f0      	LDI  R31,HIGH(1)
0004bf 93e0 0770 	STS  _dist_right,R30
0004c1 93f0 0771 	STS  _dist_right+1,R31
0004c3 c005      	RJMP _0x39
                 _0x38:
0004c4 e0e0      	LDI  R30,LOW(0)
0004c5 93e0 0770 	STS  _dist_right,R30
0004c7 93e0 0771 	STS  _dist_right+1,R30
                 _0x39:
0004c9 91e0 076a 	LDS  R30,_dist_left
0004cb 91f0 076b 	LDS  R31,_dist_left+1
0004cd eea8      	LDI  R26,LOW(1000)
0004ce e0b3      	LDI  R27,HIGH(1000)
0004cf 940e 0fad 	CALL __MULW12
0004d1 01bf      	MOVW R22,R30
0004d2 91e0 076c 	LDS  R30,_dist_fleft
0004d4 91f0 076d 	LDS  R31,_dist_fleft+1
0004d6 940e 0cf1 	CALL SUBOPT_0xB
0004d8 91e0 076e 	LDS  R30,_dist_fright
0004da 91f0 076f 	LDS  R31,_dist_fright+1
0004dc 940e 0cf8 	CALL SUBOPT_0xC
0004de 91a0 0770 	LDS  R26,_dist_right
0004e0 91b0 0771 	LDS  R27,_dist_right+1
0004e2 0fea      	ADD  R30,R26
0004e3 1ffb      	ADC  R31,R27
0004e4 93e0 0774 	STS  _distanzsensorvaluetemp,R30
0004e6 93f0 0775 	STS  _distanzsensorvaluetemp+1,R31
0004e8 9508      	RET
                 ; .FEND
                 ;#include "modules/wiicam.h"
                 _wii_cam_init:
                 ; .FSTART _wii_cam_init
0004e9 e3e0      	LDI  R30,LOW(48)
0004ea 93ea      	ST   -Y,R30
0004eb e0a1      	LDI  R26,LOW(1)
0004ec d017      	RCALL _write2Byte
0004ed e3e0      	LDI  R30,LOW(48)
0004ee 93ea      	ST   -Y,R30
0004ef e0a8      	LDI  R26,LOW(8)
0004f0 d013      	RCALL _write2Byte
0004f1 e0e6      	LDI  R30,LOW(6)
0004f2 93ea      	ST   -Y,R30
0004f3 e9a0      	LDI  R26,LOW(144)
0004f4 d00f      	RCALL _write2Byte
0004f5 e0e8      	LDI  R30,LOW(8)
0004f6 93ea      	ST   -Y,R30
0004f7 eca0      	LDI  R26,LOW(192)
0004f8 d00b      	RCALL _write2Byte
0004f9 e1ea      	LDI  R30,LOW(26)
0004fa 93ea      	ST   -Y,R30
0004fb e4a0      	LDI  R26,LOW(64)
0004fc d007      	RCALL _write2Byte
0004fd e3e3      	LDI  R30,LOW(51)
0004fe 93ea      	ST   -Y,R30
0004ff e3a3      	LDI  R26,LOW(51)
000500 d003      	RCALL _write2Byte
000501 940e 0cff 	CALL SUBOPT_0xD
000503 9508      	RET
                 ; .FEND
                 _write2Byte:
                 ; .FSTART _write2Byte
000504 93aa      	ST   -Y,R26
                 ;	b1 -> Y+1
                 ;	b2 -> Y+0
000505 940e 0e40 	CALL _i2c_start
000507 eba0      	LDI  R26,LOW(176)
000508 940e 0e74 	CALL _i2c_write
00050a 81a9      	LDD  R26,Y+1
00050b 940e 0e74 	CALL _i2c_write
00050d 81a8      	LD   R26,Y
00050e 940e 0e74 	CALL _i2c_write
000510 940e 0e4f 	CALL _i2c_stop
000512 e0aa      	LDI  R26,LOW(10)
000513 e0b0      	LDI  R27,0
000514 940e 0e8c 	CALL _delay_ms
000516 9622      	ADIW R28,2
000517 9508      	RET
                 ; .FEND
                 _readData:
                 ; .FSTART _readData
000518 931a      	ST   -Y,R17
                 ;	i -> R17
000519 e010      	LDI  R17,0
00051a 940e 0e40 	CALL _i2c_start
00051c eba0      	LDI  R26,LOW(176)
00051d 940e 0e74 	CALL _i2c_write
00051f e3a6      	LDI  R26,LOW(54)
000520 940e 0e74 	CALL _i2c_write
000522 940e 0e4f 	CALL _i2c_stop
000524 e0a1      	LDI  R26,LOW(1)
000525 e0b0      	LDI  R27,0
000526 940e 0e8c 	CALL _delay_ms
000528 940e 0e40 	CALL _i2c_start
00052a eba1      	LDI  R26,LOW(177)
00052b 940e 0e74 	CALL _i2c_write
00052d e010      	LDI  R17,LOW(0)
                 _0x3B:
00052e 301f      	CPI  R17,15
00052f f490      	BRSH _0x3C
000530 2fe1      	MOV  R30,R17
000531 edaf      	LDI  R26,LOW(_data)
000532 e0b7      	LDI  R27,HIGH(_data)
000533 e0f0      	LDI  R31,0
000534 940e 0d03 	CALL SUBOPT_0xE
000536 93ff      	PUSH R31
000537 93ef      	PUSH R30
000538 e0a1      	LDI  R26,LOW(1)
000539 940e 0e59 	CALL _i2c_read
00053b 91af      	POP  R26
00053c 91bf      	POP  R27
00053d e0f0      	LDI  R31,0
00053e 93ed      	ST   X+,R30
00053f 93fc      	ST   X,R31
000540 5f1f      	SUBI R17,-1
000541 cfec      	RJMP _0x3B
                 _0x3C:
000542 e0a0      	LDI  R26,LOW(0)
000543 940e 0e59 	CALL _i2c_read
                +
000545 efad     +LDI R26 , LOW ( _data + ( 30 ) )
000546 e0b7     +LDI R27 , HIGH ( _data + ( 30 ) )
                 	__POINTW2MN _data,30
000547 e0f0      	LDI  R31,0
000548 93ed      	ST   X+,R30
000549 93fc      	ST   X,R31
00054a 940e 0e4f 	CALL _i2c_stop
00054c c1d3      	RJMP _0x20E0006
                 ; .FEND
                 _convertdata:
                 ; .FSTART _convertdata
00054d 931a      	ST   -Y,R17
00054e 930a      	ST   -Y,R16
                 ;	i -> R16,R17
                +
00054f e000     +LDI R16 , LOW ( 0 )
000550 e010     +LDI R17 , HIGH ( 0 )
                 	__GETWRN 16,17,0
                +
000551 e000     +LDI R16 , LOW ( 0 )
000552 e010     +LDI R17 , HIGH ( 0 )
                 	__GETWRN 16,17,0
                 _0x3E:
                +
000553 3004     +CPI R16 , LOW ( 4 )
000554 e0e0     +LDI R30 , HIGH ( 4 )
000555 071e     +CPC R17 , R30
                 	__CPWRN 16,17,4
000556 f00c      	BRLT PC+2
000557 c048      	RJMP _0x3F
000558 940e 0d08 	CALL SUBOPT_0xF
00055a 940e 0d0e 	CALL SUBOPT_0x10
00055c 73e0      	ANDI R30,LOW(0x30)
00055d 70f0      	ANDI R31,HIGH(0x30)
00055e 940e 0f84 	CALL __LSLW4
000560 93e0 0818 	STS  _temp,R30
000562 93f0 0819 	STS  _temp+1,R31
000564 01f8      	MOVW R30,R16
000565 e0a4      	LDI  R26,LOW(_x)
000566 e0b8      	LDI  R27,HIGH(_x)
000567 940e 0d03 	CALL SUBOPT_0xE
000569 01bf      	MOVW R22,R30
00056a 940e 0d08 	CALL SUBOPT_0xF
00056c 01df      	MOVW R26,R30
00056d 0faa      	LSL  R26
00056e 1fbb      	ROL  R27
                +
00056f 51af     +SUBI R26 , LOW ( - _data - ( 2 ) )
000570 4fb8     +SBCI R27 , HIGH ( - _data - ( 2 ) )
                 	__ADDW2MN _data,2
000571 940e 0d16 	CALL SUBOPT_0x11
000573 940e 0d08 	CALL SUBOPT_0xF
000575 940e 0d0e 	CALL SUBOPT_0x10
000577 7ce0      	ANDI R30,LOW(0xC0)
000578 70f0      	ANDI R31,HIGH(0xC0)
000579 940e 0f88 	CALL __LSLW2
00057b 93e0 0818 	STS  _temp,R30
00057d 93f0 0819 	STS  _temp+1,R31
00057f 01f8      	MOVW R30,R16
000580 e0ac      	LDI  R26,LOW(_y)
000581 e0b8      	LDI  R27,HIGH(_y)
000582 940e 0d03 	CALL SUBOPT_0xE
000584 01bf      	MOVW R22,R30
000585 940e 0d08 	CALL SUBOPT_0xF
000587 01df      	MOVW R26,R30
000588 0faa      	LSL  R26
000589 1fbb      	ROL  R27
                +
00058a 51ad     +SUBI R26 , LOW ( - _data - ( 4 ) )
00058b 4fb8     +SBCI R27 , HIGH ( - _data - ( 4 ) )
                 	__ADDW2MN _data,4
00058c 940e 0d16 	CALL SUBOPT_0x11
00058e 01f8      	MOVW R30,R16
00058f 5eec      	SUBI R30,LOW(-_sWIICAM)
000590 4ff7      	SBCI R31,HIGH(-_sWIICAM)
000591 01bf      	MOVW R22,R30
000592 940e 0d08 	CALL SUBOPT_0xF
000594 01df      	MOVW R26,R30
000595 0faa      	LSL  R26
000596 1fbb      	ROL  R27
                +
000597 51ab     +SUBI R26 , LOW ( - _data - ( 6 ) )
000598 4fb8     +SBCI R27 , HIGH ( - _data - ( 6 ) )
                 	__ADDW2MN _data,6
000599 91ec      	LD   R30,X
00059a 70ef      	ANDI R30,LOW(0xF)
00059b 01db      	MOVW R26,R22
00059c 93ec      	ST   X,R30
                +
00059d 5f0f     +SUBI R16 , LOW ( - 1 )
00059e 4f1f     +SBCI R17 , HIGH ( - 1 )
                 	__ADDWRN 16,17,1
00059f cfb3      	RJMP _0x3E
                 _0x3F:
0005a0 9109      	LD   R16,Y+
0005a1 9119      	LD   R17,Y+
0005a2 9508      	RET
                 ; .FEND
                 ;#include "modules/ultrasonic.h"
                 _timer3_capt_isr:
                 ; .FSTART _timer3_capt_isr
0005a3 940e 0cad 	CALL SUBOPT_0x0
0005a5 91e0 0080 	LDS  R30,128
0005a7 93e0 07dd 	STS  _icr3,R30
0005a9 91e0 0081 	LDS  R30,129
                +
0005ab 93e0 07de+STS _icr3 + ( 1 ) , R30
                 	__PUTB1MN _icr3,1
0005ad 9b0f      	SBIS 0x1,7
0005ae c00e      	RJMP _0x40
0005af 91e0 07dd 	LDS  R30,_icr3
0005b1 91f0 07de 	LDS  R31,_icr3+1
0005b3 93e0 07d7 	STS  _iRisingEdge,R30
0005b5 93f0 07d8 	STS  _iRisingEdge+1,R31
0005b7 91e0 008a 	LDS  R30,138
0005b9 7bef      	ANDI R30,0xBF
0005ba 93e0 008a 	STS  138,R30
0005bc c01f      	RJMP _0x41
                 _0x40:
0005bd 91e0 07dd 	LDS  R30,_icr3
0005bf 91f0 07de 	LDS  R31,_icr3+1
0005c1 93e0 07d9 	STS  _iFallingEdge,R30
0005c3 93f0 07da 	STS  _iFallingEdge+1,R31
0005c5 91e0 008a 	LDS  R30,138
0005c7 64e0      	ORI  R30,0x40
0005c8 93e0 008a 	STS  138,R30
0005ca 91a0 07d7 	LDS  R26,_iRisingEdge
0005cc 91b0 07d8 	LDS  R27,_iRisingEdge+1
0005ce 91e0 07d9 	LDS  R30,_iFallingEdge
0005d0 91f0 07da 	LDS  R31,_iFallingEdge+1
0005d2 1bea      	SUB  R30,R26
0005d3 0bfb      	SBC  R31,R27
0005d4 940e 0f88 	CALL __LSLW2
0005d6 93e0 07db 	STS  _iTime,R30
0005d8 93f0 07dc 	STS  _iTime+1,R31
0005da 9468      	SET
0005db f826      	BLD  R2,6
                 _0x41:
                 _0x159:
0005dc 91e9      	LD   R30,Y+
0005dd bfef      	OUT  SREG,R30
0005de 91f9      	LD   R31,Y+
0005df 91e9      	LD   R30,Y+
0005e0 91b9      	LD   R27,Y+
0005e1 91a9      	LD   R26,Y+
0005e2 9518      	RETI
                 ; .FEND
                 _timer3_compa_isr:
                 ; .FSTART _timer3_compa_isr
0005e3 938a      	ST   -Y,R24
0005e4 93ea      	ST   -Y,R30
0005e5 b7ef      	IN   R30,SREG
0005e6 9ac1      	SBI  0x18,1
                +
0005e7 e385     +LDI R24 , LOW ( 53 )
                +__DELAY_USB_LOOP :
0005e8 958a     +DEC R24
0005e9 f7f1     +BRNE __DELAY_USB_LOOP
                 	__DELAY_USB 53
0005ea 98c1      	CBI  0x18,1
0005eb bfef      	OUT  SREG,R30
0005ec 91e9      	LD   R30,Y+
0005ed 9189      	LD   R24,Y+
0005ee 9518      	RETI
                 ; .FEND
                 ;#include "modules/states/states.h"
                 _STATE_LINE_SENSOR:
                 ; .FSTART _STATE_LINE_SENSOR
0005ef 940e 0c0a 	CALL _lcd_clear
0005f1 9900      	SBIC 0x0,0
0005f2 c003      	RJMP _0x46
                +
0005f3 e1a4     +LDI R26 , LOW ( _0x47 + ( 0 ) )
0005f4 e0b5     +LDI R27 , HIGH ( _0x47 + ( 0 ) )
                 	__POINTW2MN _0x47,0
0005f5 c002      	RJMP _0x150
                 _0x46:
                +
0005f6 e1ac     +LDI R26 , LOW ( _0x47 + ( 8 ) )
0005f7 e0b5     +LDI R27 , HIGH ( _0x47 + ( 8 ) )
                 	__POINTW2MN _0x47,8
                 _0x150:
0005f8 940e 0c46 	CALL _lcd_puts
0005fa 9906      	SBIC 0x0,6
0005fb c003      	RJMP _0x49
                +
0005fc e2a4     +LDI R26 , LOW ( _0x47 + ( 16 ) )
0005fd e0b5     +LDI R27 , HIGH ( _0x47 + ( 16 ) )
                 	__POINTW2MN _0x47,16
0005fe c002      	RJMP _0x151
                 _0x49:
                +
0005ff e2ae     +LDI R26 , LOW ( _0x47 + ( 26 ) )
000600 e0b5     +LDI R27 , HIGH ( _0x47 + ( 26 ) )
                 	__POINTW2MN _0x47,26
                 _0x151:
000601 940e 0c46 	CALL _lcd_puts
000603 940e 0d22 	CALL SUBOPT_0x12
000605 9902      	SBIC 0x0,2
000606 c003      	RJMP _0x4B
                +
000607 e3a8     +LDI R26 , LOW ( _0x47 + ( 36 ) )
000608 e0b5     +LDI R27 , HIGH ( _0x47 + ( 36 ) )
                 	__POINTW2MN _0x47,36
000609 c002      	RJMP _0x152
                 _0x4B:
                +
00060a e4a1     +LDI R26 , LOW ( _0x47 + ( 45 ) )
00060b e0b5     +LDI R27 , HIGH ( _0x47 + ( 45 ) )
                 	__POINTW2MN _0x47,45
                 _0x152:
00060c 940e 0c46 	CALL _lcd_puts
00060e 9904      	SBIC 0x0,4
00060f c003      	RJMP _0x4D
                +
000610 e4aa     +LDI R26 , LOW ( _0x47 + ( 54 ) )
000611 e0b5     +LDI R27 , HIGH ( _0x47 + ( 54 ) )
                 	__POINTW2MN _0x47,54
000612 c002      	RJMP _0x153
                 _0x4D:
                +
000613 e5a3     +LDI R26 , LOW ( _0x47 + ( 63 ) )
000614 e0b5     +LDI R27 , HIGH ( _0x47 + ( 63 ) )
                 	__POINTW2MN _0x47,63
                 _0x153:
000615 940e 0c46 	CALL _lcd_puts
000617 9508      	RET
                 ; .FEND
                 
                 	.DSEG
                 _0x47:
000514           	.BYTE 0x48
                 
                 	.CSEG
                 _STATE_ENGINE:
                 ; .FSTART _STATE_ENGINE
000618 9761      	SBIW R28,17
                 ;	str -> Y+0
000619 940e 0d27 	CALL SUBOPT_0x13
00061b f439      	BRNE _0x53
                +
00061c e5ac     +LDI R26 , LOW ( _0x54 + ( 0 ) )
00061d e0b5     +LDI R27 , HIGH ( _0x54 + ( 0 ) )
                 	__POINTW2MN _0x54,0
00061e 940e 0c46 	CALL _lcd_puts
000620 98df      	CBI  0x1B,7
000621 98dd      	CBI  0x1B,5
000622 c006      	RJMP _0x59
                 _0x53:
                +
000623 e6ad     +LDI R26 , LOW ( _0x54 + ( 17 ) )
000624 e0b5     +LDI R27 , HIGH ( _0x54 + ( 17 ) )
                 	__POINTW2MN _0x54,17
000625 940e 0c46 	CALL _lcd_puts
000627 9adf      	SBI  0x1B,7
000628 9add      	SBI  0x1B,5
                 _0x59:
000629 940e 0d22 	CALL SUBOPT_0x12
                +
00062b e7ae     +LDI R26 , LOW ( _0x54 + ( 34 ) )
00062c e0b5     +LDI R27 , HIGH ( _0x54 + ( 34 ) )
                 	__POINTW2MN _0x54,34
00062d 940e 0d31 	CALL SUBOPT_0x14
                +
00062f e8a1     +LDI R26 , LOW ( _0x54 + ( 37 ) )
000630 e0b5     +LDI R27 , HIGH ( _0x54 + ( 37 ) )
                 	__POINTW2MN _0x54,37
000631 940e 0d40 	CALL SUBOPT_0x15
000633 99ce      	SBIC 0x19,6
000634 c002      	RJMP _0x5E
000635 940e 0d4f 	CALL SUBOPT_0x16
                 _0x5E:
000637 9661      	ADIW R28,17
000638 9508      	RET
                 ; .FEND
                 
                 	.DSEG
                 _0x54:
00055c           	.BYTE 0x29
                 
                 	.CSEG
                 _STATE_ENGINE_DIR:
                 ; .FSTART _STATE_ENGINE_DIR
000639 972a      	SBIW R28,10
                 ;	str -> Y+0
00063a 940e 0d27 	CALL SUBOPT_0x13
00063c f439      	BRNE _0x63
                +
00063d e8a5     +LDI R26 , LOW ( _0x64 + ( 0 ) )
00063e e0b5     +LDI R27 , HIGH ( _0x64 + ( 0 ) )
                 	__POINTW2MN _0x64,0
00063f 940e 0c46 	CALL _lcd_puts
000641 98df      	CBI  0x1B,7
000642 9add      	SBI  0x1B,5
000643 c006      	RJMP _0x69
                 _0x63:
                +
000644 e9a5     +LDI R26 , LOW ( _0x64 + ( 16 ) )
000645 e0b5     +LDI R27 , HIGH ( _0x64 + ( 16 ) )
                 	__POINTW2MN _0x64,16
000646 940e 0c46 	CALL _lcd_puts
000648 9adf      	SBI  0x1B,7
000649 98dd      	CBI  0x1B,5
                 _0x69:
00064a 940e 0d22 	CALL SUBOPT_0x12
                +
00064c eaa4     +LDI R26 , LOW ( _0x64 + ( 31 ) )
00064d e0b5     +LDI R27 , HIGH ( _0x64 + ( 31 ) )
                 	__POINTW2MN _0x64,31
00064e 940e 0d31 	CALL SUBOPT_0x14
                +
000650 eaa7     +LDI R26 , LOW ( _0x64 + ( 34 ) )
000651 e0b5     +LDI R27 , HIGH ( _0x64 + ( 34 ) )
                 	__POINTW2MN _0x64,34
000652 940e 0d40 	CALL SUBOPT_0x15
000654 99ce      	SBIC 0x19,6
000655 c002      	RJMP _0x6E
000656 940e 0d4f 	CALL SUBOPT_0x16
                 _0x6E:
                 _0x20E0007:
000658 962a      	ADIW R28,10
000659 9508      	RET
                 ; .FEND
                 
                 	.DSEG
                 _0x64:
000585           	.BYTE 0x26
                 
                 	.CSEG
                 _STATE_DISTANCE_SENSOR:
                 ; .FSTART _STATE_DISTANCE_SENSOR
00065a 940e 0c0a 	CALL _lcd_clear
00065c 99b0      	SBIC 0x16,0
00065d c003      	RJMP _0x6F
                +
00065e eaab     +LDI R26 , LOW ( _0x70 + ( 0 ) )
00065f e0b5     +LDI R27 , HIGH ( _0x70 + ( 0 ) )
                 	__POINTW2MN _0x70,0
000660 c002      	RJMP _0x154
                 _0x6F:
                +
000661 eba3     +LDI R26 , LOW ( _0x70 + ( 8 ) )
000662 e0b5     +LDI R27 , HIGH ( _0x70 + ( 8 ) )
                 	__POINTW2MN _0x70,8
                 _0x154:
000663 940e 0c46 	CALL _lcd_puts
000665 99b6      	SBIC 0x16,6
000666 c003      	RJMP _0x72
                +
000667 ebab     +LDI R26 , LOW ( _0x70 + ( 16 ) )
000668 e0b5     +LDI R27 , HIGH ( _0x70 + ( 16 ) )
                 	__POINTW2MN _0x70,16
000669 c002      	RJMP _0x155
                 _0x72:
                +
00066a eca5     +LDI R26 , LOW ( _0x70 + ( 26 ) )
00066b e0b5     +LDI R27 , HIGH ( _0x70 + ( 26 ) )
                 	__POINTW2MN _0x70,26
                 _0x155:
00066c 940e 0c46 	CALL _lcd_puts
00066e 940e 0d22 	CALL SUBOPT_0x12
000670 99b2      	SBIC 0x16,2
000671 c003      	RJMP _0x74
                +
000672 ecaf     +LDI R26 , LOW ( _0x70 + ( 36 ) )
000673 e0b5     +LDI R27 , HIGH ( _0x70 + ( 36 ) )
                 	__POINTW2MN _0x70,36
000674 c002      	RJMP _0x156
                 _0x74:
                +
000675 eda8     +LDI R26 , LOW ( _0x70 + ( 45 ) )
000676 e0b5     +LDI R27 , HIGH ( _0x70 + ( 45 ) )
                 	__POINTW2MN _0x70,45
                 _0x156:
000677 940e 0c46 	CALL _lcd_puts
000679 99b4      	SBIC 0x16,4
00067a c003      	RJMP _0x76
                +
00067b eea1     +LDI R26 , LOW ( _0x70 + ( 54 ) )
00067c e0b5     +LDI R27 , HIGH ( _0x70 + ( 54 ) )
                 	__POINTW2MN _0x70,54
00067d c002      	RJMP _0x157
                 _0x76:
                +
00067e eeaa     +LDI R26 , LOW ( _0x70 + ( 63 ) )
00067f e0b5     +LDI R27 , HIGH ( _0x70 + ( 63 ) )
                 	__POINTW2MN _0x70,63
                 _0x157:
000680 940e 0c46 	CALL _lcd_puts
000682 9508      	RET
                 ; .FEND
                 
                 	.DSEG
                 _0x70:
0005ab           	.BYTE 0x48
                 
                 	.CSEG
                 _STATE_LIGHTSENSOR:
                 ; .FSTART _STATE_LIGHTSENSOR
000683 972a      	SBIW R28,10
000684 940e 0fc6 	CALL __SAVELOCR4
                 ;	right -> R16,R17
                 ;	left -> R18,R19
                 ;	str -> Y+4
                +
000686 91e0 0837+LDS R30 , _adc_data + ( 6 )
000688 91f0 0838+LDS R31 , _adc_data + ( 6 ) + 1
                 	__GETW1MN _adc_data,6
00068a 018f      	MOVW R16,R30
                +
00068b 91e0 0833+LDS R30 , _adc_data + ( 2 )
00068d 91f0 0834+LDS R31 , _adc_data + ( 2 ) + 1
                 	__GETW1MN _adc_data,2
00068f 019f      	MOVW R18,R30
000690 940e 0c0a 	CALL _lcd_clear
                +
000692 efa3     +LDI R26 , LOW ( _0x78 + ( 0 ) )
000693 e0b5     +LDI R27 , HIGH ( _0x78 + ( 0 ) )
                 	__POINTW2MN _0x78,0
000694 940e 0c46 	CALL _lcd_puts
000696 933a      	ST   -Y,R19
000697 932a      	ST   -Y,R18
000698 940e 0d5f 	CALL SUBOPT_0x17
00069a 940e 0cda 	CALL SUBOPT_0x8
                +
00069c efa9     +LDI R26 , LOW ( _0x78 + ( 6 ) )
00069d e0b5     +LDI R27 , HIGH ( _0x78 + ( 6 ) )
                 	__POINTW2MN _0x78,6
00069e 940e 0c46 	CALL _lcd_puts
0006a0 931a      	ST   -Y,R17
0006a1 930a      	ST   -Y,R16
0006a2 940e 0d5f 	CALL SUBOPT_0x17
0006a4 940e 0c46 	CALL _lcd_puts
0006a6 940e 0fcd 	CALL __LOADLOCR4
0006a8 962e      	ADIW R28,14
0006a9 9508      	RET
                 ; .FEND
                 
                 	.DSEG
                 _0x78:
0005f3           	.BYTE 0xD
                 
                 	.CSEG
                 _STATE_WIICAM:
                 ; .FSTART _STATE_WIICAM
0006aa 931a      	ST   -Y,R17
                 ;	iWII -> R17
0006ab e010      	LDI  R17,0
0006ac de6b      	RCALL _readData
0006ad de9f      	RCALL _convertdata
0006ae 940e 0c0a 	CALL _lcd_clear
0006b0 e010      	LDI  R17,LOW(0)
                 _0x7A:
0006b1 3014      	CPI  R17,4
0006b2 f008      	BRLO PC+2
0006b3 c063      	RJMP _0x7B
0006b4 3012      	CPI  R17,2
0006b5 f570      	BRSH _0x7C
0006b6 940e 0d66 	CALL SUBOPT_0x18
0006b8 3fef      	CPI  R30,LOW(0x3FF)
0006b9 e0a3      	LDI  R26,HIGH(0x3FF)
0006ba 07fa      	CPC  R31,R26
0006bb f031      	BREQ _0x7E
0006bc 940e 0d71 	CALL SUBOPT_0x19
0006be 3fef      	CPI  R30,LOW(0x3FF)
0006bf e0a3      	LDI  R26,HIGH(0x3FF)
0006c0 07fa      	CPC  R31,R26
0006c1 f429      	BRNE _0x7D
                 _0x7E:
0006c2 940e 0d7c 	CALL SUBOPT_0x1A
0006c4 940e 0d82 	CALL SUBOPT_0x1B
0006c6 c01c      	RJMP _0x80
                 _0x7D:
0006c7 940e 0d66 	CALL SUBOPT_0x18
0006c9 940e 0d8c 	CALL SUBOPT_0x1C
0006cb 940e 0d7c 	CALL SUBOPT_0x1A
0006cd 940e 0d94 	CALL SUBOPT_0x1D
0006cf 940e 0d71 	CALL SUBOPT_0x19
0006d1 940e 0d98 	CALL SUBOPT_0x1E
0006d3 e1a4      	LDI  R26,LOW(20)
0006d4 021a      	MULS R17,R26
0006d5 01f0      	MOVW R30,R0
0006d6 5fe8      	SUBI R30,-LOW(8)
0006d7 940e 0da0 	CALL SUBOPT_0x1F
0006d9 940e 0da5 	CALL SUBOPT_0x20
0006db e1a4      	LDI  R26,LOW(20)
0006dc 021a      	MULS R17,R26
0006dd 01f0      	MOVW R30,R0
0006de 5fe0      	SUBI R30,-LOW(16)
0006df 940e 0da0 	CALL SUBOPT_0x1F
0006e1 940e 0db1 	CALL SUBOPT_0x21
                 _0x80:
0006e3 c031      	RJMP _0x81
                 _0x7C:
0006e4 940e 0d66 	CALL SUBOPT_0x18
0006e6 3fef      	CPI  R30,LOW(0x3FF)
0006e7 e0a3      	LDI  R26,HIGH(0x3FF)
0006e8 07fa      	CPC  R31,R26
0006e9 f031      	BREQ _0x83
0006ea 940e 0d71 	CALL SUBOPT_0x19
0006ec 3fef      	CPI  R30,LOW(0x3FF)
0006ed e0a3      	LDI  R26,HIGH(0x3FF)
0006ee 07fa      	CPC  R31,R26
0006ef f429      	BRNE _0x82
                 _0x83:
0006f0 940e 0db8 	CALL SUBOPT_0x22
0006f2 940e 0d82 	CALL SUBOPT_0x1B
0006f4 c020      	RJMP _0x85
                 _0x82:
0006f5 940e 0d66 	CALL SUBOPT_0x18
0006f7 940e 0d8c 	CALL SUBOPT_0x1C
0006f9 940e 0db8 	CALL SUBOPT_0x22
0006fb 940e 0d94 	CALL SUBOPT_0x1D
0006fd 940e 0d71 	CALL SUBOPT_0x19
0006ff 940e 0d98 	CALL SUBOPT_0x1E
000701 2fe1      	MOV  R30,R17
000702 50e2      	SUBI R30,LOW(2)
000703 e1a4      	LDI  R26,LOW(20)
000704 02ea      	MULS R30,R26
000705 01f0      	MOVW R30,R0
000706 5fe8      	SUBI R30,-LOW(8)
000707 940e 0dc0 	CALL SUBOPT_0x23
000709 940e 0da5 	CALL SUBOPT_0x20
00070b 2fe1      	MOV  R30,R17
00070c 50e2      	SUBI R30,LOW(2)
00070d e1a4      	LDI  R26,LOW(20)
00070e 02ea      	MULS R30,R26
00070f 01f0      	MOVW R30,R0
000710 5fe0      	SUBI R30,-LOW(16)
000711 940e 0dc0 	CALL SUBOPT_0x23
000713 940e 0db1 	CALL SUBOPT_0x21
                 _0x85:
                 _0x81:
000715 5f1f      	SUBI R17,-1
000716 cf9a      	RJMP _0x7A
                 _0x7B:
000717 e1ae      	LDI  R26,LOW(30)
000718 e0b0      	LDI  R27,0
000719 940e 0e8c 	CALL _delay_ms
00071b 9bc3      	SBIS 0x18,3
00071c c002      	RJMP _0x86
00071d 98c3      	CBI  0x18,3
00071e c001      	RJMP _0x87
                 _0x86:
00071f 9ac3      	SBI  0x18,3
                 _0x87:
                 _0x20E0006:
000720 9119      	LD   R17,Y+
000721 9508      	RET
                 ; .FEND
                 _STATE_IRTOWER:
                 ; .FSTART _STATE_IRTOWER
000722 dcea      	RCALL _rc5_display
000723 940e 0dc5 	CALL SUBOPT_0x24
000725 f049      	BREQ _0x88
000726 91e0 077d 	LDS  R30,_ucData
000728 e0f0      	LDI  R31,0
000729 30e1      	CPI  R30,LOW(0x1)
00072a e0a0      	LDI  R26,HIGH(0x1)
00072b 07fa      	CPC  R31,R26
00072c f411      	BRNE _0x8B
00072d 940e 0cff 	CALL SUBOPT_0xD
                 _0x8B:
                 _0x88:
00072f 9508      	RET
                 ; .FEND
                 _STATE_SERVO:
                 ; .FSTART _STATE_SERVO
000730 940e 0c0a 	CALL _lcd_clear
000732 dc35      	RCALL _fnDisplay
000733 eca8      	LDI  R26,LOW(200)
000734 c1ef      	RJMP _0x20E0003
                 ; .FEND
                 _STATE_ULTRASONIC:
                 ; .FSTART _STATE_ULTRASONIC
000735 fe26      	SBRS R2,6
000736 c029      	RJMP _0x8D
000737 940e 0d22 	CALL SUBOPT_0x12
000739 91a0 07db 	LDS  R26,_iTime
00073b 91b0 07dc 	LDS  R27,_iTime+1
00073d 37a1      	CPI  R26,LOW(0x1771)
00073e e1e7      	LDI  R30,HIGH(0x1771)
00073f 07be      	CPC  R27,R30
000740 f4b8      	BRSH _0x8E
000741 940e 0c0a 	CALL _lcd_clear
                +
000743 e8ae     +LDI R26 , LOW ( 2 * _0x0 + ( 224 ) )
000744 e0b1     +LDI R27 , HIGH ( 2 * _0x0 + ( 224 ) )
                 	__POINTW2FN _0x0,224
000745 940e 0c55 	CALL _lcd_putsf
000747 940e 0d22 	CALL SUBOPT_0x12
000749 940e 0dd3 	CALL SUBOPT_0x25
00074b 940e 0ec5 	CALL __CFD1
00074d 93fa      	ST   -Y,R31
00074e 93ea      	ST   -Y,R30
00074f eca6      	LDI  R26,LOW(_strULTRA)
000750 e0b7      	LDI  R27,HIGH(_strULTRA)
000751 940e 09d0 	CALL _itoa
000753 eca6      	LDI  R26,LOW(_strULTRA)
000754 e0b7      	LDI  R27,HIGH(_strULTRA)
000755 940e 0c46 	CALL _lcd_puts
000757 c006      	RJMP _0x8F
                 _0x8E:
000758 940e 0c0a 	CALL _lcd_clear
                +
00075a e9ae     +LDI R26 , LOW ( 2 * _0x0 + ( 240 ) )
00075b e0b1     +LDI R27 , HIGH ( 2 * _0x0 + ( 240 ) )
                 	__POINTW2FN _0x0,240
00075c 940e 0c55 	CALL _lcd_putsf
                 _0x8F:
00075e 94e8      	CLT
00075f f826      	BLD  R2,6
                 _0x8D:
000760 9508      	RET
                 ; .FEND
                 _STATE_VOR:
                 ; .FSTART _STATE_VOR
000761 9ad9      	SBI  0x1B,1
000762 c009      	RJMP _0x20E0005
                 ; .FEND
                 _STATE_ZUR:
                 ; .FSTART _STATE_ZUR
000763 9ad9      	SBI  0x1B,1
000764 9adb      	SBI  0x1B,3
000765 9adf      	SBI  0x1B,7
000766 9add      	SBI  0x1B,5
000767 9508      	RET
                 ; .FEND
                 _STATE_LINKS:
                 ; .FSTART _STATE_LINKS
000768 9ad9      	SBI  0x1B,1
000769 98db      	CBI  0x1B,3
00076a c002      	RJMP _0x20E0004
                 ; .FEND
                 _STATE_RECHTS:
                 ; .FSTART _STATE_RECHTS
00076b 98d9      	CBI  0x1B,1
                 _0x20E0005:
00076c 9adb      	SBI  0x1B,3
                 _0x20E0004:
00076d 98df      	CBI  0x1B,7
00076e 98dd      	CBI  0x1B,5
00076f 9508      	RET
                 ; .FEND
                 _STATE_90RECHTS:
                 ; .FSTART _STATE_90RECHTS
000770 940e 0cca 	CALL SUBOPT_0x5
000772 940e 0cbf 	CALL SUBOPT_0x3
                 _0xB1:
000774 940e 0de4 	CALL SUBOPT_0x26
                +
000776 e0a0     +LDI R26 , LOW ( _0xBB + ( 0 ) )
000777 e0b6     +LDI R27 , HIGH ( _0xBB + ( 0 ) )
                 	__POINTW2MN _0xBB,0
000778 940e 0deb 	CALL SUBOPT_0x27
                +
00077a e0a3     +LDI R26 , LOW ( _0xBB + ( 3 ) )
00077b e0b6     +LDI R27 , HIGH ( _0xBB + ( 3 ) )
                 	__POINTW2MN _0xBB,3
00077c 940e 0dfb 	CALL SUBOPT_0x28
00077e 940e 0cb4 	CALL SUBOPT_0x1
000780 9751      	SBIW R26,17
000781 f394      	BRLT _0xB1
000782 9508      	RET
                 ; .FEND
                 
                 	.DSEG
                 _0xBB:
000600           	.BYTE 0x7
                 
                 	.CSEG
                 _STATE_90LINKS:
                 ; .FSTART _STATE_90LINKS
000783 940e 0cca 	CALL SUBOPT_0x5
000785 940e 0cbf 	CALL SUBOPT_0x3
                 _0xBD:
000787 940e 0e0b 	CALL SUBOPT_0x29
                +
000789 e0a7     +LDI R26 , LOW ( _0xC7 + ( 0 ) )
00078a e0b6     +LDI R27 , HIGH ( _0xC7 + ( 0 ) )
                 	__POINTW2MN _0xC7,0
00078b 940e 0deb 	CALL SUBOPT_0x27
                +
00078d e0aa     +LDI R26 , LOW ( _0xC7 + ( 3 ) )
00078e e0b6     +LDI R27 , HIGH ( _0xC7 + ( 3 ) )
                 	__POINTW2MN _0xC7,3
00078f 940e 0dfb 	CALL SUBOPT_0x28
000791 940e 0cc5 	CALL SUBOPT_0x4
000793 9751      	SBIW R26,17
000794 f394      	BRLT _0xBD
000795 9508      	RET
                 ; .FEND
                 
                 	.DSEG
                 _0xC7:
000607           	.BYTE 0x7
                 
                 	.CSEG
                 _STATE_DREHUNG:
                 ; .FSTART _STATE_DREHUNG
000796 940e 0cca 	CALL SUBOPT_0x5
000798 940e 0cbf 	CALL SUBOPT_0x3
                 _0xC9:
00079a 9ad9      	SBI  0x1B,1
00079b 9adb      	SBI  0x1B,3
00079c 9adf      	SBI  0x1B,7
00079d 940e 0e12 	CALL SUBOPT_0x2A
                +
00079f e0ae     +LDI R26 , LOW ( _0xD3 + ( 0 ) )
0007a0 e0b6     +LDI R27 , HIGH ( _0xD3 + ( 0 ) )
                 	__POINTW2MN _0xD3,0
0007a1 940e 0deb 	CALL SUBOPT_0x27
                +
0007a3 e1a1     +LDI R26 , LOW ( _0xD3 + ( 3 ) )
0007a4 e0b6     +LDI R27 , HIGH ( _0xD3 + ( 3 ) )
                 	__POINTW2MN _0xD3,3
0007a5 940e 0dfb 	CALL SUBOPT_0x28
0007a7 940e 0cc5 	CALL SUBOPT_0x4
0007a9 34a0      	CPI  R26,LOW(0x40)
0007aa e0e0      	LDI  R30,HIGH(0x40)
0007ab 07be      	CPC  R27,R30
0007ac f434      	BRGE _0xD4
0007ad 940e 0cb4 	CALL SUBOPT_0x1
0007af 34a0      	CPI  R26,LOW(0x40)
0007b0 e0e0      	LDI  R30,HIGH(0x40)
0007b1 07be      	CPC  R27,R30
0007b2 f00c      	BRLT _0xD5
                 _0xD4:
0007b3 c001      	RJMP _0xCA
                 _0xD5:
0007b4 cfe5      	RJMP _0xC9
                 _0xCA:
0007b5 9508      	RET
                 ; .FEND
                 
                 	.DSEG
                 _0xD3:
00060e           	.BYTE 0x7
                 
                 	.CSEG
                 _STATE_METERLINKSMETERRECHTS:
                 ; .FSTART _STATE_METERLINKSMETERRECHTS
0007b6 940e 0cca 	CALL SUBOPT_0x5
0007b8 940e 0cbf 	CALL SUBOPT_0x3
                 _0xD7:
0007ba 940e 0e0b 	CALL SUBOPT_0x29
                +
0007bc e1a5     +LDI R26 , LOW ( _0xE1 + ( 0 ) )
0007bd e0b6     +LDI R27 , HIGH ( _0xE1 + ( 0 ) )
                 	__POINTW2MN _0xE1,0
0007be 940e 0deb 	CALL SUBOPT_0x27
                +
0007c0 e1a8     +LDI R26 , LOW ( _0xE1 + ( 3 ) )
0007c1 e0b6     +LDI R27 , HIGH ( _0xE1 + ( 3 ) )
                 	__POINTW2MN _0xE1,3
0007c2 940e 0dfb 	CALL SUBOPT_0x28
0007c4 940e 0cc5 	CALL SUBOPT_0x4
0007c6 9751      	SBIW R26,17
0007c7 f394      	BRLT _0xD7
0007c8 940e 0e16 	CALL SUBOPT_0x2B
0007ca 940e 0cbf 	CALL SUBOPT_0x3
                 _0xE7:
0007cc 9ad9      	SBI  0x1B,1
0007cd 9adb      	SBI  0x1B,3
0007ce 98df      	CBI  0x1B,7
0007cf 940e 0e12 	CALL SUBOPT_0x2A
                +
0007d1 e1ac     +LDI R26 , LOW ( _0xE1 + ( 7 ) )
0007d2 e0b6     +LDI R27 , HIGH ( _0xE1 + ( 7 ) )
                 	__POINTW2MN _0xE1,7
0007d3 940e 0deb 	CALL SUBOPT_0x27
                +
0007d5 e1af     +LDI R26 , LOW ( _0xE1 + ( 10 ) )
0007d6 e0b6     +LDI R27 , HIGH ( _0xE1 + ( 10 ) )
                 	__POINTW2MN _0xE1,10
0007d7 940e 0dfb 	CALL SUBOPT_0x28
0007d9 940e 0cc5 	CALL SUBOPT_0x4
0007db 36a4      	CPI  R26,LOW(0x64)
0007dc e0e0      	LDI  R30,HIGH(0x64)
0007dd 07be      	CPC  R27,R30
0007de f434      	BRGE _0xF1
0007df 940e 0cb4 	CALL SUBOPT_0x1
0007e1 36a4      	CPI  R26,LOW(0x64)
0007e2 e0e0      	LDI  R30,HIGH(0x64)
0007e3 07be      	CPC  R27,R30
0007e4 f00c      	BRLT _0xF2
                 _0xF1:
0007e5 c001      	RJMP _0xE8
                 _0xF2:
0007e6 cfe5      	RJMP _0xE7
                 _0xE8:
0007e7 940e 0e16 	CALL SUBOPT_0x2B
0007e9 940e 0cbf 	CALL SUBOPT_0x3
                 _0xF8:
0007eb 940e 0de4 	CALL SUBOPT_0x26
                +
0007ed e2a3     +LDI R26 , LOW ( _0xE1 + ( 14 ) )
0007ee e0b6     +LDI R27 , HIGH ( _0xE1 + ( 14 ) )
                 	__POINTW2MN _0xE1,14
0007ef 940e 0deb 	CALL SUBOPT_0x27
                +
0007f1 e2a6     +LDI R26 , LOW ( _0xE1 + ( 17 ) )
0007f2 e0b6     +LDI R27 , HIGH ( _0xE1 + ( 17 ) )
                 	__POINTW2MN _0xE1,17
0007f3 940e 0dfb 	CALL SUBOPT_0x28
0007f5 940e 0cb4 	CALL SUBOPT_0x1
0007f7 9751      	SBIW R26,17
0007f8 f394      	BRLT _0xF8
0007f9 940e 0e16 	CALL SUBOPT_0x2B
0007fb 940e 0cbf 	CALL SUBOPT_0x3
                 _0x107:
0007fd 9ad9      	SBI  0x1B,1
0007fe 9adb      	SBI  0x1B,3
0007ff 98df      	CBI  0x1B,7
000800 940e 0e12 	CALL SUBOPT_0x2A
                +
000802 e2aa     +LDI R26 , LOW ( _0xE1 + ( 21 ) )
000803 e0b6     +LDI R27 , HIGH ( _0xE1 + ( 21 ) )
                 	__POINTW2MN _0xE1,21
000804 940e 0deb 	CALL SUBOPT_0x27
                +
000806 e2ad     +LDI R26 , LOW ( _0xE1 + ( 24 ) )
000807 e0b6     +LDI R27 , HIGH ( _0xE1 + ( 24 ) )
                 	__POINTW2MN _0xE1,24
000808 940e 0dfb 	CALL SUBOPT_0x28
00080a 940e 0cc5 	CALL SUBOPT_0x4
00080c 36a4      	CPI  R26,LOW(0x64)
00080d e0e0      	LDI  R30,HIGH(0x64)
00080e 07be      	CPC  R27,R30
00080f f434      	BRGE _0x111
000810 940e 0cb4 	CALL SUBOPT_0x1
000812 36a4      	CPI  R26,LOW(0x64)
000813 e0e0      	LDI  R30,HIGH(0x64)
000814 07be      	CPC  R27,R30
000815 f00c      	BRLT _0x112
                 _0x111:
000816 c001      	RJMP _0x108
                 _0x112:
000817 cfe5      	RJMP _0x107
                 _0x108:
000818 9508      	RET
                 ; .FEND
                 
                 	.DSEG
                 _0xE1:
000615           	.BYTE 0x1C
                 
                 	.CSEG
                 _STATE_MACHINE:
                 ; .FSTART _STATE_MACHINE
000819 98d9      	CBI  0x1B,1
00081a 98db      	CBI  0x1B,3
00081b 01f3      	MOVW R30,R6
00081c 9730      	SBIW R30,0
00081d f459      	BRNE _0x11A
00081e 940e 0e1d 	CALL SUBOPT_0x2C
000820 f431      	BRNE _0x11B
000821 940e 0c0a 	CALL _lcd_clear
                +
000823 e3a1     +LDI R26 , LOW ( _0x11C + ( 0 ) )
000824 e0b6     +LDI R27 , HIGH ( _0x11C + ( 0 ) )
                 	__POINTW2MN _0x11C,0
000825 940e 0e23 	CALL SUBOPT_0x2D
                 _0x11B:
000827 ddc7      	RCALL _STATE_LINE_SENSOR
000828 c0fa      	RJMP _0x119
                 _0x11A:
000829 30e1      	CPI  R30,LOW(0x1)
00082a e0a0      	LDI  R26,HIGH(0x1)
00082b 07fa      	CPC  R31,R26
00082c f459      	BRNE _0x11D
00082d 940e 0e1d 	CALL SUBOPT_0x2C
00082f f431      	BRNE _0x11E
000830 940e 0c0a 	CALL _lcd_clear
                +
000832 e4a2     +LDI R26 , LOW ( _0x11C + ( 17 ) )
000833 e0b6     +LDI R27 , HIGH ( _0x11C + ( 17 ) )
                 	__POINTW2MN _0x11C,17
000834 940e 0e23 	CALL SUBOPT_0x2D
                 _0x11E:
000836 dde1      	RCALL _STATE_ENGINE
000837 c0eb      	RJMP _0x119
                 _0x11D:
000838 30e2      	CPI  R30,LOW(0x2)
000839 e0a0      	LDI  R26,HIGH(0x2)
00083a 07fa      	CPC  R31,R26
00083b f459      	BRNE _0x11F
00083c 940e 0e1d 	CALL SUBOPT_0x2C
00083e f431      	BRNE _0x120
00083f 940e 0c0a 	CALL _lcd_clear
                +
000841 e5a3     +LDI R26 , LOW ( _0x11C + ( 34 ) )
000842 e0b6     +LDI R27 , HIGH ( _0x11C + ( 34 ) )
                 	__POINTW2MN _0x11C,34
000843 940e 0e23 	CALL SUBOPT_0x2D
                 _0x120:
000845 ddf3      	RCALL _STATE_ENGINE_DIR
000846 c0dc      	RJMP _0x119
                 _0x11F:
000847 30e3      	CPI  R30,LOW(0x3)
000848 e0a0      	LDI  R26,HIGH(0x3)
000849 07fa      	CPC  R31,R26
00084a f459      	BRNE _0x121
00084b 940e 0e1d 	CALL SUBOPT_0x2C
00084d f431      	BRNE _0x122
00084e 940e 0c0a 	CALL _lcd_clear
                +
000850 e6a4     +LDI R26 , LOW ( _0x11C + ( 51 ) )
000851 e0b6     +LDI R27 , HIGH ( _0x11C + ( 51 ) )
                 	__POINTW2MN _0x11C,51
000852 940e 0e23 	CALL SUBOPT_0x2D
                 _0x122:
000854 de05      	RCALL _STATE_DISTANCE_SENSOR
000855 c0cd      	RJMP _0x119
                 _0x121:
000856 30e4      	CPI  R30,LOW(0x4)
000857 e0a0      	LDI  R26,HIGH(0x4)
000858 07fa      	CPC  R31,R26
000859 f459      	BRNE _0x123
00085a 940e 0e1d 	CALL SUBOPT_0x2C
00085c f431      	BRNE _0x124
00085d 940e 0c0a 	CALL _lcd_clear
                +
00085f e7a5     +LDI R26 , LOW ( _0x11C + ( 68 ) )
000860 e0b6     +LDI R27 , HIGH ( _0x11C + ( 68 ) )
                 	__POINTW2MN _0x11C,68
000861 940e 0e23 	CALL SUBOPT_0x2D
                 _0x124:
000863 de1f      	RCALL _STATE_LIGHTSENSOR
000864 c0be      	RJMP _0x119
                 _0x123:
000865 30e5      	CPI  R30,LOW(0x5)
000866 e0a0      	LDI  R26,HIGH(0x5)
000867 07fa      	CPC  R31,R26
000868 f459      	BRNE _0x125
000869 940e 0e1d 	CALL SUBOPT_0x2C
00086b f431      	BRNE _0x126
00086c 940e 0c0a 	CALL _lcd_clear
                +
00086e e8a6     +LDI R26 , LOW ( _0x11C + ( 85 ) )
00086f e0b6     +LDI R27 , HIGH ( _0x11C + ( 85 ) )
                 	__POINTW2MN _0x11C,85
000870 940e 0e23 	CALL SUBOPT_0x2D
                 _0x126:
000872 de37      	RCALL _STATE_WIICAM
000873 c0af      	RJMP _0x119
                 _0x125:
000874 30e6      	CPI  R30,LOW(0x6)
000875 e0a0      	LDI  R26,HIGH(0x6)
000876 07fa      	CPC  R31,R26
000877 f459      	BRNE _0x127
000878 940e 0e1d 	CALL SUBOPT_0x2C
00087a f431      	BRNE _0x128
00087b 940e 0c0a 	CALL _lcd_clear
                +
00087d e9a6     +LDI R26 , LOW ( _0x11C + ( 101 ) )
00087e e0b6     +LDI R27 , HIGH ( _0x11C + ( 101 ) )
                 	__POINTW2MN _0x11C,101
00087f 940e 0e23 	CALL SUBOPT_0x2D
                 _0x128:
000881 dea0      	RCALL _STATE_IRTOWER
000882 c0a0      	RJMP _0x119
                 _0x127:
000883 30e7      	CPI  R30,LOW(0x7)
000884 e0a0      	LDI  R26,HIGH(0x7)
000885 07fa      	CPC  R31,R26
000886 f459      	BRNE _0x129
000887 940e 0e1d 	CALL SUBOPT_0x2C
000889 f431      	BRNE _0x12A
00088a 940e 0c0a 	CALL _lcd_clear
                +
00088c eaa7     +LDI R26 , LOW ( _0x11C + ( 118 ) )
00088d e0b6     +LDI R27 , HIGH ( _0x11C + ( 118 ) )
                 	__POINTW2MN _0x11C,118
00088e 940e 0e23 	CALL SUBOPT_0x2D
                 _0x12A:
000890 de9f      	RCALL _STATE_SERVO
000891 c091      	RJMP _0x119
                 _0x129:
000892 30e8      	CPI  R30,LOW(0x8)
000893 e0a0      	LDI  R26,HIGH(0x8)
000894 07fa      	CPC  R31,R26
000895 f459      	BRNE _0x12B
000896 940e 0e1d 	CALL SUBOPT_0x2C
000898 f431      	BRNE _0x12C
000899 940e 0c0a 	CALL _lcd_clear
                +
00089b eba6     +LDI R26 , LOW ( _0x11C + ( 133 ) )
00089c e0b6     +LDI R27 , HIGH ( _0x11C + ( 133 ) )
                 	__POINTW2MN _0x11C,133
00089d 940e 0e23 	CALL SUBOPT_0x2D
                 _0x12C:
00089f de95      	RCALL _STATE_ULTRASONIC
0008a0 c082      	RJMP _0x119
                 _0x12B:
0008a1 30e9      	CPI  R30,LOW(0x9)
0008a2 e0a0      	LDI  R26,HIGH(0x9)
0008a3 07fa      	CPC  R31,R26
0008a4 f459      	BRNE _0x12D
0008a5 940e 0e1d 	CALL SUBOPT_0x2C
0008a7 f431      	BRNE _0x12E
0008a8 940e 0c0a 	CALL _lcd_clear
                +
0008aa eca7     +LDI R26 , LOW ( _0x11C + ( 150 ) )
0008ab e0b6     +LDI R27 , HIGH ( _0x11C + ( 150 ) )
                 	__POINTW2MN _0x11C,150
0008ac 940e 0e23 	CALL SUBOPT_0x2D
                 _0x12E:
0008ae deb2      	RCALL _STATE_VOR
0008af c073      	RJMP _0x119
                 _0x12D:
0008b0 30ea      	CPI  R30,LOW(0xA)
0008b1 e0a0      	LDI  R26,HIGH(0xA)
0008b2 07fa      	CPC  R31,R26
0008b3 f459      	BRNE _0x12F
0008b4 940e 0e1d 	CALL SUBOPT_0x2C
0008b6 f431      	BRNE _0x130
0008b7 940e 0c0a 	CALL _lcd_clear
                +
0008b9 eda8     +LDI R26 , LOW ( _0x11C + ( 167 ) )
0008ba e0b6     +LDI R27 , HIGH ( _0x11C + ( 167 ) )
                 	__POINTW2MN _0x11C,167
0008bb 940e 0e23 	CALL SUBOPT_0x2D
                 _0x130:
0008bd dea5      	RCALL _STATE_ZUR
0008be c064      	RJMP _0x119
                 _0x12F:
0008bf 30eb      	CPI  R30,LOW(0xB)
0008c0 e0a0      	LDI  R26,HIGH(0xB)
0008c1 07fa      	CPC  R31,R26
0008c2 f459      	BRNE _0x131
0008c3 940e 0e1d 	CALL SUBOPT_0x2C
0008c5 f431      	BRNE _0x132
0008c6 940e 0c0a 	CALL _lcd_clear
                +
0008c8 eea9     +LDI R26 , LOW ( _0x11C + ( 184 ) )
0008c9 e0b6     +LDI R27 , HIGH ( _0x11C + ( 184 ) )
                 	__POINTW2MN _0x11C,184
0008ca 940e 0e23 	CALL SUBOPT_0x2D
                 _0x132:
0008cc de9b      	RCALL _STATE_LINKS
0008cd c055      	RJMP _0x119
                 _0x131:
0008ce 30ec      	CPI  R30,LOW(0xC)
0008cf e0a0      	LDI  R26,HIGH(0xC)
0008d0 07fa      	CPC  R31,R26
0008d1 f459      	BRNE _0x133
0008d2 940e 0e1d 	CALL SUBOPT_0x2C
0008d4 f431      	BRNE _0x134
0008d5 940e 0c0a 	CALL _lcd_clear
                +
0008d7 efab     +LDI R26 , LOW ( _0x11C + ( 202 ) )
0008d8 e0b6     +LDI R27 , HIGH ( _0x11C + ( 202 ) )
                 	__POINTW2MN _0x11C,202
0008d9 940e 0e23 	CALL SUBOPT_0x2D
                 _0x134:
0008db de8f      	RCALL _STATE_RECHTS
0008dc c046      	RJMP _0x119
                 _0x133:
0008dd 30ed      	CPI  R30,LOW(0xD)
0008de e0a0      	LDI  R26,HIGH(0xD)
0008df 07fa      	CPC  R31,R26
0008e0 f459      	BRNE _0x135
0008e1 940e 0e1d 	CALL SUBOPT_0x2C
0008e3 f431      	BRNE _0x136
0008e4 940e 0c0a 	CALL _lcd_clear
                +
0008e6 e0ac     +LDI R26 , LOW ( _0x11C + ( 219 ) )
0008e7 e0b7     +LDI R27 , HIGH ( _0x11C + ( 219 ) )
                 	__POINTW2MN _0x11C,219
0008e8 940e 0e23 	CALL SUBOPT_0x2D
                 _0x136:
0008ea de98      	RCALL _STATE_90LINKS
0008eb c037      	RJMP _0x119
                 _0x135:
0008ec 30ee      	CPI  R30,LOW(0xE)
0008ed e0a0      	LDI  R26,HIGH(0xE)
0008ee 07fa      	CPC  R31,R26
0008ef f459      	BRNE _0x137
0008f0 940e 0e1d 	CALL SUBOPT_0x2C
0008f2 f431      	BRNE _0x138
0008f3 940e 0c0a 	CALL _lcd_clear
                +
0008f5 e1ae     +LDI R26 , LOW ( _0x11C + ( 237 ) )
0008f6 e0b7     +LDI R27 , HIGH ( _0x11C + ( 237 ) )
                 	__POINTW2MN _0x11C,237
0008f7 940e 0e23 	CALL SUBOPT_0x2D
                 _0x138:
0008f9 de76      	RCALL _STATE_90RECHTS
0008fa c028      	RJMP _0x119
                 _0x137:
0008fb 30ef      	CPI  R30,LOW(0xF)
0008fc e0a0      	LDI  R26,HIGH(0xF)
0008fd 07fa      	CPC  R31,R26
0008fe f459      	BRNE _0x139
0008ff 940e 0e1d 	CALL SUBOPT_0x2C
000901 f431      	BRNE _0x13A
000902 940e 0c0a 	CALL _lcd_clear
                +
000904 e2af     +LDI R26 , LOW ( _0x11C + ( 254 ) )
000905 e0b7     +LDI R27 , HIGH ( _0x11C + ( 254 ) )
                 	__POINTW2MN _0x11C,254
000906 940e 0e23 	CALL SUBOPT_0x2D
                 _0x13A:
000908 de8d      	RCALL _STATE_DREHUNG
000909 c019      	RJMP _0x119
                 _0x139:
00090a 31e0      	CPI  R30,LOW(0x10)
00090b e0a0      	LDI  R26,HIGH(0x10)
00090c 07fa      	CPC  R31,R26
00090d f459      	BRNE _0x13D
00090e 940e 0e1d 	CALL SUBOPT_0x2C
000910 f431      	BRNE _0x13C
000911 940e 0c0a 	CALL _lcd_clear
                +
000913 e3af     +LDI R26 , LOW ( _0x11C + ( 270 ) )
000914 e0b7     +LDI R27 , HIGH ( _0x11C + ( 270 ) )
                 	__POINTW2MN _0x11C,270
000915 940e 0e23 	CALL SUBOPT_0x2D
                 _0x13C:
000917 de9e      	RCALL _STATE_METERLINKSMETERRECHTS
000918 c00a      	RJMP _0x119
                 _0x13D:
000919 940e 0c0a 	CALL _lcd_clear
                +
00091b e4ac     +LDI R26 , LOW ( _0x11C + ( 283 ) )
00091c e0b7     +LDI R27 , HIGH ( _0x11C + ( 283 ) )
                 	__POINTW2MN _0x11C,283
00091d 940e 0cda 	CALL SUBOPT_0x8
                +
00091f e5aa     +LDI R26 , LOW ( _0x11C + ( 297 ) )
000920 e0b7     +LDI R27 , HIGH ( _0x11C + ( 297 ) )
                 	__POINTW2MN _0x11C,297
000921 940e 0c46 	CALL _lcd_puts
                 _0x119:
000923 e3a2      	LDI  R26,LOW(50)
                 _0x20E0003:
000924 e0b0      	LDI  R27,0
000925 940e 0e8c 	CALL _delay_ms
000927 9508      	RET
                 ; .FEND
                 
                 	.DSEG
                 _0x11C:
000631           	.BYTE 0x134
                 ;#include "modules/esp.h"
                 
                 	.CSEG
                 _slave_rx_handler:
                 ; .FSTART _slave_rx_handler
000928 93aa      	ST   -Y,R26
                 ;	rx_complete -> Y+0
000929 91e0 0767 	LDS  R30,_twi_result
00092b 30e0      	CPI  R30,0
00092c f419      	BRNE _0x13E
00092d 9468      	SET
00092e f825      	BLD  R2,5
00092f c005      	RJMP _0x13F
                 _0x13E:
000930 94e8      	CLT
000931 f825      	BLD  R2,5
000932 e0e0      	LDI  R30,LOW(0)
000933 940c 0cab 	JMP  _0x20E0001
                 _0x13F:
000935 81e8      	LD   R30,Y
000936 30e0      	CPI  R30,0
000937 f019      	BREQ _0x140
000938 e0e0      	LDI  R30,LOW(0)
000939 940c 0cab 	JMP  _0x20E0001
                 _0x140:
00093b 91a0 0766 	LDS  R26,_twi_rx_index
00093d e0ef      	LDI  R30,LOW(15)
00093e 940e 0f9b 	CALL __LTB12U
000940 940c 0cab 	JMP  _0x20E0001
                 ; .FEND
                 _slave_tx_handler:
                 ; .FSTART _slave_tx_handler
000942 93aa      	ST   -Y,R26
                 ;	tx_complete -> Y+0
000943 81e8      	LD   R30,Y
000944 30e0      	CPI  R30,0
000945 f009      	BREQ PC+2
000946 c042      	RJMP _0x141
000947 91e0 0772 	LDS  R30,_linesensorvaluetemp
000949 93e0 07b7 	STS  _tx_buffer,R30
00094b 91e0 0774 	LDS  R30,_distanzsensorvaluetemp
                +
00094d 93e0 07b8+STS _tx_buffer + ( 1 ) , R30
                 	__PUTB1MN _tx_buffer,1
                +
00094f 91e0 0833+LDS R30 , _adc_data + ( 2 )
000951 91f0 0834+LDS R31 , _adc_data + ( 2 ) + 1
                 	__GETW1MN _adc_data,2
                +
000953 93e0 07b9+STS _tx_buffer + ( 2 ) , R30
000955 93f0 07ba+STS _tx_buffer + ( 2 ) + 1 , R31
                 	__PUTW1MN _tx_buffer,2
                +
000957 91e0 0837+LDS R30 , _adc_data + ( 6 )
000959 91f0 0838+LDS R31 , _adc_data + ( 6 ) + 1
                 	__GETW1MN _adc_data,6
                +
00095b 93e0 07bb+STS _tx_buffer + ( 4 ) , R30
00095d 93f0 07bc+STS _tx_buffer + ( 4 ) + 1 , R31
                 	__PUTW1MN _tx_buffer,4
00095f 91e0 083e 	LDS  R30,_wheelEncoderCounter_left
000961 91f0 083f 	LDS  R31,_wheelEncoderCounter_left+1
                +
000963 93e0 07bd+STS _tx_buffer + ( 6 ) , R30
000965 93f0 07be+STS _tx_buffer + ( 6 ) + 1 , R31
                 	__PUTW1MN _tx_buffer,6
000967 91e0 0840 	LDS  R30,_wheelEncoderCounter_right
000969 91f0 0841 	LDS  R31,_wheelEncoderCounter_right+1
                +
00096b 93e0 07bf+STS _tx_buffer + ( 8 ) , R30
00096d 93f0 07c0+STS _tx_buffer + ( 8 ) + 1 , R31
                 	__PUTW1MN _tx_buffer,8
00096f 91e0 081e 	LDS  R30,_wiicamobject
                +
000971 93e0 07c1+STS _tx_buffer + ( 10 ) , R30
                 	__PUTB1MN _tx_buffer,10
000973 91e0 077d 	LDS  R30,_ucData
                +
000975 93e0 07c2+STS _tx_buffer + ( 11 ) , R30
                 	__PUTB1MN _tx_buffer,11
000977 91e0 07a2 	LDS  R30,_servo_value_cur
                +
000979 93e0 07c3+STS _tx_buffer + ( 12 ) , R30
                 	__PUTB1MN _tx_buffer,12
00097b 940e 0dd3 	CALL SUBOPT_0x25
                +
00097d eca4     +LDI R26 , LOW ( _tx_buffer + ( 13 ) )
00097e e0b7     +LDI R27 , HIGH ( _tx_buffer + ( 13 ) )
                 	__POINTW2MN _tx_buffer,13
00097f 940e 0ec3 	CALL __CFD1U
000981 93ec      	ST   X,R30
000982 91e0 07a6 	LDS  R30,_iTemp
                +
000984 93e0 07c5+STS _tx_buffer + ( 14 ) , R30
                 	__PUTB1MN _tx_buffer,14
000986 e0ef      	LDI  R30,LOW(15)
000987 940c 0cab 	JMP  _0x20E0001
                 _0x141:
000989 fe25      	SBRS R2,5
00098a c003      	RJMP _0x142
                +
00098b 9040 07b6+LDS R4 , _rx_buffer + ( 14 )
                 	__GETBRMN 4,_rx_buffer,14
00098d 2455      	CLR  R5
                 _0x142:
00098e e0e0      	LDI  R30,LOW(0)
00098f 940c 0cab 	JMP  _0x20E0001
                 ; .FEND
                 ;
                 ;
                 ;
                 ;
                 ;
                 ;
                 ;
                 ;
                 ;
                 ;void main(void)
                 ; 0000 004E {
                 _main:
                 ; .FSTART _main
                 ; 0000 004F // Ports initialisieren
                 ; 0000 0050 port_init();
000991 d95e      	RCALL _port_init
                 ; 0000 0051 // I2C Bus initialisieren
                 ; 0000 0052 i2c_init();
000992 940e 0e3b 	CALL _i2c_init
                 ; 0000 0053 //Kamera initialisieren
                 ; 0000 0054 wii_cam_init();
000994 db54      	RCALL _wii_cam_init
                 ; 0000 0055 // TWI slave initialization
                 ; 0000 0056   twi_slave_init(false,TWI_SLAVE_ADDR,rx_buffer.bytes,BUFFER_SIZE,tx_buffer.bytes,slave_rx_handler,slave_tx_handler);
000995 e0e0      	LDI  R30,LOW(0)
000996 93ea      	ST   -Y,R30
000997 e5e0      	LDI  R30,LOW(80)
000998 93ea      	ST   -Y,R30
000999 eae8      	LDI  R30,LOW(_rx_buffer)
00099a e0f7      	LDI  R31,HIGH(_rx_buffer)
00099b 93fa      	ST   -Y,R31
00099c 93ea      	ST   -Y,R30
00099d e0ef      	LDI  R30,LOW(15)
00099e 93ea      	ST   -Y,R30
00099f ebe7      	LDI  R30,LOW(_tx_buffer)
0009a0 e0f7      	LDI  R31,HIGH(_tx_buffer)
0009a1 93fa      	ST   -Y,R31
0009a2 93ea      	ST   -Y,R30
0009a3 e2e8      	LDI  R30,LOW(_slave_rx_handler)
0009a4 e0f9      	LDI  R31,HIGH(_slave_rx_handler)
0009a5 93fa      	ST   -Y,R31
0009a6 93ea      	ST   -Y,R30
0009a7 e4a2      	LDI  R26,LOW(_slave_tx_handler)
0009a8 e0b9      	LDI  R27,HIGH(_slave_tx_handler)
0009a9 940e 09fe 	CALL _twi_slave_init
                 ; 0000 0057 
                 ; 0000 0058 while (1)
                 _0x143:
                 ; 0000 0059       {
                 ; 0000 005A       STATE_MACHINE();
0009ab de6d      	RCALL _STATE_MACHINE
                 ; 0000 005B       esp_states();
0009ac da7a      	RCALL _esp_states
                 ; 0000 005C 
                 ; 0000 005D       if (!BUMPER_RIGHT){
0009ad 99ce      	SBIC 0x19,6
0009ae c003      	RJMP _0x146
                 ; 0000 005E         state=16;
0009af e1e0      	LDI  R30,LOW(16)
0009b0 e0f0      	LDI  R31,HIGH(16)
0009b1 013f      	MOVW R6,R30
                 ; 0000 005F       }
                 ; 0000 0060 
                 ; 0000 0061 
                 ; 0000 0062 
                 ; 0000 0063 
                 ; 0000 0064 
                 ; 0000 0065 ///////IR DATEN AUSWERTEN//////////
                 ; 0000 0066     if(rc5_receive(&ucToggle, &ucAdress, &ucData))
                 _0x146:
0009b2 940e 0dc5 	CALL SUBOPT_0x24
0009b4 f0c1      	BREQ _0x147
                 ; 0000 0067     {
                 ; 0000 0068       switch (ucData)
0009b5 91e0 077d 	LDS  R30,_ucData
0009b7 e0f0      	LDI  R31,0
                 ; 0000 0069       {
                 ; 0000 006A         case 0:
0009b8 9730      	SBIW R30,0
0009b9 f419      	BRNE _0x14B
                 ; 0000 006B         state=state_stop;
0009ba e1e1      	LDI  R30,LOW(17)
0009bb e0f0      	LDI  R31,HIGH(17)
0009bc c00d      	RJMP _0x158
                 ; 0000 006C           delay_ms(100);
                 ; 0000 006D           break;
                 ; 0000 006E         case 1:
                 _0x14B:
0009bd 30e1      	CPI  R30,LOW(0x1)
0009be e0a0      	LDI  R26,HIGH(0x1)
0009bf 07fa      	CPC  R31,R26
0009c0 f419      	BRNE _0x14C
                 ; 0000 006F         state=15;
0009c1 e0ef      	LDI  R30,LOW(15)
0009c2 e0f0      	LDI  R31,HIGH(15)
0009c3 c006      	RJMP _0x158
                 ; 0000 0070           delay_ms(100);
                 ; 0000 0071           break;
                 ; 0000 0072         case 2:
                 _0x14C:
0009c4 30e2      	CPI  R30,LOW(0x2)
0009c5 e0a0      	LDI  R26,HIGH(0x2)
0009c6 07fa      	CPC  R31,R26
0009c7 f429      	BRNE _0x14A
                 ; 0000 0073         state=16;
0009c8 e1e0      	LDI  R30,LOW(16)
0009c9 e0f0      	LDI  R31,HIGH(16)
                 _0x158:
0009ca 013f      	MOVW R6,R30
                 ; 0000 0074           delay_ms(100);
0009cb 940e 0cff 	CALL SUBOPT_0xD
                 ; 0000 0075           break;
                 ; 0000 0076       }
                 _0x14A:
                 ; 0000 0077     }
                 ; 0000 0078 esp_mainfunctions();
                 _0x147:
0009cd da87      	RCALL _esp_mainfunctions
                 ; 0000 0079 }
0009ce cfdc      	RJMP _0x143
                 ; 0000 007A }
                 _0x14E:
0009cf cfff      	RJMP _0x14E
                 ; .FEND
                 
                 	.CSEG
                 _itoa:
                 ; .FSTART _itoa
0009d0 93ba      	ST   -Y,R27
0009d1 93aa      	ST   -Y,R26
0009d2 91a9          ld   r26,y+
0009d3 91b9          ld   r27,y+
0009d4 91e9          ld   r30,y+
0009d5 91f9          ld   r31,y+
0009d6 9630          adiw r30,0
0009d7 f42a          brpl __itoa0
0009d8 95e0          com  r30
0009d9 95f0          com  r31
0009da 9631          adiw r30,1
0009db e26d          ldi  r22,'-'
0009dc 936d          st   x+,r22
                 __itoa0:
0009dd 94e8          clt
0009de e180          ldi  r24,low(10000)
0009df e297          ldi  r25,high(10000)
0009e0 d00d          rcall __itoa1
0009e1 ee88          ldi  r24,low(1000)
0009e2 e093          ldi  r25,high(1000)
0009e3 d00a          rcall __itoa1
0009e4 e684          ldi  r24,100
0009e5 2799          clr  r25
0009e6 d007          rcall __itoa1
0009e7 e08a          ldi  r24,10
0009e8 d005          rcall __itoa1
0009e9 2f6e          mov  r22,r30
0009ea d010          rcall __itoa5
0009eb 2766          clr  r22
0009ec 936c          st   x,r22
0009ed 9508          ret
                 
                 __itoa1:
0009ee 2766          clr	 r22
                 __itoa2:
0009ef 17e8          cp   r30,r24
0009f0 07f9          cpc  r31,r25
0009f1 f020          brlo __itoa3
0009f2 9563          inc  r22
0009f3 1be8          sub  r30,r24
0009f4 0bf9          sbc  r31,r25
0009f5 f7c9          brne __itoa2
                 __itoa3:
0009f6 2366          tst  r22
0009f7 f411          brne __itoa4
0009f8 f016          brts __itoa5
0009f9 9508          ret
                 __itoa4:
0009fa 9468          set
                 __itoa5:
0009fb 5d60          subi r22,-0x30
0009fc 936d          st   x+,r22
0009fd 9508          ret
                 ; .FEND
                 
                 	.DSEG
                 
                 	.CSEG
                 
                 	.CSEG
                 	#ifndef __SLEEP_DEFINED__
                 	#endif
                 
                 	.CSEG
                 	#ifndef __SLEEP_DEFINED__
                 	#endif
                 
                 	.DSEG
                 
                 	.CSEG
                 _twi_slave_init:
                 ; .FSTART _twi_slave_init
0009fe 93ba      	ST   -Y,R27
0009ff 93aa      	ST   -Y,R26
000a00 9468      	SET
000a01 f830      	BLD  R3,0
000a02 e0e7      	LDI  R30,LOW(7)
000a03 93e0 0767 	STS  _twi_result,R30
000a05 81ef      	LDD  R30,Y+7
000a06 85f8      	LDD  R31,Y+7+1
000a07 93e0 084a 	STS  _twi_rx_buffer_G103,R30
000a09 93f0 084b 	STS  _twi_rx_buffer_G103+1,R31
000a0b 81ee      	LDD  R30,Y+6
000a0c 93e0 084d 	STS  _twi_rx_buffer_size_G103,R30
000a0e 81ec      	LDD  R30,Y+4
000a0f 81fd      	LDD  R31,Y+4+1
000a10 93e0 0847 	STS  _twi_tx_buffer_G103,R30
000a12 93f0 0848 	STS  _twi_tx_buffer_G103+1,R31
000a14 81ea      	LDD  R30,Y+2
000a15 81fb      	LDD  R31,Y+2+1
000a16 93e0 084e 	STS  _twi_slave_rx_handler_G103,R30
000a18 93f0 084f 	STS  _twi_slave_rx_handler_G103+1,R31
000a1a 81e8      	LD   R30,Y
000a1b 81f9      	LDD  R31,Y+1
000a1c 93e0 0850 	STS  _twi_slave_tx_handler_G103,R30
000a1e 93f0 0851 	STS  _twi_slave_tx_handler_G103+1,R31
000a20 9a91      	SBI  0x12,1
000a21 9a90      	SBI  0x12,0
000a22 85ea      	LDD  R30,Y+10
000a23 30e0      	CPI  R30,0
000a24 f011      	BREQ _0x2060012
000a25 e0e1      	LDI  R30,LOW(1)
000a26 c002      	RJMP _0x2060066
                 _0x2060012:
000a27 85e9      	LDD  R30,Y+9
000a28 0fee      	LSL  R30
                 _0x2060066:
000a29 93e0 0072 	STS  114,R30
000a2b 91e0 0074 	LDS  R30,116
000a2d 78e0      	ANDI R30,LOW(0x80)
000a2e 64e5      	ORI  R30,LOW(0x45)
000a2f 93e0 0074 	STS  116,R30
000a31 962b      	ADIW R28,11
000a32 9508      	RET
                 ; .FEND
                 _twi_int_handler:
                 ; .FSTART _twi_int_handler
000a33 920a      	ST   -Y,R0
000a34 921a      	ST   -Y,R1
000a35 92fa      	ST   -Y,R15
000a36 936a      	ST   -Y,R22
000a37 937a      	ST   -Y,R23
000a38 938a      	ST   -Y,R24
000a39 939a      	ST   -Y,R25
000a3a 93aa      	ST   -Y,R26
000a3b 93ba      	ST   -Y,R27
000a3c 93ea      	ST   -Y,R30
000a3d 93fa      	ST   -Y,R31
000a3e b7ef      	IN   R30,SREG
000a3f 93ea      	ST   -Y,R30
000a40 940e 0fc4 	CALL __SAVELOCR6
000a42 9110 0766 	LDS  R17,_twi_rx_index
000a44 9100 0765 	LDS  R16,_twi_tx_index
000a46 9130 0849 	LDS  R19,_bytes_to_tx_G103
000a48 9120 0767 	LDS  R18,_twi_result
000a4a 2fe1      	MOV  R30,R17
000a4b 91a0 084a 	LDS  R26,_twi_rx_buffer_G103
000a4d 91b0 084b 	LDS  R27,_twi_rx_buffer_G103+1
000a4f e0f0      	LDI  R31,0
000a50 0fea      	ADD  R30,R26
000a51 1ffb      	ADC  R31,R27
000a52 01af      	MOVW R20,R30
000a53 91e0 0071 	LDS  R30,113
000a55 7fe8      	ANDI R30,LOW(0xF8)
000a56 30e8      	CPI  R30,LOW(0x8)
000a57 f411      	BRNE _0x2060017
000a58 e020      	LDI  R18,LOW(0)
000a59 c002      	RJMP _0x2060018
                 _0x2060017:
000a5a 31e0      	CPI  R30,LOW(0x10)
000a5b f419      	BRNE _0x2060019
                 _0x2060018:
000a5c 91e0 0846 	LDS  R30,_slave_address_G103
000a5e c010      	RJMP _0x2060067
                 _0x2060019:
000a5f 31e8      	CPI  R30,LOW(0x18)
000a60 f011      	BREQ _0x206001D
000a61 32e8      	CPI  R30,LOW(0x28)
000a62 f549      	BRNE _0x206001E
                 _0x206001D:
000a63 1703      	CP   R16,R19
000a64 f498      	BRSH _0x206001F
000a65 2fe0      	MOV  R30,R16
000a66 5f0f      	SUBI R16,-1
000a67 91a0 0847 	LDS  R26,_twi_tx_buffer_G103
000a69 91b0 0848 	LDS  R27,_twi_tx_buffer_G103+1
000a6b e0f0      	LDI  R31,0
000a6c 0fae      	ADD  R26,R30
000a6d 1fbf      	ADC  R27,R31
000a6e 91ec      	LD   R30,X
                 _0x2060067:
000a6f 93e0 0073 	STS  115,R30
000a71 91e0 0074 	LDS  R30,116
000a73 70ef      	ANDI R30,LOW(0xF)
000a74 68e0      	ORI  R30,0x80
000a75 93e0 0074 	STS  116,R30
000a77 c013      	RJMP _0x2060020
                 _0x206001F:
000a78 91e0 084c 	LDS  R30,_bytes_to_rx_G103
000a7a 171e      	CP   R17,R30
000a7b f470      	BRSH _0x2060021
000a7c 91e0 0846 	LDS  R30,_slave_address_G103
000a7e 60e1      	ORI  R30,1
000a7f 93e0 0846 	STS  _slave_address_G103,R30
000a81 94e8      	CLT
000a82 f827      	BLD  R2,7
000a83 91e0 0074 	LDS  R30,116
000a85 70ef      	ANDI R30,LOW(0xF)
000a86 6ae0      	ORI  R30,LOW(0xA0)
000a87 93e0 0074 	STS  116,R30
000a89 c113      	RJMP _0x2060016
                 _0x2060021:
000a8a c038      	RJMP _0x2060022
                 _0x2060020:
000a8b c111      	RJMP _0x2060016
                 _0x206001E:
000a8c 35e0      	CPI  R30,LOW(0x50)
000a8d f431      	BRNE _0x2060023
000a8e 91e0 0073 	LDS  R30,115
000a90 01da      	MOVW R26,R20
000a91 93ec      	ST   X,R30
000a92 5f1f      	SUBI R17,-LOW(1)
000a93 c002      	RJMP _0x2060024
                 _0x2060023:
000a94 34e0      	CPI  R30,LOW(0x40)
000a95 f489      	BRNE _0x2060025
                 _0x2060024:
000a96 91e0 084c 	LDS  R30,_bytes_to_rx_G103
000a98 50e1      	SUBI R30,LOW(1)
000a99 171e      	CP   R17,R30
000a9a f028      	BRLO _0x2060026
000a9b 91e0 0074 	LDS  R30,116
000a9d 70ef      	ANDI R30,LOW(0xF)
000a9e 68e0      	ORI  R30,0x80
000a9f c004      	RJMP _0x2060068
                 _0x2060026:
000aa0 91e0 0074 	LDS  R30,116
000aa2 70ef      	ANDI R30,LOW(0xF)
000aa3 6ce0      	ORI  R30,LOW(0xC0)
                 _0x2060068:
000aa4 93e0 0074 	STS  116,R30
000aa6 c0f6      	RJMP _0x2060016
                 _0x2060025:
000aa7 35e8      	CPI  R30,LOW(0x58)
000aa8 f431      	BRNE _0x2060028
000aa9 91e0 0073 	LDS  R30,115
000aab 01da      	MOVW R26,R20
000aac 93ec      	ST   X,R30
000aad 5f1f      	SUBI R17,-LOW(1)
000aae c002      	RJMP _0x2060029
                 _0x2060028:
000aaf 32e0      	CPI  R30,LOW(0x20)
000ab0 f409      	BRNE _0x206002A
                 _0x2060029:
000ab1 c002      	RJMP _0x206002B
                 _0x206002A:
000ab2 33e0      	CPI  R30,LOW(0x30)
000ab3 f409      	BRNE _0x206002C
                 _0x206002B:
000ab4 c002      	RJMP _0x206002D
                 _0x206002C:
000ab5 34e8      	CPI  R30,LOW(0x48)
000ab6 f469      	BRNE _0x206002E
                 _0x206002D:
000ab7 3020      	CPI  R18,0
000ab8 f451      	BRNE _0x206002F
000ab9 fe27      	SBRS R2,7
000aba c003      	RJMP _0x2060030
000abb 1703      	CP   R16,R19
000abc f028      	BRLO _0x2060032
000abd c005      	RJMP _0x2060033
                 _0x2060030:
000abe 91e0 084c 	LDS  R30,_bytes_to_rx_G103
000ac0 171e      	CP   R17,R30
000ac1 f408      	BRSH _0x2060034
                 _0x2060032:
000ac2 e024      	LDI  R18,LOW(4)
                 _0x2060034:
                 _0x2060033:
                 _0x206002F:
                 _0x2060022:
000ac3 c0d1      	RJMP _0x2060069
                 _0x206002E:
000ac4 33e8      	CPI  R30,LOW(0x38)
000ac5 f431      	BRNE _0x2060037
000ac6 e022      	LDI  R18,LOW(2)
000ac7 91e0 0074 	LDS  R30,116
000ac9 70ef      	ANDI R30,LOW(0xF)
000aca 68e0      	ORI  R30,0x80
000acb c0cd      	RJMP _0x206006A
                 _0x2060037:
000acc 36e8      	CPI  R30,LOW(0x68)
000acd f011      	BREQ _0x206003A
000ace 37e8      	CPI  R30,LOW(0x78)
000acf f411      	BRNE _0x206003B
                 _0x206003A:
000ad0 e022      	LDI  R18,LOW(2)
000ad1 c005      	RJMP _0x206003C
                 _0x206003B:
000ad2 36e0      	CPI  R30,LOW(0x60)
000ad3 f011      	BREQ _0x206003F
000ad4 37e0      	CPI  R30,LOW(0x70)
000ad5 f4a9      	BRNE _0x2060040
                 _0x206003F:
000ad6 e020      	LDI  R18,LOW(0)
                 _0x206003C:
000ad7 e010      	LDI  R17,LOW(0)
000ad8 94e8      	CLT
000ad9 f827      	BLD  R2,7
000ada 91e0 084d 	LDS  R30,_twi_rx_buffer_size_G103
000adc 30e0      	CPI  R30,0
000add f431      	BRNE _0x2060041
000ade e021      	LDI  R18,LOW(1)
000adf 91e0 0074 	LDS  R30,116
000ae1 70ef      	ANDI R30,LOW(0xF)
000ae2 68e0      	ORI  R30,0x80
000ae3 c004      	RJMP _0x206006B
                 _0x2060041:
000ae4 91e0 0074 	LDS  R30,116
000ae6 70ef      	ANDI R30,LOW(0xF)
000ae7 6ce0      	ORI  R30,LOW(0xC0)
                 _0x206006B:
000ae8 93e0 0074 	STS  116,R30
000aea c0b2      	RJMP _0x2060016
                 _0x2060040:
000aeb 38e0      	CPI  R30,LOW(0x80)
000aec f011      	BREQ _0x2060044
000aed 39e0      	CPI  R30,LOW(0x90)
000aee f541      	BRNE _0x2060045
                 _0x2060044:
000aef fe27      	SBRS R2,7
000af0 c002      	RJMP _0x2060046
000af1 e021      	LDI  R18,LOW(1)
000af2 c0a2      	RJMP _0x2060047
                 _0x2060046:
000af3 91e0 0073 	LDS  R30,115
000af5 01da      	MOVW R26,R20
000af6 93ec      	ST   X,R30
000af7 5f1f      	SUBI R17,-LOW(1)
000af8 91e0 084d 	LDS  R30,_twi_rx_buffer_size_G103
000afa 171e      	CP   R17,R30
000afb f4c0      	BRSH _0x2060048
000afc 91e0 084e 	LDS  R30,_twi_slave_rx_handler_G103
000afe 91f0 084f 	LDS  R31,_twi_slave_rx_handler_G103+1
000b00 9730      	SBIW R30,0
000b01 f411      	BRNE _0x2060049
000b02 e026      	LDI  R18,LOW(6)
000b03 c091      	RJMP _0x2060047
                 _0x2060049:
000b04 e0a0      	LDI  R26,LOW(0)
                +
000b05 91e0 084e+LDS R30 , _twi_slave_rx_handler_G103 + ( 0 )
000b07 91f0 084f+LDS R31 , _twi_slave_rx_handler_G103 + ( 0 ) + 1
000b09 9509     +ICALL
                 	__CALL1MN _twi_slave_rx_handler_G103,0
000b0a 30e0      	CPI  R30,0
000b0b f039      	BREQ _0x206004A
000b0c 91e0 0074 	LDS  R30,116
000b0e 70ef      	ANDI R30,LOW(0xF)
000b0f 6ce0      	ORI  R30,LOW(0xC0)
000b10 93e0 0074 	STS  116,R30
000b12 c08a      	RJMP _0x2060016
                 _0x206004A:
000b13 c002      	RJMP _0x206004B
                 _0x2060048:
000b14 9468      	SET
000b15 f827      	BLD  R2,7
                 _0x206004B:
000b16 c002      	RJMP _0x206004C
                 _0x2060045:
000b17 38e8      	CPI  R30,LOW(0x88)
000b18 f409      	BRNE _0x206004D
                 _0x206004C:
000b19 c002      	RJMP _0x206004E
                 _0x206004D:
000b1a 39e8      	CPI  R30,LOW(0x98)
000b1b f439      	BRNE _0x206004F
                 _0x206004E:
000b1c 91e0 0074 	LDS  R30,116
000b1e 70ef      	ANDI R30,LOW(0xF)
000b1f 68e0      	ORI  R30,0x80
000b20 93e0 0074 	STS  116,R30
000b22 c07a      	RJMP _0x2060016
                 _0x206004F:
000b23 3ae0      	CPI  R30,LOW(0xA0)
000b24 f4b9      	BRNE _0x2060050
000b25 91e0 0074 	LDS  R30,116
000b27 70ef      	ANDI R30,LOW(0xF)
000b28 6ce0      	ORI  R30,LOW(0xC0)
000b29 93e0 0074 	STS  116,R30
000b2b 9468      	SET
000b2c f830      	BLD  R3,0
000b2d 91e0 084e 	LDS  R30,_twi_slave_rx_handler_G103
000b2f 91f0 084f 	LDS  R31,_twi_slave_rx_handler_G103+1
000b31 9730      	SBIW R30,0
000b32 f039      	BREQ _0x2060051
000b33 e0a1      	LDI  R26,LOW(1)
                +
000b34 91e0 084e+LDS R30 , _twi_slave_rx_handler_G103 + ( 0 )
000b36 91f0 084f+LDS R31 , _twi_slave_rx_handler_G103 + ( 0 ) + 1
000b38 9509     +ICALL
                 	__CALL1MN _twi_slave_rx_handler_G103,0
000b39 c001      	RJMP _0x2060052
                 _0x2060051:
000b3a e026      	LDI  R18,LOW(6)
                 _0x2060052:
000b3b c061      	RJMP _0x2060016
                 _0x2060050:
000b3c 3be0      	CPI  R30,LOW(0xB0)
000b3d f411      	BRNE _0x2060053
000b3e e022      	LDI  R18,LOW(2)
000b3f c002      	RJMP _0x2060054
                 _0x2060053:
000b40 3ae8      	CPI  R30,LOW(0xA8)
000b41 f4b9      	BRNE _0x2060055
                 _0x2060054:
000b42 91e0 0850 	LDS  R30,_twi_slave_tx_handler_G103
000b44 91f0 0851 	LDS  R31,_twi_slave_tx_handler_G103+1
000b46 9730      	SBIW R30,0
000b47 f059      	BREQ _0x2060056
000b48 e0a0      	LDI  R26,LOW(0)
                +
000b49 91e0 0850+LDS R30 , _twi_slave_tx_handler_G103 + ( 0 )
000b4b 91f0 0851+LDS R31 , _twi_slave_tx_handler_G103 + ( 0 ) + 1
000b4d 9509     +ICALL
                 	__CALL1MN _twi_slave_tx_handler_G103,0
000b4e 2f3e      	MOV  R19,R30
000b4f 30e0      	CPI  R30,0
000b50 f011      	BREQ _0x2060058
000b51 e020      	LDI  R18,LOW(0)
000b52 c002      	RJMP _0x2060059
                 _0x2060056:
                 _0x2060058:
000b53 e026      	LDI  R18,LOW(6)
000b54 c040      	RJMP _0x2060047
                 _0x2060059:
000b55 e000      	LDI  R16,LOW(0)
000b56 94e8      	CLT
000b57 f827      	BLD  R2,7
000b58 c002      	RJMP _0x206005A
                 _0x2060055:
000b59 3be8      	CPI  R30,LOW(0xB8)
000b5a f501      	BRNE _0x206005B
                 _0x206005A:
000b5b fe27      	SBRS R2,7
000b5c c002      	RJMP _0x206005C
000b5d e021      	LDI  R18,LOW(1)
000b5e c036      	RJMP _0x2060047
                 _0x206005C:
000b5f 2fe0      	MOV  R30,R16
000b60 5f0f      	SUBI R16,-1
000b61 91a0 0847 	LDS  R26,_twi_tx_buffer_G103
000b63 91b0 0848 	LDS  R27,_twi_tx_buffer_G103+1
000b65 e0f0      	LDI  R31,0
000b66 0fae      	ADD  R26,R30
000b67 1fbf      	ADC  R27,R31
000b68 91ec      	LD   R30,X
000b69 93e0 0073 	STS  115,R30
000b6b 1703      	CP   R16,R19
000b6c f428      	BRSH _0x206005D
000b6d 91e0 0074 	LDS  R30,116
000b6f 70ef      	ANDI R30,LOW(0xF)
000b70 6ce0      	ORI  R30,LOW(0xC0)
000b71 c006      	RJMP _0x206006C
                 _0x206005D:
000b72 9468      	SET
000b73 f827      	BLD  R2,7
000b74 91e0 0074 	LDS  R30,116
000b76 70ef      	ANDI R30,LOW(0xF)
000b77 68e0      	ORI  R30,0x80
                 _0x206006C:
000b78 93e0 0074 	STS  116,R30
000b7a c022      	RJMP _0x2060016
                 _0x206005B:
000b7b 3ce0      	CPI  R30,LOW(0xC0)
000b7c f011      	BREQ _0x2060060
000b7d 3ce8      	CPI  R30,LOW(0xC8)
000b7e f499      	BRNE _0x2060061
                 _0x2060060:
000b7f 91e0 0074 	LDS  R30,116
000b81 70ef      	ANDI R30,LOW(0xF)
000b82 6ce0      	ORI  R30,LOW(0xC0)
000b83 93e0 0074 	STS  116,R30
000b85 91e0 0850 	LDS  R30,_twi_slave_tx_handler_G103
000b87 91f0 0851 	LDS  R31,_twi_slave_tx_handler_G103+1
000b89 9730      	SBIW R30,0
000b8a f031      	BREQ _0x2060062
000b8b e0a1      	LDI  R26,LOW(1)
                +
000b8c 91e0 0850+LDS R30 , _twi_slave_tx_handler_G103 + ( 0 )
000b8e 91f0 0851+LDS R31 , _twi_slave_tx_handler_G103 + ( 0 ) + 1
000b90 9509     +ICALL
                 	__CALL1MN _twi_slave_tx_handler_G103,0
                 _0x2060062:
000b91 c009      	RJMP _0x2060035
                 _0x2060061:
000b92 30e0      	CPI  R30,0
000b93 f449      	BRNE _0x2060016
000b94 e023      	LDI  R18,LOW(3)
                 _0x2060047:
                 _0x2060069:
000b95 91e0 0074 	LDS  R30,116
000b97 70ef      	ANDI R30,LOW(0xF)
000b98 6de0      	ORI  R30,LOW(0xD0)
                 _0x206006A:
000b99 93e0 0074 	STS  116,R30
                 _0x2060035:
000b9b 9468      	SET
000b9c f830      	BLD  R3,0
                 _0x2060016:
000b9d 9310 0766 	STS  _twi_rx_index,R17
000b9f 9300 0765 	STS  _twi_tx_index,R16
000ba1 9320 0767 	STS  _twi_result,R18
000ba3 9330 0849 	STS  _bytes_to_tx_G103,R19
000ba5 940e 0fcb 	CALL __LOADLOCR6
000ba7 9626      	ADIW R28,6
000ba8 91e9      	LD   R30,Y+
000ba9 bfef      	OUT  SREG,R30
000baa 91f9      	LD   R31,Y+
000bab 91e9      	LD   R30,Y+
000bac 91b9      	LD   R27,Y+
000bad 91a9      	LD   R26,Y+
000bae 9199      	LD   R25,Y+
000baf 9189      	LD   R24,Y+
000bb0 9179      	LD   R23,Y+
000bb1 9169      	LD   R22,Y+
000bb2 90f9      	LD   R15,Y+
000bb3 9019      	LD   R1,Y+
000bb4 9009      	LD   R0,Y+
000bb5 9518      	RETI
                 ; .FEND
                     .equ __lcd_direction=__lcd_port-1
                     .equ __lcd_pin=__lcd_port-2
                     .equ __lcd_rs=0
                     .equ __lcd_rd=1
                     .equ __lcd_enable=2
                     .equ __lcd_busy_flag=7
                 
                 	.DSEG
                 
                 	.CSEG
                 __lcd_delay_G104:
                 ; .FSTART __lcd_delay_G104
000bb6 e0ff          ldi   r31,15
                 __lcd_delay0:
000bb7 95fa          dec   r31
000bb8 f7f1          brne  __lcd_delay0
000bb9 9508      	RET
                 ; .FEND
                 __lcd_ready:
                 ; .FSTART __lcd_ready
000bba b3a4          in    r26,__lcd_direction
000bbb 70af          andi  r26,0xf                 ;set as input
000bbc bba4          out   __lcd_direction,r26
000bbd 9aa9          sbi   __lcd_port,__lcd_rd     ;RD=1
000bbe 98a8          cbi   __lcd_port,__lcd_rs     ;RS=0
                 __lcd_busy:
000bbf dff6      	RCALL __lcd_delay_G104
000bc0 9aaa          sbi   __lcd_port,__lcd_enable ;EN=1
000bc1 dff4      	RCALL __lcd_delay_G104
000bc2 b3a3          in    r26,__lcd_pin
000bc3 98aa          cbi   __lcd_port,__lcd_enable ;EN=0
000bc4 dff1      	RCALL __lcd_delay_G104
000bc5 9aaa          sbi   __lcd_port,__lcd_enable ;EN=1
000bc6 dfef      	RCALL __lcd_delay_G104
000bc7 98aa          cbi   __lcd_port,__lcd_enable ;EN=0
000bc8 fda7          sbrc  r26,__lcd_busy_flag
000bc9 cff5          rjmp  __lcd_busy
000bca 9508      	RET
                 ; .FEND
                 __lcd_write_nibble_G104:
                 ; .FSTART __lcd_write_nibble_G104
000bcb 7fa0          andi  r26,0xf0
000bcc 2bab          or    r26,r27
000bcd bba5          out   __lcd_port,r26          ;write
000bce 9aaa          sbi   __lcd_port,__lcd_enable ;EN=1
000bcf 940e 0bb6 	CALL __lcd_delay_G104
000bd1 98aa          cbi   __lcd_port,__lcd_enable ;EN=0
000bd2 940e 0bb6 	CALL __lcd_delay_G104
000bd4 9508      	RET
                 ; .FEND
                 __lcd_write_data:
                 ; .FSTART __lcd_write_data
000bd5 93aa      	ST   -Y,R26
000bd6 98a9          cbi  __lcd_port,__lcd_rd 	  ;RD=0
000bd7 b3a4          in    r26,__lcd_direction
000bd8 6fa7          ori   r26,0xf0 | (1<<__lcd_rs) | (1<<__lcd_rd) | (1<<__lcd_enable) ;set as output
000bd9 bba4          out   __lcd_direction,r26
000bda b3b5          in    r27,__lcd_port
000bdb 70bf          andi  r27,0xf
000bdc 81a8          ld    r26,y
000bdd dfed      	RCALL __lcd_write_nibble_G104
000bde 81a8          ld    r26,y
000bdf 95a2          swap  r26
000be0 dfea      	RCALL __lcd_write_nibble_G104
000be1 9aa9          sbi   __lcd_port,__lcd_rd     ;RD=1
000be2 940c 0cab 	JMP  _0x20E0001
                 ; .FEND
                 __lcd_read_nibble_G104:
                 ; .FSTART __lcd_read_nibble_G104
000be4 9aaa          sbi   __lcd_port,__lcd_enable ;EN=1
000be5 940e 0bb6 	CALL __lcd_delay_G104
000be7 b3e3          in    r30,__lcd_pin           ;read
000be8 98aa          cbi   __lcd_port,__lcd_enable ;EN=0
000be9 940e 0bb6 	CALL __lcd_delay_G104
000beb 7fe0          andi  r30,0xf0
000bec 9508      	RET
                 ; .FEND
                 _lcd_read_byte0_G104:
                 ; .FSTART _lcd_read_byte0_G104
000bed 940e 0bb6 	CALL __lcd_delay_G104
000bef dff4      	RCALL __lcd_read_nibble_G104
000bf0 2fae          mov   r26,r30
000bf1 dff2      	RCALL __lcd_read_nibble_G104
000bf2 98a9          cbi   __lcd_port,__lcd_rd     ;RD=0
000bf3 95e2          swap  r30
000bf4 2bea          or    r30,r26
000bf5 9508      	RET
                 ; .FEND
                 _lcd_gotoxy:
                 ; .FSTART _lcd_gotoxy
000bf6 93aa      	ST   -Y,R26
000bf7 940e 0bba 	CALL __lcd_ready
000bf9 81e8      	LD   R30,Y
000bfa e0f0      	LDI  R31,0
000bfb 5aee      	SUBI R30,LOW(-__base_y_G104)
000bfc 4ff7      	SBCI R31,HIGH(-__base_y_G104)
000bfd 81e0      	LD   R30,Z
000bfe 81a9      	LDD  R26,Y+1
000bff 0fae      	ADD  R26,R30
000c00 940e 0bd5 	CALL __lcd_write_data
000c02 81e9      	LDD  R30,Y+1
000c03 93e0 0856 	STS  __lcd_x,R30
000c05 81e8      	LD   R30,Y
000c06 93e0 0857 	STS  __lcd_y,R30
000c08 9622      	ADIW R28,2
000c09 9508      	RET
                 ; .FEND
                 _lcd_clear:
                 ; .FSTART _lcd_clear
000c0a 940e 0bba 	CALL __lcd_ready
000c0c e0a2      	LDI  R26,LOW(2)
000c0d 940e 0bd5 	CALL __lcd_write_data
000c0f 940e 0bba 	CALL __lcd_ready
000c11 e0ac      	LDI  R26,LOW(12)
000c12 940e 0bd5 	CALL __lcd_write_data
000c14 940e 0bba 	CALL __lcd_ready
000c16 e0a1      	LDI  R26,LOW(1)
000c17 940e 0bd5 	CALL __lcd_write_data
000c19 e0e0      	LDI  R30,LOW(0)
000c1a 93e0 0857 	STS  __lcd_y,R30
000c1c 93e0 0856 	STS  __lcd_x,R30
000c1e 9508      	RET
                 ; .FEND
                 _lcd_putchar:
                 ; .FSTART _lcd_putchar
000c1f 93aa      	ST   -Y,R26
000c20 93ef          push r30
000c21 93ff          push r31
000c22 81a8          ld   r26,y
000c23 9468          set
000c24 30aa          cpi  r26,10
000c25 f039          breq __lcd_putchar1
000c26 94e8          clt
000c27 91e0 0858 	LDS  R30,__lcd_maxx
000c29 91a0 0856 	LDS  R26,__lcd_x
000c2b 17ae      	CP   R26,R30
000c2c f058      	BRLO _0x2080004
                 	__lcd_putchar1:
000c2d 91e0 0857 	LDS  R30,__lcd_y
000c2f 5fef      	SUBI R30,-LOW(1)
000c30 93e0 0857 	STS  __lcd_y,R30
000c32 e0e0      	LDI  R30,LOW(0)
000c33 93ea      	ST   -Y,R30
000c34 91a0 0857 	LDS  R26,__lcd_y
000c36 dfbf      	RCALL _lcd_gotoxy
000c37 f056      	brts __lcd_putchar0
                 _0x2080004:
000c38 91e0 0856 	LDS  R30,__lcd_x
000c3a 5fef      	SUBI R30,-LOW(1)
000c3b 93e0 0856 	STS  __lcd_x,R30
000c3d df7c          rcall __lcd_ready
000c3e 9aa8          sbi  __lcd_port,__lcd_rs ;RS=1
000c3f 81a8      	LD   R26,Y
000c40 940e 0bd5 	CALL __lcd_write_data
                 __lcd_putchar0:
000c42 91ff          pop  r31
000c43 91ef          pop  r30
000c44 940c 0cab 	JMP  _0x20E0001
                 ; .FEND
                 _lcd_puts:
                 ; .FSTART _lcd_puts
000c46 93ba      	ST   -Y,R27
000c47 93aa      	ST   -Y,R26
000c48 931a      	ST   -Y,R17
                 _0x2080005:
000c49 81a9      	LDD  R26,Y+1
000c4a 81ba      	LDD  R27,Y+1+1
000c4b 91ed      	LD   R30,X+
000c4c 83a9      	STD  Y+1,R26
000c4d 83ba      	STD  Y+1+1,R27
000c4e 2f1e      	MOV  R17,R30
000c4f 30e0      	CPI  R30,0
000c50 f019      	BREQ _0x2080007
000c51 2fa1      	MOV  R26,R17
000c52 dfcc      	RCALL _lcd_putchar
000c53 cff5      	RJMP _0x2080005
                 _0x2080007:
000c54 c010      	RJMP _0x20E0002
                 ; .FEND
                 _lcd_putsf:
                 ; .FSTART _lcd_putsf
000c55 93ba      	ST   -Y,R27
000c56 93aa      	ST   -Y,R26
000c57 931a      	ST   -Y,R17
                 _0x2080008:
000c58 81e9      	LDD  R30,Y+1
000c59 81fa      	LDD  R31,Y+1+1
000c5a 9631      	ADIW R30,1
000c5b 83e9      	STD  Y+1,R30
000c5c 83fa      	STD  Y+1+1,R31
000c5d 9731      	SBIW R30,1
000c5e 91e4      	LPM  R30,Z
000c5f 2f1e      	MOV  R17,R30
000c60 30e0      	CPI  R30,0
000c61 f019      	BREQ _0x208000A
000c62 2fa1      	MOV  R26,R17
000c63 dfbb      	RCALL _lcd_putchar
000c64 cff3      	RJMP _0x2080008
                 _0x208000A:
                 _0x20E0002:
000c65 8118      	LDD  R17,Y+0
000c66 9623      	ADIW R28,3
000c67 9508      	RET
                 ; .FEND
                 __long_delay_G104:
                 ; .FSTART __long_delay_G104
000c68 27aa          clr   r26
000c69 27bb          clr   r27
                 __long_delay0:
000c6a 9711          sbiw  r26,1         ;2 cycles
000c6b f7f1          brne  __long_delay0 ;2 cycles
000c6c 9508      	RET
                 ; .FEND
                 __lcd_init_write_G104:
                 ; .FSTART __lcd_init_write_G104
000c6d 93aa      	ST   -Y,R26
000c6e 98a9          cbi  __lcd_port,__lcd_rd 	  ;RD=0
000c6f b3a4          in    r26,__lcd_direction
000c70 6fa7          ori   r26,0xf7                ;set as output
000c71 bba4          out   __lcd_direction,r26
000c72 b3b5          in    r27,__lcd_port
000c73 70bf          andi  r27,0xf
000c74 81a8          ld    r26,y
000c75 940e 0bcb 	CALL __lcd_write_nibble_G104
000c77 9aa9          sbi   __lcd_port,__lcd_rd     ;RD=1
000c78 c032      	RJMP _0x20E0001
                 ; .FEND
                 _lcd_init:
                 ; .FSTART _lcd_init
000c79 93aa      	ST   -Y,R26
000c7a 98aa          cbi   __lcd_port,__lcd_enable ;EN=0
000c7b 98a8          cbi   __lcd_port,__lcd_rs     ;RS=0
000c7c 81e8      	LD   R30,Y
000c7d 93e0 0858 	STS  __lcd_maxx,R30
000c7f 58e0      	SUBI R30,-LOW(128)
                +
000c80 93e0 0854+STS __base_y_G104 + ( 2 ) , R30
                 	__PUTB1MN __base_y_G104,2
000c82 81e8      	LD   R30,Y
000c83 54e0      	SUBI R30,-LOW(192)
                +
000c84 93e0 0855+STS __base_y_G104 + ( 3 ) , R30
                 	__PUTB1MN __base_y_G104,3
000c86 940e 0e32 	CALL SUBOPT_0x2E
000c88 940e 0e32 	CALL SUBOPT_0x2E
000c8a 940e 0e32 	CALL SUBOPT_0x2E
000c8c dfdb      	RCALL __long_delay_G104
000c8d e2a0      	LDI  R26,LOW(32)
000c8e dfde      	RCALL __lcd_init_write_G104
000c8f dfd8      	RCALL __long_delay_G104
000c90 e2a8      	LDI  R26,LOW(40)
000c91 940e 0e37 	CALL SUBOPT_0x2F
000c93 e0a4      	LDI  R26,LOW(4)
000c94 940e 0e37 	CALL SUBOPT_0x2F
000c96 e8a5      	LDI  R26,LOW(133)
000c97 940e 0e37 	CALL SUBOPT_0x2F
000c99 b3a4          in    r26,__lcd_direction
000c9a 70af          andi  r26,0xf                 ;set as input
000c9b bba4          out   __lcd_direction,r26
000c9c 9aa9          sbi   __lcd_port,__lcd_rd     ;RD=1
000c9d 940e 0bed 	CALL _lcd_read_byte0_G104
000c9f 30e5      	CPI  R30,LOW(0x5)
000ca0 f011      	BREQ _0x208000B
000ca1 e0e0      	LDI  R30,LOW(0)
000ca2 c008      	RJMP _0x20E0001
                 _0x208000B:
000ca3 940e 0bba 	CALL __lcd_ready
000ca5 e0a6      	LDI  R26,LOW(6)
000ca6 940e 0bd5 	CALL __lcd_write_data
000ca8 940e 0c0a 	CALL _lcd_clear
000caa e0e1      	LDI  R30,LOW(1)
                 _0x20E0001:
000cab 9621      	ADIW R28,1
000cac 9508      	RET
                 ; .FEND
                 
                 	.CSEG
                 
                 	.CSEG
                 
                 	.DSEG
                 _twi_tx_index:
000765           	.BYTE 0x1
                 _twi_rx_index:
000766           	.BYTE 0x1
                 _twi_result:
000767           	.BYTE 0x1
                 _line_right:
000768           	.BYTE 0x2
                 _dist_left:
00076a           	.BYTE 0x2
                 _dist_fleft:
00076c           	.BYTE 0x2
                 _dist_fright:
00076e           	.BYTE 0x2
                 _dist_right:
000770           	.BYTE 0x2
                 _linesensorvaluetemp:
000772           	.BYTE 0x2
                 _distanzsensorvaluetemp:
000774           	.BYTE 0x2
                 _rc5_time:
000776           	.BYTE 0x1
                 _rc5_data:
000777           	.BYTE 0x2
                 _tmp:
000779           	.BYTE 0x2
                 _ucToggle:
00077b           	.BYTE 0x1
                 _ucAdress:
00077c           	.BYTE 0x1
                 _ucData:
00077d           	.BYTE 0x1
                 _s:
00077e           	.BYTE 0x11
                 _strTemp:
00078f           	.BYTE 0x11
                 _servo_breaks:
0007a0           	.BYTE 0x2
                 _servo_value_cur:
0007a2           	.BYTE 0x2
                 _servo_value_copy:
0007a4           	.BYTE 0x2
                 _iTemp:
0007a6           	.BYTE 0x2
                 _rx_buffer:
0007a8           	.BYTE 0xF
                 _tx_buffer:
0007b7           	.BYTE 0xF
                 _strULTRA:
0007c6           	.BYTE 0x11
                 _iRisingEdge:
0007d7           	.BYTE 0x2
                 _iFallingEdge:
0007d9           	.BYTE 0x2
                 _iTime:
0007db           	.BYTE 0x2
                 _icr3:
0007dd           	.BYTE 0x2
                 _data:
0007df           	.BYTE 0x20
                 _Wert:
0007ff           	.BYTE 0x5
                 _x:
000804           	.BYTE 0x8
                 _y:
00080c           	.BYTE 0x8
                 _sWIICAM:
000814           	.BYTE 0x4
                 _temp:
000818           	.BYTE 0x2
                 _state_info:
00081a           	.BYTE 0x2
                 _engine_dir:
00081c           	.BYTE 0x2
                 _wiicamobject:
00081e           	.BYTE 0x2
                 _str:
000820           	.BYTE 0x11
                 _adc_data:
000831           	.BYTE 0xC
                 _input_index_S0000000000:
00083d           	.BYTE 0x1
                 _wheelEncoderCounter_left:
00083e           	.BYTE 0x2
                 _wheelEncoderCounter_right:
000840           	.BYTE 0x2
                 __seed_G100:
000842           	.BYTE 0x4
                 _slave_address_G103:
000846           	.BYTE 0x1
                 _twi_tx_buffer_G103:
000847           	.BYTE 0x2
                 _bytes_to_tx_G103:
000849           	.BYTE 0x1
                 _twi_rx_buffer_G103:
00084a           	.BYTE 0x2
                 _bytes_to_rx_G103:
00084c           	.BYTE 0x1
                 _twi_rx_buffer_size_G103:
00084d           	.BYTE 0x1
                 _twi_slave_rx_handler_G103:
00084e           	.BYTE 0x2
                 _twi_slave_tx_handler_G103:
000850           	.BYTE 0x2
                 __base_y_G104:
000852           	.BYTE 0x4
                 __lcd_x:
000856           	.BYTE 0x1
                 __lcd_y:
000857           	.BYTE 0x1
                 __lcd_maxx:
000858           	.BYTE 0x1
                 
                 	.CSEG
                 ;OPTIMIZER ADDED SUBROUTINE, CALLED 5 TIMES, CODE SIZE REDUCTION:13 WORDS
                 SUBOPT_0x0:
000cad 93aa      	ST   -Y,R26
000cae 93ba      	ST   -Y,R27
000caf 93ea      	ST   -Y,R30
000cb0 93fa      	ST   -Y,R31
000cb1 b7ef      	IN   R30,SREG
000cb2 93ea      	ST   -Y,R30
000cb3 9508      	RET
                 
                 ;OPTIMIZER ADDED SUBROUTINE, CALLED 6 TIMES, CODE SIZE REDUCTION:7 WORDS
                 SUBOPT_0x1:
000cb4 91a0 0840 	LDS  R26,_wheelEncoderCounter_right
000cb6 91b0 0841 	LDS  R27,_wheelEncoderCounter_right+1
000cb8 9508      	RET
                 
                 ;OPTIMIZER ADDED SUBROUTINE, CALLED 3 TIMES, CODE SIZE REDUCTION:3 WORDS
                 SUBOPT_0x2:
000cb9 91ed      	LD   R30,X+
000cba 91fd      	LD   R31,X+
000cbb 9631      	ADIW R30,1
000cbc 93fe      	ST   -X,R31
000cbd 93ee      	ST   -X,R30
000cbe 9508      	RET
                 
                 ;OPTIMIZER ADDED SUBROUTINE, CALLED 8 TIMES, CODE SIZE REDUCTION:18 WORDS
                 SUBOPT_0x3:
000cbf e0e0      	LDI  R30,LOW(0)
000cc0 93e0 0840 	STS  _wheelEncoderCounter_right,R30
000cc2 93e0 0841 	STS  _wheelEncoderCounter_right+1,R30
000cc4 9508      	RET
                 
                 ;OPTIMIZER ADDED SUBROUTINE, CALLED 6 TIMES, CODE SIZE REDUCTION:7 WORDS
                 SUBOPT_0x4:
000cc5 91a0 083e 	LDS  R26,_wheelEncoderCounter_left
000cc7 91b0 083f 	LDS  R27,_wheelEncoderCounter_left+1
000cc9 9508      	RET
                 
                 ;OPTIMIZER ADDED SUBROUTINE, CALLED 8 TIMES, CODE SIZE REDUCTION:18 WORDS
                 SUBOPT_0x5:
000cca e0e0      	LDI  R30,LOW(0)
000ccb 93e0 083e 	STS  _wheelEncoderCounter_left,R30
000ccd 93e0 083f 	STS  _wheelEncoderCounter_left+1,R30
000ccf 9508      	RET
                 
                 ;OPTIMIZER ADDED SUBROUTINE, CALLED 3 TIMES, CODE SIZE REDUCTION:1 WORDS
                 SUBOPT_0x6:
000cd0 91a0 07a2 	LDS  R26,_servo_value_cur
000cd2 91b0 07a3 	LDS  R27,_servo_value_cur+1
000cd4 9508      	RET
                 
                 ;OPTIMIZER ADDED SUBROUTINE, CALLED 4 TIMES, CODE SIZE REDUCTION:3 WORDS
                 SUBOPT_0x7:
000cd5 91e0 07a2 	LDS  R30,_servo_value_cur
000cd7 91f0 07a3 	LDS  R31,_servo_value_cur+1
000cd9 9508      	RET
                 
                 ;OPTIMIZER ADDED SUBROUTINE, CALLED 4 TIMES, CODE SIZE REDUCTION:12 WORDS
                 SUBOPT_0x8:
000cda 940e 0c46 	CALL _lcd_puts
000cdc e0e0      	LDI  R30,LOW(0)
000cdd 93ea      	ST   -Y,R30
000cde e0a1      	LDI  R26,LOW(1)
000cdf 940c 0bf6 	JMP  _lcd_gotoxy
                 
                 ;OPTIMIZER ADDED SUBROUTINE, CALLED 4 TIMES, CODE SIZE REDUCTION:3 WORDS
                 SUBOPT_0x9:
000ce1 91e0 0779 	LDS  R30,_tmp
000ce3 91f0 077a 	LDS  R31,_tmp+1
000ce5 9508      	RET
                 
                 ;OPTIMIZER ADDED SUBROUTINE, CALLED 2 TIMES, CODE SIZE REDUCTION:6 WORDS
                 SUBOPT_0xA:
000ce6 e0f0      	LDI  R31,0
000ce7 93fa      	ST   -Y,R31
000ce8 93ea      	ST   -Y,R30
000ce9 e7ae      	LDI  R26,LOW(_s)
000cea e0b7      	LDI  R27,HIGH(_s)
000ceb 940e 09d0 	CALL _itoa
000ced e7ae      	LDI  R26,LOW(_s)
000cee e0b7      	LDI  R27,HIGH(_s)
000cef 940c 0c46 	JMP  _lcd_puts
                 
                 ;OPTIMIZER ADDED SUBROUTINE, CALLED 2 TIMES, CODE SIZE REDUCTION:1 WORDS
                 SUBOPT_0xB:
000cf1 e6a4      	LDI  R26,LOW(100)
000cf2 e0b0      	LDI  R27,HIGH(100)
000cf3 940e 0fad 	CALL __MULW12
                +
000cf5 0f6e     +ADD R22 , R30
000cf6 1f7f     +ADC R23 , R31
                 	__ADDWRR 22,23,30,31
000cf7 9508      	RET
                 
                 ;OPTIMIZER ADDED SUBROUTINE, CALLED 2 TIMES, CODE SIZE REDUCTION:1 WORDS
                 SUBOPT_0xC:
000cf8 e0aa      	LDI  R26,LOW(10)
000cf9 e0b0      	LDI  R27,HIGH(10)
000cfa 940e 0fad 	CALL __MULW12
000cfc 0fe6      	ADD  R30,R22
000cfd 1ff7      	ADC  R31,R23
000cfe 9508      	RET
                 
                 ;OPTIMIZER ADDED SUBROUTINE, CALLED 3 TIMES, CODE SIZE REDUCTION:1 WORDS
                 SUBOPT_0xD:
000cff e6a4      	LDI  R26,LOW(100)
000d00 e0b0      	LDI  R27,0
000d01 940c 0e8c 	JMP  _delay_ms
                 
                 ;OPTIMIZER ADDED SUBROUTINE, CALLED 3 TIMES, CODE SIZE REDUCTION:1 WORDS
                 SUBOPT_0xE:
000d03 0fee      	LSL  R30
000d04 1fff      	ROL  R31
000d05 0fea      	ADD  R30,R26
000d06 1ffb      	ADC  R31,R27
000d07 9508      	RET
                 
                 ;OPTIMIZER ADDED SUBROUTINE, CALLED 5 TIMES, CODE SIZE REDUCTION:9 WORDS
                 SUBOPT_0xF:
000d08 01f8      	MOVW R30,R16
000d09 e0a3      	LDI  R26,LOW(3)
000d0a e0b0      	LDI  R27,HIGH(3)
000d0b 940e 0fad 	CALL __MULW12
000d0d 9508      	RET
                 
                 ;OPTIMIZER ADDED SUBROUTINE, CALLED 2 TIMES, CODE SIZE REDUCTION:2 WORDS
                 SUBOPT_0x10:
000d0e 01df      	MOVW R26,R30
000d0f 0faa      	LSL  R26
000d10 1fbb      	ROL  R27
                +
000d11 51ab     +SUBI R26 , LOW ( - _data - ( 6 ) )
000d12 4fb8     +SBCI R27 , HIGH ( - _data - ( 6 ) )
                 	__ADDW2MN _data,6
000d13 940e 0fc0 	CALL __GETW1P
000d15 9508      	RET
                 
                 ;OPTIMIZER ADDED SUBROUTINE, CALLED 2 TIMES, CODE SIZE REDUCTION:6 WORDS
                 SUBOPT_0x11:
000d16 940e 0fc0 	CALL __GETW1P
000d18 91a0 0818 	LDS  R26,_temp
000d1a 91b0 0819 	LDS  R27,_temp+1
000d1c 0fea      	ADD  R30,R26
000d1d 1ffb      	ADC  R31,R27
000d1e 01db      	MOVW R26,R22
000d1f 93ed      	ST   X+,R30
000d20 93fc      	ST   X,R31
000d21 9508      	RET
                 
                 ;OPTIMIZER ADDED SUBROUTINE, CALLED 13 TIMES, CODE SIZE REDUCTION:33 WORDS
                 SUBOPT_0x12:
000d22 e0e0      	LDI  R30,LOW(0)
000d23 93ea      	ST   -Y,R30
000d24 e0a1      	LDI  R26,LOW(1)
000d25 940c 0bf6 	JMP  _lcd_gotoxy
                 
                 ;OPTIMIZER ADDED SUBROUTINE, CALLED 2 TIMES, CODE SIZE REDUCTION:4 WORDS
                 SUBOPT_0x13:
000d27 9ad9      	SBI  0x1B,1
000d28 9adb      	SBI  0x1B,3
000d29 940e 0c0a 	CALL _lcd_clear
000d2b 91e0 081c 	LDS  R30,_engine_dir
000d2d 91f0 081d 	LDS  R31,_engine_dir+1
000d2f 9730      	SBIW R30,0
000d30 9508      	RET
                 
                 ;OPTIMIZER ADDED SUBROUTINE, CALLED 2 TIMES, CODE SIZE REDUCTION:11 WORDS
                 SUBOPT_0x14:
000d31 940e 0c46 	CALL _lcd_puts
000d33 91e0 083e 	LDS  R30,_wheelEncoderCounter_left
000d35 91f0 083f 	LDS  R31,_wheelEncoderCounter_left+1
000d37 93fa      	ST   -Y,R31
000d38 93ea      	ST   -Y,R30
000d39 01de      	MOVW R26,R28
000d3a 9612      	ADIW R26,2
000d3b 940e 09d0 	CALL _itoa
000d3d 01de      	MOVW R26,R28
000d3e 940c 0c46 	JMP  _lcd_puts
                 
                 ;OPTIMIZER ADDED SUBROUTINE, CALLED 2 TIMES, CODE SIZE REDUCTION:11 WORDS
                 SUBOPT_0x15:
000d40 940e 0c46 	CALL _lcd_puts
000d42 91e0 0840 	LDS  R30,_wheelEncoderCounter_right
000d44 91f0 0841 	LDS  R31,_wheelEncoderCounter_right+1
000d46 93fa      	ST   -Y,R31
000d47 93ea      	ST   -Y,R30
000d48 01de      	MOVW R26,R28
000d49 9612      	ADIW R26,2
000d4a 940e 09d0 	CALL _itoa
000d4c 01de      	MOVW R26,R28
000d4d 940c 0c46 	JMP  _lcd_puts
                 
                 ;OPTIMIZER ADDED SUBROUTINE, CALLED 2 TIMES, CODE SIZE REDUCTION:10 WORDS
                 SUBOPT_0x16:
000d4f efaa      	LDI  R26,LOW(250)
000d50 e0b0      	LDI  R27,0
000d51 940e 0e8c 	CALL _delay_ms
000d53 91e0 081c 	LDS  R30,_engine_dir
000d55 91f0 081d 	LDS  R31,_engine_dir+1
000d57 940e 0fa0 	CALL __LNEGW1
000d59 e0f0      	LDI  R31,0
000d5a 93e0 081c 	STS  _engine_dir,R30
000d5c 93f0 081d 	STS  _engine_dir+1,R31
000d5e 9508      	RET
                 
                 ;OPTIMIZER ADDED SUBROUTINE, CALLED 2 TIMES, CODE SIZE REDUCTION:1 WORDS
                 SUBOPT_0x17:
000d5f 01de      	MOVW R26,R28
000d60 9616      	ADIW R26,6
000d61 940e 09d0 	CALL _itoa
000d63 01de      	MOVW R26,R28
000d64 9614      	ADIW R26,4
000d65 9508      	RET
                 
                 ;OPTIMIZER ADDED SUBROUTINE, CALLED 4 TIMES, CODE SIZE REDUCTION:21 WORDS
                 SUBOPT_0x18:
000d66 2fe1      	MOV  R30,R17
000d67 e0a4      	LDI  R26,LOW(_x)
000d68 e0b8      	LDI  R27,HIGH(_x)
000d69 e0f0      	LDI  R31,0
000d6a 0fee      	LSL  R30
000d6b 1fff      	ROL  R31
000d6c 0fae      	ADD  R26,R30
000d6d 1fbf      	ADC  R27,R31
000d6e 940e 0fc0 	CALL __GETW1P
000d70 9508      	RET
                 
                 ;OPTIMIZER ADDED SUBROUTINE, CALLED 4 TIMES, CODE SIZE REDUCTION:21 WORDS
                 SUBOPT_0x19:
000d71 2fe1      	MOV  R30,R17
000d72 e0ac      	LDI  R26,LOW(_y)
000d73 e0b8      	LDI  R27,HIGH(_y)
000d74 e0f0      	LDI  R31,0
000d75 0fee      	LSL  R30
000d76 1fff      	ROL  R31
000d77 0fae      	ADD  R26,R30
000d78 1fbf      	ADC  R27,R31
000d79 940e 0fc0 	CALL __GETW1P
000d7b 9508      	RET
                 
                 ;OPTIMIZER ADDED SUBROUTINE, CALLED 2 TIMES, CODE SIZE REDUCTION:1 WORDS
                 SUBOPT_0x1A:
000d7c e1a4      	LDI  R26,LOW(20)
000d7d 021a      	MULS R17,R26
000d7e 920a      	ST   -Y,R0
000d7f e0a0      	LDI  R26,LOW(0)
000d80 940c 0bf6 	JMP  _lcd_gotoxy
                 
                 ;OPTIMIZER ADDED SUBROUTINE, CALLED 2 TIMES, CODE SIZE REDUCTION:4 WORDS
                 SUBOPT_0x1B:
                +
000d82 e8a3     +LDI R26 , LOW ( 2 * _0x0 + ( 213 ) )
000d83 e0b1     +LDI R27 , HIGH ( 2 * _0x0 + ( 213 ) )
                 	__POINTW2FN _0x0,213
000d84 940e 0c55 	CALL _lcd_putsf
000d86 e0e0      	LDI  R30,LOW(0)
000d87 93e0 081e 	STS  _wiicamobject,R30
000d89 93e0 081f 	STS  _wiicamobject+1,R30
000d8b 9508      	RET
                 
                 ;OPTIMIZER ADDED SUBROUTINE, CALLED 2 TIMES, CODE SIZE REDUCTION:3 WORDS
                 SUBOPT_0x1C:
000d8c 50e0      	SUBI R30,LOW(512)
000d8d 40f2      	SBCI R31,HIGH(512)
000d8e 93fa      	ST   -Y,R31
000d8f 93ea      	ST   -Y,R30
000d90 efaf      	LDI  R26,LOW(_Wert)
000d91 e0b7      	LDI  R27,HIGH(_Wert)
000d92 940c 09d0 	JMP  _itoa
                 
                 ;OPTIMIZER ADDED SUBROUTINE, CALLED 6 TIMES, CODE SIZE REDUCTION:7 WORDS
                 SUBOPT_0x1D:
000d94 efaf      	LDI  R26,LOW(_Wert)
000d95 e0b7      	LDI  R27,HIGH(_Wert)
000d96 940c 0c46 	JMP  _lcd_puts
                 
                 ;OPTIMIZER ADDED SUBROUTINE, CALLED 2 TIMES, CODE SIZE REDUCTION:3 WORDS
                 SUBOPT_0x1E:
000d98 57e6      	SUBI R30,LOW(374)
000d99 40f1      	SBCI R31,HIGH(374)
000d9a 93fa      	ST   -Y,R31
000d9b 93ea      	ST   -Y,R30
000d9c efaf      	LDI  R26,LOW(_Wert)
000d9d e0b7      	LDI  R27,HIGH(_Wert)
000d9e 940c 09d0 	JMP  _itoa
                 
                 ;OPTIMIZER ADDED SUBROUTINE, CALLED 2 TIMES, CODE SIZE REDUCTION:1 WORDS
                 SUBOPT_0x1F:
000da0 93ea      	ST   -Y,R30
000da1 e0a0      	LDI  R26,LOW(0)
000da2 940e 0bf6 	CALL _lcd_gotoxy
000da4 cfef      	RJMP SUBOPT_0x1D
                 
                 ;OPTIMIZER ADDED SUBROUTINE, CALLED 2 TIMES, CODE SIZE REDUCTION:7 WORDS
                 SUBOPT_0x20:
000da5 2fe1      	MOV  R30,R17
000da6 e0f0      	LDI  R31,0
000da7 5eec      	SUBI R30,LOW(-_sWIICAM)
000da8 4ff7      	SBCI R31,HIGH(-_sWIICAM)
000da9 81e0      	LD   R30,Z
000daa e0f0      	LDI  R31,0
000dab 93fa      	ST   -Y,R31
000dac 93ea      	ST   -Y,R30
000dad efaf      	LDI  R26,LOW(_Wert)
000dae e0b7      	LDI  R27,HIGH(_Wert)
000daf 940c 09d0 	JMP  _itoa
                 
                 ;OPTIMIZER ADDED SUBROUTINE, CALLED 2 TIMES, CODE SIZE REDUCTION:1 WORDS
                 SUBOPT_0x21:
000db1 e0e1      	LDI  R30,LOW(1)
000db2 e0f0      	LDI  R31,HIGH(1)
000db3 93e0 081e 	STS  _wiicamobject,R30
000db5 93f0 081f 	STS  _wiicamobject+1,R31
000db7 9508      	RET
                 
                 ;OPTIMIZER ADDED SUBROUTINE, CALLED 2 TIMES, CODE SIZE REDUCTION:3 WORDS
                 SUBOPT_0x22:
000db8 2fe1      	MOV  R30,R17
000db9 50e2      	SUBI R30,LOW(2)
000dba e1a4      	LDI  R26,LOW(20)
000dbb 02ea      	MULS R30,R26
000dbc 920a      	ST   -Y,R0
000dbd e0a1      	LDI  R26,LOW(1)
000dbe 940c 0bf6 	JMP  _lcd_gotoxy
                 
                 ;OPTIMIZER ADDED SUBROUTINE, CALLED 2 TIMES, CODE SIZE REDUCTION:1 WORDS
                 SUBOPT_0x23:
000dc0 93ea      	ST   -Y,R30
000dc1 e0a1      	LDI  R26,LOW(1)
000dc2 940e 0bf6 	CALL _lcd_gotoxy
000dc4 cfcf      	RJMP SUBOPT_0x1D
                 
                 ;OPTIMIZER ADDED SUBROUTINE, CALLED 2 TIMES, CODE SIZE REDUCTION:8 WORDS
                 SUBOPT_0x24:
000dc5 e7eb      	LDI  R30,LOW(_ucToggle)
000dc6 e0f7      	LDI  R31,HIGH(_ucToggle)
000dc7 93fa      	ST   -Y,R31
000dc8 93ea      	ST   -Y,R30
000dc9 e7ec      	LDI  R30,LOW(_ucAdress)
000dca e0f7      	LDI  R31,HIGH(_ucAdress)
000dcb 93fa      	ST   -Y,R31
000dcc 93ea      	ST   -Y,R30
000dcd e7ad      	LDI  R26,LOW(_ucData)
000dce e0b7      	LDI  R27,HIGH(_ucData)
000dcf 940e 03d4 	CALL _rc5_receive
000dd1 9730      	SBIW R30,0
000dd2 9508      	RET
                 
                 ;OPTIMIZER ADDED SUBROUTINE, CALLED 2 TIMES, CODE SIZE REDUCTION:11 WORDS
                 SUBOPT_0x25:
000dd3 91e0 07db 	LDS  R30,_iTime
000dd5 91f0 07dc 	LDS  R31,_iTime+1
000dd7 2766      	CLR  R22
000dd8 2777      	CLR  R23
000dd9 940e 0efc 	CALL __CDF1
000ddb 01df      	MOVW R26,R30
000ddc 01cb      	MOVW R24,R22
                +
000ddd eced     +LDI R30 , LOW ( 0x4250CCCD )
000dde ecfc     +LDI R31 , HIGH ( 0x4250CCCD )
000ddf e560     +LDI R22 , BYTE3 ( 0x4250CCCD )
000de0 e472     +LDI R23 , BYTE4 ( 0x4250CCCD )
                 	__GETD1N 0x4250CCCD
000de1 940e 0f2a 	CALL __DIVF21
000de3 9508      	RET
                 
                 ;OPTIMIZER ADDED SUBROUTINE, CALLED 2 TIMES, CODE SIZE REDUCTION:3 WORDS
                 SUBOPT_0x26:
000de4 9ad9      	SBI  0x1B,1
000de5 98db      	CBI  0x1B,3
000de6 98df      	CBI  0x1B,7
000de7 9add      	SBI  0x1B,5
000de8 940e 0c0a 	CALL _lcd_clear
000dea cf37      	RJMP SUBOPT_0x12
                 
                 ;OPTIMIZER ADDED SUBROUTINE, CALLED 7 TIMES, CODE SIZE REDUCTION:81 WORDS
                 SUBOPT_0x27:
000deb 940e 0c46 	CALL _lcd_puts
000ded 91e0 083e 	LDS  R30,_wheelEncoderCounter_left
000def 91f0 083f 	LDS  R31,_wheelEncoderCounter_left+1
000df1 93fa      	ST   -Y,R31
000df2 93ea      	ST   -Y,R30
000df3 e2a0      	LDI  R26,LOW(_str)
000df4 e0b8      	LDI  R27,HIGH(_str)
000df5 940e 09d0 	CALL _itoa
000df7 e2a0      	LDI  R26,LOW(_str)
000df8 e0b8      	LDI  R27,HIGH(_str)
000df9 940c 0c46 	JMP  _lcd_puts
                 
                 ;OPTIMIZER ADDED SUBROUTINE, CALLED 7 TIMES, CODE SIZE REDUCTION:81 WORDS
                 SUBOPT_0x28:
000dfb 940e 0c46 	CALL _lcd_puts
000dfd 91e0 0840 	LDS  R30,_wheelEncoderCounter_right
000dff 91f0 0841 	LDS  R31,_wheelEncoderCounter_right+1
000e01 93fa      	ST   -Y,R31
000e02 93ea      	ST   -Y,R30
000e03 e2a0      	LDI  R26,LOW(_str)
000e04 e0b8      	LDI  R27,HIGH(_str)
000e05 940e 09d0 	CALL _itoa
000e07 e2a0      	LDI  R26,LOW(_str)
000e08 e0b8      	LDI  R27,HIGH(_str)
000e09 940c 0c46 	JMP  _lcd_puts
                 
                 ;OPTIMIZER ADDED SUBROUTINE, CALLED 2 TIMES, CODE SIZE REDUCTION:3 WORDS
                 SUBOPT_0x29:
000e0b 98d9      	CBI  0x1B,1
000e0c 9adb      	SBI  0x1B,3
000e0d 9adf      	SBI  0x1B,7
000e0e 98dd      	CBI  0x1B,5
000e0f 940e 0c0a 	CALL _lcd_clear
000e11 cf10      	RJMP SUBOPT_0x12
                 
                 ;OPTIMIZER ADDED SUBROUTINE, CALLED 3 TIMES, CODE SIZE REDUCTION:3 WORDS
                 SUBOPT_0x2A:
000e12 98dd      	CBI  0x1B,5
000e13 940e 0c0a 	CALL _lcd_clear
000e15 cf0c      	RJMP SUBOPT_0x12
                 
                 ;OPTIMIZER ADDED SUBROUTINE, CALLED 3 TIMES, CODE SIZE REDUCTION:9 WORDS
                 SUBOPT_0x2B:
000e16 98d9      	CBI  0x1B,1
000e17 98db      	CBI  0x1B,3
000e18 eea8      	LDI  R26,LOW(1000)
000e19 e0b3      	LDI  R27,HIGH(1000)
000e1a 940e 0e8c 	CALL _delay_ms
000e1c cead      	RJMP SUBOPT_0x5
                 
                 ;OPTIMIZER ADDED SUBROUTINE, CALLED 17 TIMES, CODE SIZE REDUCTION:45 WORDS
                 SUBOPT_0x2C:
000e1d 91e0 081a 	LDS  R30,_state_info
000e1f 91f0 081b 	LDS  R31,_state_info+1
000e21 9730      	SBIW R30,0
000e22 9508      	RET
                 
                 ;OPTIMIZER ADDED SUBROUTINE, CALLED 17 TIMES, CODE SIZE REDUCTION:189 WORDS
                 SUBOPT_0x2D:
000e23 940e 0c46 	CALL _lcd_puts
000e25 eea8      	LDI  R26,LOW(1000)
000e26 e0b3      	LDI  R27,HIGH(1000)
000e27 940e 0e8c 	CALL _delay_ms
000e29 940e 0c0a 	CALL _lcd_clear
000e2b e0e1      	LDI  R30,LOW(1)
000e2c e0f0      	LDI  R31,HIGH(1)
000e2d 93e0 081a 	STS  _state_info,R30
000e2f 93f0 081b 	STS  _state_info+1,R31
000e31 9508      	RET
                 
                 ;OPTIMIZER ADDED SUBROUTINE, CALLED 3 TIMES, CODE SIZE REDUCTION:3 WORDS
                 SUBOPT_0x2E:
000e32 940e 0c68 	CALL __long_delay_G104
000e34 e3a0      	LDI  R26,LOW(48)
000e35 940c 0c6d 	JMP  __lcd_init_write_G104
                 
                 ;OPTIMIZER ADDED SUBROUTINE, CALLED 3 TIMES, CODE SIZE REDUCTION:1 WORDS
                 SUBOPT_0x2F:
000e37 940e 0bd5 	CALL __lcd_write_data
000e39 940c 0c68 	JMP  __long_delay_G104
                 
                 
                 	.CSEG
                 	.equ __sda_bit=5
                 	.equ __scl_bit=3
                 	.equ __i2c_port=0x18 ;PORTB
                 	.equ __i2c_dir=__i2c_port-1
                 	.equ __i2c_pin=__i2c_port-2
                 
                 _i2c_init:
000e3b 98c3      	cbi  __i2c_port,__scl_bit
000e3c 98c5      	cbi  __i2c_port,__sda_bit
000e3d 9abb      	sbi  __i2c_dir,__scl_bit
000e3e 98bd      	cbi  __i2c_dir,__sda_bit
000e3f c015      	rjmp __i2c_delay2
                 _i2c_start:
000e40 98bd      	cbi  __i2c_dir,__sda_bit
000e41 98bb      	cbi  __i2c_dir,__scl_bit
000e42 27ee      	clr  r30
000e43 0000      	nop
000e44 9bb5      	sbis __i2c_pin,__sda_bit
000e45 9508      	ret
000e46 9bb3      	sbis __i2c_pin,__scl_bit
000e47 9508      	ret
000e48 d004      	rcall __i2c_delay1
000e49 9abd      	sbi  __i2c_dir,__sda_bit
000e4a d002      	rcall __i2c_delay1
000e4b 9abb      	sbi  __i2c_dir,__scl_bit
000e4c e0e1      	ldi  r30,1
                 __i2c_delay1:
000e4d e16b      	ldi  r22,27
000e4e c007      	rjmp __i2c_delay2l
                 _i2c_stop:
000e4f 9abd      	sbi  __i2c_dir,__sda_bit
000e50 9abb      	sbi  __i2c_dir,__scl_bit
000e51 d003      	rcall __i2c_delay2
000e52 98bb      	cbi  __i2c_dir,__scl_bit
000e53 dff9      	rcall __i2c_delay1
000e54 98bd      	cbi  __i2c_dir,__sda_bit
                 __i2c_delay2:
000e55 e365      	ldi  r22,53
                 __i2c_delay2l:
000e56 956a      	dec  r22
000e57 f7f1      	brne __i2c_delay2l
000e58 9508      	ret
                 _i2c_read:
000e59 e078      	ldi  r23,8
                 __i2c_read0:
000e5a 98bb      	cbi  __i2c_dir,__scl_bit
000e5b dff1      	rcall __i2c_delay1
                 __i2c_read3:
000e5c 9bb3      	sbis __i2c_pin,__scl_bit
000e5d cffe      	rjmp __i2c_read3
000e5e dfee      	rcall __i2c_delay1
000e5f 9488      	clc
000e60 99b5      	sbic __i2c_pin,__sda_bit
000e61 9408      	sec
000e62 9abb      	sbi  __i2c_dir,__scl_bit
000e63 dff1      	rcall __i2c_delay2
000e64 1fee      	rol  r30
000e65 957a      	dec  r23
000e66 f799      	brne __i2c_read0
000e67 2f7a      	mov  r23,r26
000e68 2377      	tst  r23
000e69 f411      	brne __i2c_read1
000e6a 98bd      	cbi  __i2c_dir,__sda_bit
000e6b c001      	rjmp __i2c_read2
                 __i2c_read1:
000e6c 9abd      	sbi  __i2c_dir,__sda_bit
                 __i2c_read2:
000e6d dfdf      	rcall __i2c_delay1
000e6e 98bb      	cbi  __i2c_dir,__scl_bit
000e6f dfe5      	rcall __i2c_delay2
000e70 9abb      	sbi  __i2c_dir,__scl_bit
000e71 dfdb      	rcall __i2c_delay1
000e72 98bd      	cbi  __i2c_dir,__sda_bit
000e73 cfd9      	rjmp __i2c_delay1
                 
                 _i2c_write:
000e74 e078      	ldi  r23,8
                 __i2c_write0:
000e75 0faa      	lsl  r26
000e76 f410      	brcc __i2c_write1
000e77 98bd      	cbi  __i2c_dir,__sda_bit
000e78 c001      	rjmp __i2c_write2
                 __i2c_write1:
000e79 9abd      	sbi  __i2c_dir,__sda_bit
                 __i2c_write2:
000e7a dfda      	rcall __i2c_delay2
000e7b 98bb      	cbi  __i2c_dir,__scl_bit
000e7c dfd0      	rcall __i2c_delay1
                 __i2c_write3:
000e7d 9bb3      	sbis __i2c_pin,__scl_bit
000e7e cffe      	rjmp __i2c_write3
000e7f dfcd      	rcall __i2c_delay1
000e80 9abb      	sbi  __i2c_dir,__scl_bit
000e81 957a      	dec  r23
000e82 f791      	brne __i2c_write0
000e83 98bd      	cbi  __i2c_dir,__sda_bit
000e84 dfc8      	rcall __i2c_delay1
000e85 98bb      	cbi  __i2c_dir,__scl_bit
000e86 dfce      	rcall __i2c_delay2
000e87 e0e1      	ldi  r30,1
000e88 99b5      	sbic __i2c_pin,__sda_bit
000e89 27ee      	clr  r30
000e8a 9abb      	sbi  __i2c_dir,__scl_bit
000e8b cfc1      	rjmp __i2c_delay1
                 
                 _delay_ms:
000e8c 9610      	adiw r26,0
000e8d f039      	breq __delay_ms1
                 __delay_ms0:
                +
000e8e ea80     +LDI R24 , LOW ( 0xFA0 )
000e8f e09f     +LDI R25 , HIGH ( 0xFA0 )
                +__DELAY_USW_LOOP :
000e90 9701     +SBIW R24 , 1
000e91 f7f1     +BRNE __DELAY_USW_LOOP
                 	__DELAY_USW 0xFA0
000e92 95a8      	wdr
000e93 9711      	sbiw r26,1
000e94 f7c9      	brne __delay_ms0
                 __delay_ms1:
000e95 9508      	ret
                 
                 __ROUND_REPACK:
000e96 2355      	TST  R21
000e97 f442      	BRPL __REPACK
000e98 3850      	CPI  R21,0x80
000e99 f411      	BRNE __ROUND_REPACK0
000e9a ffe0      	SBRS R30,0
000e9b c004      	RJMP __REPACK
                 __ROUND_REPACK0:
000e9c 9631      	ADIW R30,1
000e9d 1f69      	ADC  R22,R25
000e9e 1f79      	ADC  R23,R25
000e9f f06b      	BRVS __REPACK1
                 
                 __REPACK:
000ea0 e850      	LDI  R21,0x80
000ea1 2757      	EOR  R21,R23
000ea2 f411      	BRNE __REPACK0
000ea3 935f      	PUSH R21
000ea4 c073      	RJMP __ZERORES
                 __REPACK0:
000ea5 3f5f      	CPI  R21,0xFF
000ea6 f031      	BREQ __REPACK1
000ea7 0f66      	LSL  R22
000ea8 0c00      	LSL  R0
000ea9 9557      	ROR  R21
000eaa 9567      	ROR  R22
000eab 2f75      	MOV  R23,R21
000eac 9508      	RET
                 __REPACK1:
000ead 935f      	PUSH R21
000eae 2000      	TST  R0
000eaf f00a      	BRMI __REPACK2
000eb0 c073      	RJMP __MAXRES
                 __REPACK2:
000eb1 c06c      	RJMP __MINRES
                 
                 __UNPACK:
000eb2 e850      	LDI  R21,0x80
000eb3 2e19      	MOV  R1,R25
000eb4 2215      	AND  R1,R21
000eb5 0f88      	LSL  R24
000eb6 1f99      	ROL  R25
000eb7 2795      	EOR  R25,R21
000eb8 0f55      	LSL  R21
000eb9 9587      	ROR  R24
                 
                 __UNPACK1:
000eba e850      	LDI  R21,0x80
000ebb 2e07      	MOV  R0,R23
000ebc 2205      	AND  R0,R21
000ebd 0f66      	LSL  R22
000ebe 1f77      	ROL  R23
000ebf 2775      	EOR  R23,R21
000ec0 0f55      	LSL  R21
000ec1 9567      	ROR  R22
000ec2 9508      	RET
                 
                 __CFD1U:
000ec3 9468      	SET
000ec4 c001      	RJMP __CFD1U0
                 __CFD1:
000ec5 94e8      	CLT
                 __CFD1U0:
000ec6 935f      	PUSH R21
000ec7 dff2      	RCALL __UNPACK1
000ec8 3870      	CPI  R23,0x80
000ec9 f018      	BRLO __CFD10
000eca 3f7f      	CPI  R23,0xFF
000ecb f408      	BRCC __CFD10
000ecc c04b      	RJMP __ZERORES
                 __CFD10:
000ecd e156      	LDI  R21,22
000ece 1b57      	SUB  R21,R23
000ecf f4aa      	BRPL __CFD11
000ed0 9551      	NEG  R21
000ed1 3058      	CPI  R21,8
000ed2 f40e      	BRTC __CFD19
000ed3 3059      	CPI  R21,9
                 __CFD19:
000ed4 f030      	BRLO __CFD17
000ed5 efef      	SER  R30
000ed6 efff      	SER  R31
000ed7 ef6f      	SER  R22
000ed8 e77f      	LDI  R23,0x7F
000ed9 f977      	BLD  R23,7
000eda c01a      	RJMP __CFD15
                 __CFD17:
000edb 2777      	CLR  R23
000edc 2355      	TST  R21
000edd f0b9      	BREQ __CFD15
                 __CFD18:
000ede 0fee      	LSL  R30
000edf 1fff      	ROL  R31
000ee0 1f66      	ROL  R22
000ee1 1f77      	ROL  R23
000ee2 955a      	DEC  R21
000ee3 f7d1      	BRNE __CFD18
000ee4 c010      	RJMP __CFD15
                 __CFD11:
000ee5 2777      	CLR  R23
                 __CFD12:
000ee6 3058      	CPI  R21,8
000ee7 f028      	BRLO __CFD13
000ee8 2fef      	MOV  R30,R31
000ee9 2ff6      	MOV  R31,R22
000eea 2f67      	MOV  R22,R23
000eeb 5058      	SUBI R21,8
000eec cff9      	RJMP __CFD12
                 __CFD13:
000eed 2355      	TST  R21
000eee f031      	BREQ __CFD15
                 __CFD14:
000eef 9576      	LSR  R23
000ef0 9567      	ROR  R22
000ef1 95f7      	ROR  R31
000ef2 95e7      	ROR  R30
000ef3 955a      	DEC  R21
000ef4 f7d1      	BRNE __CFD14
                 __CFD15:
000ef5 2000      	TST  R0
000ef6 f40a      	BRPL __CFD16
000ef7 d07b      	RCALL __ANEGD1
                 __CFD16:
000ef8 915f      	POP  R21
000ef9 9508      	RET
                 
                 __CDF1U:
000efa 9468      	SET
000efb c001      	RJMP __CDF1U0
                 __CDF1:
000efc 94e8      	CLT
                 __CDF1U0:
000efd 9730      	SBIW R30,0
000efe 4060      	SBCI R22,0
000eff 4070      	SBCI R23,0
000f00 f0b1      	BREQ __CDF10
000f01 2400      	CLR  R0
000f02 f026      	BRTS __CDF11
000f03 2377      	TST  R23
000f04 f412      	BRPL __CDF11
000f05 9400      	COM  R0
000f06 d06c      	RCALL __ANEGD1
                 __CDF11:
000f07 2e17      	MOV  R1,R23
000f08 e17e      	LDI  R23,30
000f09 2011      	TST  R1
                 __CDF12:
000f0a f032      	BRMI __CDF13
000f0b 957a      	DEC  R23
000f0c 0fee      	LSL  R30
000f0d 1fff      	ROL  R31
000f0e 1f66      	ROL  R22
000f0f 1c11      	ROL  R1
000f10 cff9      	RJMP __CDF12
                 __CDF13:
000f11 2fef      	MOV  R30,R31
000f12 2ff6      	MOV  R31,R22
000f13 2d61      	MOV  R22,R1
000f14 935f      	PUSH R21
000f15 df8a      	RCALL __REPACK
000f16 915f      	POP  R21
                 __CDF10:
000f17 9508      	RET
                 
                 __ZERORES:
000f18 27ee      	CLR  R30
000f19 27ff      	CLR  R31
000f1a 2766      	CLR  R22
000f1b 2777      	CLR  R23
000f1c 915f      	POP  R21
000f1d 9508      	RET
                 
                 __MINRES:
000f1e efef      	SER  R30
000f1f efff      	SER  R31
000f20 e76f      	LDI  R22,0x7F
000f21 ef7f      	SER  R23
000f22 915f      	POP  R21
000f23 9508      	RET
                 
                 __MAXRES:
000f24 efef      	SER  R30
000f25 efff      	SER  R31
000f26 e76f      	LDI  R22,0x7F
000f27 e77f      	LDI  R23,0x7F
000f28 915f      	POP  R21
000f29 9508      	RET
                 
                 __DIVF21:
000f2a 935f      	PUSH R21
000f2b df86      	RCALL __UNPACK
000f2c 3870      	CPI  R23,0x80
000f2d f421      	BRNE __DIVF210
000f2e 2011      	TST  R1
                 __DIVF211:
000f2f f40a      	BRPL __DIVF219
000f30 cfed      	RJMP __MINRES
                 __DIVF219:
000f31 cff2      	RJMP __MAXRES
                 __DIVF210:
000f32 3890      	CPI  R25,0x80
000f33 f409      	BRNE __DIVF218
                 __DIVF217:
000f34 cfe3      	RJMP __ZERORES
                 __DIVF218:
000f35 2401      	EOR  R0,R1
000f36 9408      	SEC
000f37 0b97      	SBC  R25,R23
000f38 f41b      	BRVC __DIVF216
000f39 f3d4      	BRLT __DIVF217
000f3a 2000      	TST  R0
000f3b cff3      	RJMP __DIVF211
                 __DIVF216:
000f3c 2f79      	MOV  R23,R25
000f3d 931f      	PUSH R17
000f3e 932f      	PUSH R18
000f3f 933f      	PUSH R19
000f40 934f      	PUSH R20
000f41 2411      	CLR  R1
000f42 2711      	CLR  R17
000f43 2722      	CLR  R18
000f44 2733      	CLR  R19
000f45 2744      	CLR  R20
000f46 2755      	CLR  R21
000f47 e290      	LDI  R25,32
                 __DIVF212:
000f48 17ae      	CP   R26,R30
000f49 07bf      	CPC  R27,R31
000f4a 0786      	CPC  R24,R22
000f4b 0741      	CPC  R20,R17
000f4c f030      	BRLO __DIVF213
000f4d 1bae      	SUB  R26,R30
000f4e 0bbf      	SBC  R27,R31
000f4f 0b86      	SBC  R24,R22
000f50 0b41      	SBC  R20,R17
000f51 9408      	SEC
000f52 c001      	RJMP __DIVF214
                 __DIVF213:
000f53 9488      	CLC
                 __DIVF214:
000f54 1f55      	ROL  R21
000f55 1f22      	ROL  R18
000f56 1f33      	ROL  R19
000f57 1c11      	ROL  R1
000f58 1faa      	ROL  R26
000f59 1fbb      	ROL  R27
000f5a 1f88      	ROL  R24
000f5b 1f44      	ROL  R20
000f5c 959a      	DEC  R25
000f5d f751      	BRNE __DIVF212
000f5e 01f9      	MOVW R30,R18
000f5f 2d61      	MOV  R22,R1
000f60 914f      	POP  R20
000f61 913f      	POP  R19
000f62 912f      	POP  R18
000f63 911f      	POP  R17
000f64 2366      	TST  R22
000f65 f032      	BRMI __DIVF215
000f66 0f55      	LSL  R21
000f67 1fee      	ROL  R30
000f68 1fff      	ROL  R31
000f69 1f66      	ROL  R22
000f6a 957a      	DEC  R23
000f6b f243      	BRVS __DIVF217
                 __DIVF215:
000f6c df29      	RCALL __ROUND_REPACK
000f6d 915f      	POP  R21
000f6e 9508      	RET
                 
                 __ANEGW1:
000f6f 95f1      	NEG  R31
000f70 95e1      	NEG  R30
000f71 40f0      	SBCI R31,0
000f72 9508      	RET
                 
                 __ANEGD1:
000f73 95f0      	COM  R31
000f74 9560      	COM  R22
000f75 9570      	COM  R23
000f76 95e1      	NEG  R30
000f77 4fff      	SBCI R31,-1
000f78 4f6f      	SBCI R22,-1
000f79 4f7f      	SBCI R23,-1
000f7a 9508      	RET
                 
                 __LSRW12:
000f7b 23ee      	TST  R30
000f7c 2e0e      	MOV  R0,R30
000f7d 01fd      	MOVW R30,R26
000f7e f021      	BREQ __LSRW12R
                 __LSRW12L:
000f7f 95f6      	LSR  R31
000f80 95e7      	ROR  R30
000f81 940a      	DEC  R0
000f82 f7e1      	BRNE __LSRW12L
                 __LSRW12R:
000f83 9508      	RET
                 
                 __LSLW4:
000f84 0fee      	LSL  R30
000f85 1fff      	ROL  R31
                 __LSLW3:
000f86 0fee      	LSL  R30
000f87 1fff      	ROL  R31
                 __LSLW2:
000f88 0fee      	LSL  R30
000f89 1fff      	ROL  R31
000f8a 0fee      	LSL  R30
000f8b 1fff      	ROL  R31
000f8c 9508      	RET
                 
                 __LSRW4:
000f8d 95f6      	LSR  R31
000f8e 95e7      	ROR  R30
                 __LSRW3:
000f8f 95f6      	LSR  R31
000f90 95e7      	ROR  R30
                 __LSRW2:
000f91 95f6      	LSR  R31
000f92 95e7      	ROR  R30
000f93 95f6      	LSR  R31
000f94 95e7      	ROR  R30
000f95 9508      	RET
                 
                 __CWD1:
000f96 2f6f      	MOV  R22,R31
000f97 0f66      	ADD  R22,R22
000f98 0b66      	SBC  R22,R22
000f99 2f76      	MOV  R23,R22
000f9a 9508      	RET
                 
                 __LTB12U:
000f9b 17ae      	CP   R26,R30
000f9c e0e1      	LDI  R30,1
000f9d f008      	BRLO __LTB12U1
000f9e 27ee      	CLR  R30
                 __LTB12U1:
000f9f 9508      	RET
                 
                 __LNEGW1:
000fa0 2bef      	OR   R30,R31
000fa1 e0e1      	LDI  R30,1
000fa2 f009      	BREQ __LNEGW1F
000fa3 e0e0      	LDI  R30,0
                 __LNEGW1F:
000fa4 9508      	RET
                 
                 __MULW12U:
000fa5 9ffa      	MUL  R31,R26
000fa6 2df0      	MOV  R31,R0
000fa7 9feb      	MUL  R30,R27
000fa8 0df0      	ADD  R31,R0
000fa9 9fea      	MUL  R30,R26
000faa 2de0      	MOV  R30,R0
000fab 0df1      	ADD  R31,R1
000fac 9508      	RET
                 
                 __MULW12:
000fad d004      	RCALL __CHKSIGNW
000fae dff6      	RCALL __MULW12U
000faf f40e      	BRTC __MULW121
000fb0 dfbe      	RCALL __ANEGW1
                 __MULW121:
000fb1 9508      	RET
                 
                 __CHKSIGNW:
000fb2 94e8      	CLT
000fb3 fff7      	SBRS R31,7
000fb4 c002      	RJMP __CHKSW1
000fb5 dfb9      	RCALL __ANEGW1
000fb6 9468      	SET
                 __CHKSW1:
000fb7 ffb7      	SBRS R27,7
000fb8 c006      	RJMP __CHKSW2
000fb9 95a0      	COM  R26
000fba 95b0      	COM  R27
000fbb 9611      	ADIW R26,1
000fbc f800      	BLD  R0,0
000fbd 9403      	INC  R0
000fbe fa00      	BST  R0,0
                 __CHKSW2:
000fbf 9508      	RET
                 
                 __GETW1P:
000fc0 91ed      	LD   R30,X+
000fc1 91fc      	LD   R31,X
000fc2 9711      	SBIW R26,1
000fc3 9508      	RET
                 
                 __SAVELOCR6:
000fc4 935a      	ST   -Y,R21
                 __SAVELOCR5:
000fc5 934a      	ST   -Y,R20
                 __SAVELOCR4:
000fc6 933a      	ST   -Y,R19
                 __SAVELOCR3:
000fc7 932a      	ST   -Y,R18
                 __SAVELOCR2:
000fc8 931a      	ST   -Y,R17
000fc9 930a      	ST   -Y,R16
000fca 9508      	RET
                 
                 __LOADLOCR6:
000fcb 815d      	LDD  R21,Y+5
                 __LOADLOCR5:
000fcc 814c      	LDD  R20,Y+4
                 __LOADLOCR4:
000fcd 813b      	LDD  R19,Y+3
                 __LOADLOCR3:
000fce 812a      	LDD  R18,Y+2
                 __LOADLOCR2:
000fcf 8119      	LDD  R17,Y+1
000fd0 8108      	LD   R16,Y
000fd1 9508      	RET
                 
                 ;END OF CODE MARKER
                 __END_OF_CODE:


RESOURCE USE INFORMATION
------------------------

Notice:
The register and instruction counts are symbol table hit counts,
and hence implicitly used resources are not counted, eg, the
'lpm' instruction without operands implicitly uses r0 and z,
none of which are counted.

x,y,z are separate entities in the symbol table and are
counted separately from r26..r31 here.

.dseg memory usage only counts static data declared with .byte

ATmega128 register use summary:
r0 :  33 r1 :  15 r2 :  17 r3 :   3 r4 :   5 r5 :   4 r6 :   4 r7 :   0 
r8 :   3 r9 :   1 r10:   3 r11:   1 r12:   3 r13:   1 r14:   0 r15:   2 
r16:  33 r17:  58 r18:  26 r19:  13 r20:  12 r21:  42 r22:  59 r23:  43 
r24:  32 r25:  20 r26: 367 r27: 182 r28:  21 r29:   1 r30: 710 r31: 238 
x  :  32 y  : 188 z  :  10 
Registers used: 33 out of 35 (94.3%)

ATmega128 instruction use summary:
.lds  :   0 .lds.l:   0 .sts  :   0 .sts.l:   0 adc   :  14 add   :  16 
adiw  :  22 and   :   2 andi  :  35 asr   :   0 bclr  :   0 bld   :  14 
brbc  :   0 brbs  :   0 brcc  :   2 brcs  :   0 break :   0 breq  :  32 
brge  :   6 brhc  :   0 brhs  :   0 brid  :   0 brie  :   0 brlo  :  13 
brlt  :  10 brmi  :   3 brne  :  98 brpl  :   6 brsh  :   9 brtc  :   2 
brts  :   3 brvc  :   1 brvs  :   2 bset  :   0 bst   :   1 call  : 325 
cbi   :  47 cbr   :   0 clc   :   2 clh   :   0 cli   :   2 cln   :   0 
clr   :  32 cls   :   0 clt   :  10 clv   :   0 clz   :   0 com   :  10 
cp    :  15 cpc   :  43 cpi   :  89 cpse  :   0 dec   :  13 des   :   0 
elpm  :   0 eor   :   5 fmul  :   0 fmuls :   0 fmulsu:   0 icall :   4 
ijmp  :   0 in    :  14 inc   :   2 jmp   :  59 ld    :  56 ldd   :  31 
ldi   : 490 lds   : 151 lpm   :   9 lsl   :  24 lsr   :   6 mov   :  39 
movw  :  53 mul   :   3 muls  :   6 mulsu :   0 neg   :   4 nop   :   1 
or    :   6 ori   :  20 out   :  38 pop   :  14 push  :  13 rcall :  77 
ret   :  89 reti  :   4 rjmp  : 175 rol   :  33 ror   :  12 sbc   :   7 
sbci  :  16 sbi   :  50 sbic  :  22 sbis  :   6 sbiw  :  30 sbr   :   0 
sbrc  :   4 sbrs  :   8 sec   :   3 seh   :   0 sei   :   2 sen   :   0 
ser   :   9 ses   :   0 set   :  12 sev   :   0 sez   :   0 sleep :   0 
spm   :   0 st    : 131 std   :   4 sts   : 142 sub   :   4 subi  :  35 
swap  :   2 tst   :  13 wdr   :   1 
Instructions used: 80 out of 117 (68.4%)

ATmega128 memory use summary [bytes]:
Segment   Begin    End      Code   Data   Used    Size   Use%
---------------------------------------------------------------
[.cseg] 0x000000 0x001fa4   6988   1112   8100  131072   6.2%
[.dseg] 0x000100 0x000859      0    857    857    4096  20.9%
[.eseg] 0x000000 0x000000      0      0      0    4096   0.0%

Assembly complete, 0 errors, 17 warnings
