
AVRASM ver. 2.1.30  H:\Roboterprojekt-avr\Debug\List\project.asm Sat Jan 13 09:48:19 2018

H:\Roboterprojekt-avr\Debug\List\project.asm(1090): warning: Register r4 already defined by the .DEF directive
H:\Roboterprojekt-avr\Debug\List\project.asm(1091): warning: Register r5 already defined by the .DEF directive
H:\Roboterprojekt-avr\Debug\List\project.asm(1092): warning: Register r6 already defined by the .DEF directive
H:\Roboterprojekt-avr\Debug\List\project.asm(1093): warning: Register r7 already defined by the .DEF directive
H:\Roboterprojekt-avr\Debug\List\project.asm(1094): warning: Register r8 already defined by the .DEF directive
H:\Roboterprojekt-avr\Debug\List\project.asm(1095): warning: Register r9 already defined by the .DEF directive
H:\Roboterprojekt-avr\Debug\List\project.asm(1096): warning: Register r10 already defined by the .DEF directive
H:\Roboterprojekt-avr\Debug\List\project.asm(1097): warning: Register r11 already defined by the .DEF directive
H:\Roboterprojekt-avr\Debug\List\project.asm(1098): warning: Register r12 already defined by the .DEF directive
H:\Roboterprojekt-avr\Debug\List\project.asm(1099): warning: Register r13 already defined by the .DEF directive
                 
                 
                 ;CodeVisionAVR C Compiler V3.12 Advanced
                 ;(C) Copyright 1998-2014 Pavel Haiduc, HP InfoTech s.r.l.
                 ;http://www.hpinfotech.com
                 
                 ;Build configuration    : Debug
                 ;Chip type              : ATmega128
                 ;Program type           : Application
                 ;Clock frequency        : 16,000000 MHz
                 ;Memory model           : Small
                 ;Optimize for           : Size
                 ;(s)printf features     : int, width
                 ;(s)scanf features      : int, width
                 ;External RAM size      : 0
                 ;Data Stack size        : 1024 byte(s)
                 ;Heap size              : 0 byte(s)
                 ;Promote 'char' to 'int': Yes
                 ;'char' is unsigned     : Yes
                 ;8 bit enums            : Yes
                 ;Global 'const' stored in FLASH: Yes
                 ;Enhanced function parameter passing: Yes
                 ;Enhanced core instructions: On
                 ;Automatic register allocation for global variables: On
                 ;Smart register allocation: On
                 
                 	#define _MODEL_SMALL_
                 
                 	#pragma AVRPART ADMIN PART_NAME ATmega128
                 	#pragma AVRPART MEMORY PROG_FLASH 131072
                 	#pragma AVRPART MEMORY EEPROM 4096
                 	#pragma AVRPART MEMORY INT_SRAM SIZE 4096
                 	#pragma AVRPART MEMORY INT_SRAM START_ADDR 0x100
                 
                 	#define CALL_SUPPORTED 1
                 
                 	.LISTMAC
                 	.EQU UDRE=0x5
                 	.EQU RXC=0x7
                 	.EQU USR=0xB
                 	.EQU UDR=0xC
                 	.EQU SPSR=0xE
                 	.EQU SPDR=0xF
                 	.EQU EERE=0x0
                 	.EQU EEWE=0x1
                 	.EQU EEMWE=0x2
                 	.EQU EECR=0x1C
                 	.EQU EEDR=0x1D
                 	.EQU EEARL=0x1E
                 	.EQU EEARH=0x1F
                 	.EQU WDTCR=0x21
                 	.EQU MCUCR=0x35
                 	.EQU RAMPZ=0x3B
                 	.EQU SPL=0x3D
                 	.EQU SPH=0x3E
                 	.EQU SREG=0x3F
                 	.EQU XMCRA=0x6D
                 	.EQU XMCRB=0x6C
                 
                 	.DEF R0X0=R0
                 	.DEF R0X1=R1
                 	.DEF R0X2=R2
                 	.DEF R0X3=R3
                 	.DEF R0X4=R4
                 	.DEF R0X5=R5
                 	.DEF R0X6=R6
                 	.DEF R0X7=R7
                 	.DEF R0X8=R8
                 	.DEF R0X9=R9
                 	.DEF R0XA=R10
                 	.DEF R0XB=R11
                 	.DEF R0XC=R12
                 	.DEF R0XD=R13
                 	.DEF R0XE=R14
                 	.DEF R0XF=R15
                 	.DEF R0X10=R16
                 	.DEF R0X11=R17
                 	.DEF R0X12=R18
                 	.DEF R0X13=R19
                 	.DEF R0X14=R20
                 	.DEF R0X15=R21
                 	.DEF R0X16=R22
                 	.DEF R0X17=R23
                 	.DEF R0X18=R24
                 	.DEF R0X19=R25
                 	.DEF R0X1A=R26
                 	.DEF R0X1B=R27
                 	.DEF R0X1C=R28
                 	.DEF R0X1D=R29
                 	.DEF R0X1E=R30
                 	.DEF R0X1F=R31
                 
                 	.EQU __SRAM_START=0x0100
                 	.EQU __SRAM_END=0x10FF
                 	.EQU __DSTACK_SIZE=0x0400
                 	.EQU __HEAP_SIZE=0x0000
                 	.EQU __CLEAR_SRAM_SIZE=__SRAM_END-__SRAM_START+1
                 
                 	.MACRO __CPD1N
                 	CPI  R30,LOW(@0)
                 	LDI  R26,HIGH(@0)
                 	CPC  R31,R26
                 	LDI  R26,BYTE3(@0)
                 	CPC  R22,R26
                 	LDI  R26,BYTE4(@0)
                 	CPC  R23,R26
                 	.ENDM
                 
                 	.MACRO __CPD2N
                 	CPI  R26,LOW(@0)
                 	LDI  R30,HIGH(@0)
                 	CPC  R27,R30
                 	LDI  R30,BYTE3(@0)
                 	CPC  R24,R30
                 	LDI  R30,BYTE4(@0)
                 	CPC  R25,R30
                 	.ENDM
                 
                 	.MACRO __CPWRR
                 	CP   R@0,R@2
                 	CPC  R@1,R@3
                 	.ENDM
                 
                 	.MACRO __CPWRN
                 	CPI  R@0,LOW(@2)
                 	LDI  R30,HIGH(@2)
                 	CPC  R@1,R30
                 	.ENDM
                 
                 	.MACRO __ADDB1MN
                 	SUBI R30,LOW(-@0-(@1))
                 	.ENDM
                 
                 	.MACRO __ADDB2MN
                 	SUBI R26,LOW(-@0-(@1))
                 	.ENDM
                 
                 	.MACRO __ADDW1MN
                 	SUBI R30,LOW(-@0-(@1))
                 	SBCI R31,HIGH(-@0-(@1))
                 	.ENDM
                 
                 	.MACRO __ADDW2MN
                 	SUBI R26,LOW(-@0-(@1))
                 	SBCI R27,HIGH(-@0-(@1))
                 	.ENDM
                 
                 	.MACRO __ADDW1FN
                 	SUBI R30,LOW(-2*@0-(@1))
                 	SBCI R31,HIGH(-2*@0-(@1))
                 	.ENDM
                 
                 	.MACRO __ADDD1FN
                 	SUBI R30,LOW(-2*@0-(@1))
                 	SBCI R31,HIGH(-2*@0-(@1))
                 	SBCI R22,BYTE3(-2*@0-(@1))
                 	.ENDM
                 
                 	.MACRO __ADDD1N
                 	SUBI R30,LOW(-@0)
                 	SBCI R31,HIGH(-@0)
                 	SBCI R22,BYTE3(-@0)
                 	SBCI R23,BYTE4(-@0)
                 	.ENDM
                 
                 	.MACRO __ADDD2N
                 	SUBI R26,LOW(-@0)
                 	SBCI R27,HIGH(-@0)
                 	SBCI R24,BYTE3(-@0)
                 	SBCI R25,BYTE4(-@0)
                 	.ENDM
                 
                 	.MACRO __SUBD1N
                 	SUBI R30,LOW(@0)
                 	SBCI R31,HIGH(@0)
                 	SBCI R22,BYTE3(@0)
                 	SBCI R23,BYTE4(@0)
                 	.ENDM
                 
                 	.MACRO __SUBD2N
                 	SUBI R26,LOW(@0)
                 	SBCI R27,HIGH(@0)
                 	SBCI R24,BYTE3(@0)
                 	SBCI R25,BYTE4(@0)
                 	.ENDM
                 
                 	.MACRO __ANDBMNN
                 	LDS  R30,@0+(@1)
                 	ANDI R30,LOW(@2)
                 	STS  @0+(@1),R30
                 	.ENDM
                 
                 	.MACRO __ANDWMNN
                 	LDS  R30,@0+(@1)
                 	ANDI R30,LOW(@2)
                 	STS  @0+(@1),R30
                 	LDS  R30,@0+(@1)+1
                 	ANDI R30,HIGH(@2)
                 	STS  @0+(@1)+1,R30
                 	.ENDM
                 
                 	.MACRO __ANDD1N
                 	ANDI R30,LOW(@0)
                 	ANDI R31,HIGH(@0)
                 	ANDI R22,BYTE3(@0)
                 	ANDI R23,BYTE4(@0)
                 	.ENDM
                 
                 	.MACRO __ANDD2N
                 	ANDI R26,LOW(@0)
                 	ANDI R27,HIGH(@0)
                 	ANDI R24,BYTE3(@0)
                 	ANDI R25,BYTE4(@0)
                 	.ENDM
                 
                 	.MACRO __ORBMNN
                 	LDS  R30,@0+(@1)
                 	ORI  R30,LOW(@2)
                 	STS  @0+(@1),R30
                 	.ENDM
                 
                 	.MACRO __ORWMNN
                 	LDS  R30,@0+(@1)
                 	ORI  R30,LOW(@2)
                 	STS  @0+(@1),R30
                 	LDS  R30,@0+(@1)+1
                 	ORI  R30,HIGH(@2)
                 	STS  @0+(@1)+1,R30
                 	.ENDM
                 
                 	.MACRO __ORD1N
                 	ORI  R30,LOW(@0)
                 	ORI  R31,HIGH(@0)
                 	ORI  R22,BYTE3(@0)
                 	ORI  R23,BYTE4(@0)
                 	.ENDM
                 
                 	.MACRO __ORD2N
                 	ORI  R26,LOW(@0)
                 	ORI  R27,HIGH(@0)
                 	ORI  R24,BYTE3(@0)
                 	ORI  R25,BYTE4(@0)
                 	.ENDM
                 
                 	.MACRO __DELAY_USB
                 	LDI  R24,LOW(@0)
                 __DELAY_USB_LOOP:
                 	DEC  R24
                 	BRNE __DELAY_USB_LOOP
                 	.ENDM
                 
                 	.MACRO __DELAY_USW
                 	LDI  R24,LOW(@0)
                 	LDI  R25,HIGH(@0)
                 __DELAY_USW_LOOP:
                 	SBIW R24,1
                 	BRNE __DELAY_USW_LOOP
                 	.ENDM
                 
                 	.MACRO __GETD1S
                 	LDD  R30,Y+@0
                 	LDD  R31,Y+@0+1
                 	LDD  R22,Y+@0+2
                 	LDD  R23,Y+@0+3
                 	.ENDM
                 
                 	.MACRO __GETD2S
                 	LDD  R26,Y+@0
                 	LDD  R27,Y+@0+1
                 	LDD  R24,Y+@0+2
                 	LDD  R25,Y+@0+3
                 	.ENDM
                 
                 	.MACRO __PUTD1S
                 	STD  Y+@0,R30
                 	STD  Y+@0+1,R31
                 	STD  Y+@0+2,R22
                 	STD  Y+@0+3,R23
                 	.ENDM
                 
                 	.MACRO __PUTD2S
                 	STD  Y+@0,R26
                 	STD  Y+@0+1,R27
                 	STD  Y+@0+2,R24
                 	STD  Y+@0+3,R25
                 	.ENDM
                 
                 	.MACRO __PUTDZ2
                 	STD  Z+@0,R26
                 	STD  Z+@0+1,R27
                 	STD  Z+@0+2,R24
                 	STD  Z+@0+3,R25
                 	.ENDM
                 
                 	.MACRO __CLRD1S
                 	STD  Y+@0,R30
                 	STD  Y+@0+1,R30
                 	STD  Y+@0+2,R30
                 	STD  Y+@0+3,R30
                 	.ENDM
                 
                 	.MACRO __POINTB1MN
                 	LDI  R30,LOW(@0+(@1))
                 	.ENDM
                 
                 	.MACRO __POINTW1MN
                 	LDI  R30,LOW(@0+(@1))
                 	LDI  R31,HIGH(@0+(@1))
                 	.ENDM
                 
                 	.MACRO __POINTD1M
                 	LDI  R30,LOW(@0)
                 	LDI  R31,HIGH(@0)
                 	LDI  R22,BYTE3(@0)
                 	LDI  R23,BYTE4(@0)
                 	.ENDM
                 
                 	.MACRO __POINTW1FN
                 	LDI  R30,LOW(2*@0+(@1))
                 	LDI  R31,HIGH(2*@0+(@1))
                 	.ENDM
                 
                 	.MACRO __POINTD1FN
                 	LDI  R30,LOW(2*@0+(@1))
                 	LDI  R31,HIGH(2*@0+(@1))
                 	LDI  R22,BYTE3(2*@0+(@1))
                 	LDI  R23,BYTE4(2*@0+(@1))
                 	.ENDM
                 
                 	.MACRO __POINTB2MN
                 	LDI  R26,LOW(@0+(@1))
                 	.ENDM
                 
                 	.MACRO __POINTW2MN
                 	LDI  R26,LOW(@0+(@1))
                 	LDI  R27,HIGH(@0+(@1))
                 	.ENDM
                 
                 	.MACRO __POINTW2FN
                 	LDI  R26,LOW(2*@0+(@1))
                 	LDI  R27,HIGH(2*@0+(@1))
                 	.ENDM
                 
                 	.MACRO __POINTD2FN
                 	LDI  R26,LOW(2*@0+(@1))
                 	LDI  R27,HIGH(2*@0+(@1))
                 	LDI  R24,BYTE3(2*@0+(@1))
                 	LDI  R25,BYTE4(2*@0+(@1))
                 	.ENDM
                 
                 	.MACRO __POINTBRM
                 	LDI  R@0,LOW(@1)
                 	.ENDM
                 
                 	.MACRO __POINTWRM
                 	LDI  R@0,LOW(@2)
                 	LDI  R@1,HIGH(@2)
                 	.ENDM
                 
                 	.MACRO __POINTBRMN
                 	LDI  R@0,LOW(@1+(@2))
                 	.ENDM
                 
                 	.MACRO __POINTWRMN
                 	LDI  R@0,LOW(@2+(@3))
                 	LDI  R@1,HIGH(@2+(@3))
                 	.ENDM
                 
                 	.MACRO __POINTWRFN
                 	LDI  R@0,LOW(@2*2+(@3))
                 	LDI  R@1,HIGH(@2*2+(@3))
                 	.ENDM
                 
                 	.MACRO __GETD1N
                 	LDI  R30,LOW(@0)
                 	LDI  R31,HIGH(@0)
                 	LDI  R22,BYTE3(@0)
                 	LDI  R23,BYTE4(@0)
                 	.ENDM
                 
                 	.MACRO __GETD2N
                 	LDI  R26,LOW(@0)
                 	LDI  R27,HIGH(@0)
                 	LDI  R24,BYTE3(@0)
                 	LDI  R25,BYTE4(@0)
                 	.ENDM
                 
                 	.MACRO __GETB1MN
                 	LDS  R30,@0+(@1)
                 	.ENDM
                 
                 	.MACRO __GETB1HMN
                 	LDS  R31,@0+(@1)
                 	.ENDM
                 
                 	.MACRO __GETW1MN
                 	LDS  R30,@0+(@1)
                 	LDS  R31,@0+(@1)+1
                 	.ENDM
                 
                 	.MACRO __GETD1MN
                 	LDS  R30,@0+(@1)
                 	LDS  R31,@0+(@1)+1
                 	LDS  R22,@0+(@1)+2
                 	LDS  R23,@0+(@1)+3
                 	.ENDM
                 
                 	.MACRO __GETBRMN
                 	LDS  R@0,@1+(@2)
                 	.ENDM
                 
                 	.MACRO __GETWRMN
                 	LDS  R@0,@2+(@3)
                 	LDS  R@1,@2+(@3)+1
                 	.ENDM
                 
                 	.MACRO __GETWRZ
                 	LDD  R@0,Z+@2
                 	LDD  R@1,Z+@2+1
                 	.ENDM
                 
                 	.MACRO __GETD2Z
                 	LDD  R26,Z+@0
                 	LDD  R27,Z+@0+1
                 	LDD  R24,Z+@0+2
                 	LDD  R25,Z+@0+3
                 	.ENDM
                 
                 	.MACRO __GETB2MN
                 	LDS  R26,@0+(@1)
                 	.ENDM
                 
                 	.MACRO __GETW2MN
                 	LDS  R26,@0+(@1)
                 	LDS  R27,@0+(@1)+1
                 	.ENDM
                 
                 	.MACRO __GETD2MN
                 	LDS  R26,@0+(@1)
                 	LDS  R27,@0+(@1)+1
                 	LDS  R24,@0+(@1)+2
                 	LDS  R25,@0+(@1)+3
                 	.ENDM
                 
                 	.MACRO __PUTB1MN
                 	STS  @0+(@1),R30
                 	.ENDM
                 
                 	.MACRO __PUTW1MN
                 	STS  @0+(@1),R30
                 	STS  @0+(@1)+1,R31
                 	.ENDM
                 
                 	.MACRO __PUTD1MN
                 	STS  @0+(@1),R30
                 	STS  @0+(@1)+1,R31
                 	STS  @0+(@1)+2,R22
                 	STS  @0+(@1)+3,R23
                 	.ENDM
                 
                 	.MACRO __PUTB1EN
                 	LDI  R26,LOW(@0+(@1))
                 	LDI  R27,HIGH(@0+(@1))
                 	CALL __EEPROMWRB
                 	.ENDM
                 
                 	.MACRO __PUTW1EN
                 	LDI  R26,LOW(@0+(@1))
                 	LDI  R27,HIGH(@0+(@1))
                 	CALL __EEPROMWRW
                 	.ENDM
                 
                 	.MACRO __PUTD1EN
                 	LDI  R26,LOW(@0+(@1))
                 	LDI  R27,HIGH(@0+(@1))
                 	CALL __EEPROMWRD
                 	.ENDM
                 
                 	.MACRO __PUTBR0MN
                 	STS  @0+(@1),R0
                 	.ENDM
                 
                 	.MACRO __PUTBMRN
                 	STS  @0+(@1),R@2
                 	.ENDM
                 
                 	.MACRO __PUTWMRN
                 	STS  @0+(@1),R@2
                 	STS  @0+(@1)+1,R@3
                 	.ENDM
                 
                 	.MACRO __PUTBZR
                 	STD  Z+@1,R@0
                 	.ENDM
                 
                 	.MACRO __PUTWZR
                 	STD  Z+@2,R@0
                 	STD  Z+@2+1,R@1
                 	.ENDM
                 
                 	.MACRO __GETW1R
                 	MOV  R30,R@0
                 	MOV  R31,R@1
                 	.ENDM
                 
                 	.MACRO __GETW2R
                 	MOV  R26,R@0
                 	MOV  R27,R@1
                 	.ENDM
                 
                 	.MACRO __GETWRN
                 	LDI  R@0,LOW(@2)
                 	LDI  R@1,HIGH(@2)
                 	.ENDM
                 
                 	.MACRO __PUTW1R
                 	MOV  R@0,R30
                 	MOV  R@1,R31
                 	.ENDM
                 
                 	.MACRO __PUTW2R
                 	MOV  R@0,R26
                 	MOV  R@1,R27
                 	.ENDM
                 
                 	.MACRO __ADDWRN
                 	SUBI R@0,LOW(-@2)
                 	SBCI R@1,HIGH(-@2)
                 	.ENDM
                 
                 	.MACRO __ADDWRR
                 	ADD  R@0,R@2
                 	ADC  R@1,R@3
                 	.ENDM
                 
                 	.MACRO __SUBWRN
                 	SUBI R@0,LOW(@2)
                 	SBCI R@1,HIGH(@2)
                 	.ENDM
                 
                 	.MACRO __SUBWRR
                 	SUB  R@0,R@2
                 	SBC  R@1,R@3
                 	.ENDM
                 
                 	.MACRO __ANDWRN
                 	ANDI R@0,LOW(@2)
                 	ANDI R@1,HIGH(@2)
                 	.ENDM
                 
                 	.MACRO __ANDWRR
                 	AND  R@0,R@2
                 	AND  R@1,R@3
                 	.ENDM
                 
                 	.MACRO __ORWRN
                 	ORI  R@0,LOW(@2)
                 	ORI  R@1,HIGH(@2)
                 	.ENDM
                 
                 	.MACRO __ORWRR
                 	OR   R@0,R@2
                 	OR   R@1,R@3
                 	.ENDM
                 
                 	.MACRO __EORWRR
                 	EOR  R@0,R@2
                 	EOR  R@1,R@3
                 	.ENDM
                 
                 	.MACRO __GETWRS
                 	LDD  R@0,Y+@2
                 	LDD  R@1,Y+@2+1
                 	.ENDM
                 
                 	.MACRO __PUTBSR
                 	STD  Y+@1,R@0
                 	.ENDM
                 
                 	.MACRO __PUTWSR
                 	STD  Y+@2,R@0
                 	STD  Y+@2+1,R@1
                 	.ENDM
                 
                 	.MACRO __MOVEWRR
                 	MOV  R@0,R@2
                 	MOV  R@1,R@3
                 	.ENDM
                 
                 	.MACRO __INWR
                 	IN   R@0,@2
                 	IN   R@1,@2+1
                 	.ENDM
                 
                 	.MACRO __OUTWR
                 	OUT  @2+1,R@1
                 	OUT  @2,R@0
                 	.ENDM
                 
                 	.MACRO __CALL1MN
                 	LDS  R30,@0+(@1)
                 	LDS  R31,@0+(@1)+1
                 	ICALL
                 	.ENDM
                 
                 	.MACRO __CALL1FN
                 	LDI  R30,LOW(2*@0+(@1))
                 	LDI  R31,HIGH(2*@0+(@1))
                 	CALL __GETW1PF
                 	ICALL
                 	.ENDM
                 
                 	.MACRO __CALL2EN
                 	PUSH R26
                 	PUSH R27
                 	LDI  R26,LOW(@0+(@1))
                 	LDI  R27,HIGH(@0+(@1))
                 	CALL __EEPROMRDW
                 	POP  R27
                 	POP  R26
                 	ICALL
                 	.ENDM
                 
                 	.MACRO __CALL2EX
                 	SUBI R26,LOW(-@0)
                 	SBCI R27,HIGH(-@0)
                 	CALL __EEPROMRDD
                 	ICALL
                 	.ENDM
                 
                 	.MACRO __GETW1STACK
                 	IN   R30,SPL
                 	IN   R31,SPH
                 	ADIW R30,@0+1
                 	LD   R0,Z+
                 	LD   R31,Z
                 	MOV  R30,R0
                 	.ENDM
                 
                 	.MACRO __GETD1STACK
                 	IN   R30,SPL
                 	IN   R31,SPH
                 	ADIW R30,@0+1
                 	LD   R0,Z+
                 	LD   R1,Z+
                 	LD   R22,Z
                 	MOVW R30,R0
                 	.ENDM
                 
                 	.MACRO __NBST
                 	BST  R@0,@1
                 	IN   R30,SREG
                 	LDI  R31,0x40
                 	EOR  R30,R31
                 	OUT  SREG,R30
                 	.ENDM
                 
                 
                 	.MACRO __PUTB1SN
                 	LDD  R26,Y+@0
                 	LDD  R27,Y+@0+1
                 	SUBI R26,LOW(-@1)
                 	SBCI R27,HIGH(-@1)
                 	ST   X,R30
                 	.ENDM
                 
                 	.MACRO __PUTW1SN
                 	LDD  R26,Y+@0
                 	LDD  R27,Y+@0+1
                 	SUBI R26,LOW(-@1)
                 	SBCI R27,HIGH(-@1)
                 	ST   X+,R30
                 	ST   X,R31
                 	.ENDM
                 
                 	.MACRO __PUTD1SN
                 	LDD  R26,Y+@0
                 	LDD  R27,Y+@0+1
                 	SUBI R26,LOW(-@1)
                 	SBCI R27,HIGH(-@1)
                 	CALL __PUTDP1
                 	.ENDM
                 
                 	.MACRO __PUTB1SNS
                 	LDD  R26,Y+@0
                 	LDD  R27,Y+@0+1
                 	ADIW R26,@1
                 	ST   X,R30
                 	.ENDM
                 
                 	.MACRO __PUTW1SNS
                 	LDD  R26,Y+@0
                 	LDD  R27,Y+@0+1
                 	ADIW R26,@1
                 	ST   X+,R30
                 	ST   X,R31
                 	.ENDM
                 
                 	.MACRO __PUTD1SNS
                 	LDD  R26,Y+@0
                 	LDD  R27,Y+@0+1
                 	ADIW R26,@1
                 	CALL __PUTDP1
                 	.ENDM
                 
                 	.MACRO __PUTB1PMN
                 	LDS  R26,@0
                 	LDS  R27,@0+1
                 	SUBI R26,LOW(-@1)
                 	SBCI R27,HIGH(-@1)
                 	ST   X,R30
                 	.ENDM
                 
                 	.MACRO __PUTW1PMN
                 	LDS  R26,@0
                 	LDS  R27,@0+1
                 	SUBI R26,LOW(-@1)
                 	SBCI R27,HIGH(-@1)
                 	ST   X+,R30
                 	ST   X,R31
                 	.ENDM
                 
                 	.MACRO __PUTD1PMN
                 	LDS  R26,@0
                 	LDS  R27,@0+1
                 	SUBI R26,LOW(-@1)
                 	SBCI R27,HIGH(-@1)
                 	CALL __PUTDP1
                 	.ENDM
                 
                 	.MACRO __PUTB1PMNS
                 	LDS  R26,@0
                 	LDS  R27,@0+1
                 	ADIW R26,@1
                 	ST   X,R30
                 	.ENDM
                 
                 	.MACRO __PUTW1PMNS
                 	LDS  R26,@0
                 	LDS  R27,@0+1
                 	ADIW R26,@1
                 	ST   X+,R30
                 	ST   X,R31
                 	.ENDM
                 
                 	.MACRO __PUTD1PMNS
                 	LDS  R26,@0
                 	LDS  R27,@0+1
                 	ADIW R26,@1
                 	CALL __PUTDP1
                 	.ENDM
                 
                 	.MACRO __PUTB1RN
                 	MOVW R26,R@0
                 	SUBI R26,LOW(-@1)
                 	SBCI R27,HIGH(-@1)
                 	ST   X,R30
                 	.ENDM
                 
                 	.MACRO __PUTW1RN
                 	MOVW R26,R@0
                 	SUBI R26,LOW(-@1)
                 	SBCI R27,HIGH(-@1)
                 	ST   X+,R30
                 	ST   X,R31
                 	.ENDM
                 
                 	.MACRO __PUTD1RN
                 	MOVW R26,R@0
                 	SUBI R26,LOW(-@1)
                 	SBCI R27,HIGH(-@1)
                 	CALL __PUTDP1
                 	.ENDM
                 
                 	.MACRO __PUTB1RNS
                 	MOVW R26,R@0
                 	ADIW R26,@1
                 	ST   X,R30
                 	.ENDM
                 
                 	.MACRO __PUTW1RNS
                 	MOVW R26,R@0
                 	ADIW R26,@1
                 	ST   X+,R30
                 	ST   X,R31
                 	.ENDM
                 
                 	.MACRO __PUTD1RNS
                 	MOVW R26,R@0
                 	ADIW R26,@1
                 	CALL __PUTDP1
                 	.ENDM
                 
                 	.MACRO __PUTB1RON
                 	MOV  R26,R@0
                 	MOV  R27,R@1
                 	SUBI R26,LOW(-@2)
                 	SBCI R27,HIGH(-@2)
                 	ST   X,R30
                 	.ENDM
                 
                 	.MACRO __PUTW1RON
                 	MOV  R26,R@0
                 	MOV  R27,R@1
                 	SUBI R26,LOW(-@2)
                 	SBCI R27,HIGH(-@2)
                 	ST   X+,R30
                 	ST   X,R31
                 	.ENDM
                 
                 	.MACRO __PUTD1RON
                 	MOV  R26,R@0
                 	MOV  R27,R@1
                 	SUBI R26,LOW(-@2)
                 	SBCI R27,HIGH(-@2)
                 	CALL __PUTDP1
                 	.ENDM
                 
                 	.MACRO __PUTB1RONS
                 	MOV  R26,R@0
                 	MOV  R27,R@1
                 	ADIW R26,@2
                 	ST   X,R30
                 	.ENDM
                 
                 	.MACRO __PUTW1RONS
                 	MOV  R26,R@0
                 	MOV  R27,R@1
                 	ADIW R26,@2
                 	ST   X+,R30
                 	ST   X,R31
                 	.ENDM
                 
                 	.MACRO __PUTD1RONS
                 	MOV  R26,R@0
                 	MOV  R27,R@1
                 	ADIW R26,@2
                 	CALL __PUTDP1
                 	.ENDM
                 
                 
                 	.MACRO __GETB1SX
                 	MOVW R30,R28
                 	SUBI R30,LOW(-@0)
                 	SBCI R31,HIGH(-@0)
                 	LD   R30,Z
                 	.ENDM
                 
                 	.MACRO __GETB1HSX
                 	MOVW R30,R28
                 	SUBI R30,LOW(-@0)
                 	SBCI R31,HIGH(-@0)
                 	LD   R31,Z
                 	.ENDM
                 
                 	.MACRO __GETW1SX
                 	MOVW R30,R28
                 	SUBI R30,LOW(-@0)
                 	SBCI R31,HIGH(-@0)
                 	LD   R0,Z+
                 	LD   R31,Z
                 	MOV  R30,R0
                 	.ENDM
                 
                 	.MACRO __GETD1SX
                 	MOVW R30,R28
                 	SUBI R30,LOW(-@0)
                 	SBCI R31,HIGH(-@0)
                 	LD   R0,Z+
                 	LD   R1,Z+
                 	LD   R22,Z+
                 	LD   R23,Z
                 	MOVW R30,R0
                 	.ENDM
                 
                 	.MACRO __GETB2SX
                 	MOVW R26,R28
                 	SUBI R26,LOW(-@0)
                 	SBCI R27,HIGH(-@0)
                 	LD   R26,X
                 	.ENDM
                 
                 	.MACRO __GETW2SX
                 	MOVW R26,R28
                 	SUBI R26,LOW(-@0)
                 	SBCI R27,HIGH(-@0)
                 	LD   R0,X+
                 	LD   R27,X
                 	MOV  R26,R0
                 	.ENDM
                 
                 	.MACRO __GETD2SX
                 	MOVW R26,R28
                 	SUBI R26,LOW(-@0)
                 	SBCI R27,HIGH(-@0)
                 	LD   R0,X+
                 	LD   R1,X+
                 	LD   R24,X+
                 	LD   R25,X
                 	MOVW R26,R0
                 	.ENDM
                 
                 	.MACRO __GETBRSX
                 	MOVW R30,R28
                 	SUBI R30,LOW(-@1)
                 	SBCI R31,HIGH(-@1)
                 	LD   R@0,Z
                 	.ENDM
                 
                 	.MACRO __GETWRSX
                 	MOVW R30,R28
                 	SUBI R30,LOW(-@2)
                 	SBCI R31,HIGH(-@2)
                 	LD   R@0,Z+
                 	LD   R@1,Z
                 	.ENDM
                 
                 	.MACRO __GETBRSX2
                 	MOVW R26,R28
                 	SUBI R26,LOW(-@1)
                 	SBCI R27,HIGH(-@1)
                 	LD   R@0,X
                 	.ENDM
                 
                 	.MACRO __GETWRSX2
                 	MOVW R26,R28
                 	SUBI R26,LOW(-@2)
                 	SBCI R27,HIGH(-@2)
                 	LD   R@0,X+
                 	LD   R@1,X
                 	.ENDM
                 
                 	.MACRO __LSLW8SX
                 	MOVW R30,R28
                 	SUBI R30,LOW(-@0)
                 	SBCI R31,HIGH(-@0)
                 	LD   R31,Z
                 	CLR  R30
                 	.ENDM
                 
                 	.MACRO __PUTB1SX
                 	MOVW R26,R28
                 	SUBI R26,LOW(-@0)
                 	SBCI R27,HIGH(-@0)
                 	ST   X,R30
                 	.ENDM
                 
                 	.MACRO __PUTW1SX
                 	MOVW R26,R28
                 	SUBI R26,LOW(-@0)
                 	SBCI R27,HIGH(-@0)
                 	ST   X+,R30
                 	ST   X,R31
                 	.ENDM
                 
                 	.MACRO __PUTD1SX
                 	MOVW R26,R28
                 	SUBI R26,LOW(-@0)
                 	SBCI R27,HIGH(-@0)
                 	ST   X+,R30
                 	ST   X+,R31
                 	ST   X+,R22
                 	ST   X,R23
                 	.ENDM
                 
                 	.MACRO __CLRW1SX
                 	MOVW R26,R28
                 	SUBI R26,LOW(-@0)
                 	SBCI R27,HIGH(-@0)
                 	ST   X+,R30
                 	ST   X,R30
                 	.ENDM
                 
                 	.MACRO __CLRD1SX
                 	MOVW R26,R28
                 	SUBI R26,LOW(-@0)
                 	SBCI R27,HIGH(-@0)
                 	ST   X+,R30
                 	ST   X+,R30
                 	ST   X+,R30
                 	ST   X,R30
                 	.ENDM
                 
                 	.MACRO __PUTB2SX
                 	MOVW R30,R28
                 	SUBI R30,LOW(-@0)
                 	SBCI R31,HIGH(-@0)
                 	ST   Z,R26
                 	.ENDM
                 
                 	.MACRO __PUTW2SX
                 	MOVW R30,R28
                 	SUBI R30,LOW(-@0)
                 	SBCI R31,HIGH(-@0)
                 	ST   Z+,R26
                 	ST   Z,R27
                 	.ENDM
                 
                 	.MACRO __PUTD2SX
                 	MOVW R30,R28
                 	SUBI R30,LOW(-@0)
                 	SBCI R31,HIGH(-@0)
                 	ST   Z+,R26
                 	ST   Z+,R27
                 	ST   Z+,R24
                 	ST   Z,R25
                 	.ENDM
                 
                 	.MACRO __PUTBSRX
                 	MOVW R30,R28
                 	SUBI R30,LOW(-@1)
                 	SBCI R31,HIGH(-@1)
                 	ST   Z,R@0
                 	.ENDM
                 
                 	.MACRO __PUTWSRX
                 	MOVW R30,R28
                 	SUBI R30,LOW(-@2)
                 	SBCI R31,HIGH(-@2)
                 	ST   Z+,R@0
                 	ST   Z,R@1
                 	.ENDM
                 
                 	.MACRO __PUTB1SNX
                 	MOVW R26,R28
                 	SUBI R26,LOW(-@0)
                 	SBCI R27,HIGH(-@0)
                 	LD   R0,X+
                 	LD   R27,X
                 	MOV  R26,R0
                 	SUBI R26,LOW(-@1)
                 	SBCI R27,HIGH(-@1)
                 	ST   X,R30
                 	.ENDM
                 
                 	.MACRO __PUTW1SNX
                 	MOVW R26,R28
                 	SUBI R26,LOW(-@0)
                 	SBCI R27,HIGH(-@0)
                 	LD   R0,X+
                 	LD   R27,X
                 	MOV  R26,R0
                 	SUBI R26,LOW(-@1)
                 	SBCI R27,HIGH(-@1)
                 	ST   X+,R30
                 	ST   X,R31
                 	.ENDM
                 
                 	.MACRO __PUTD1SNX
                 	MOVW R26,R28
                 	SUBI R26,LOW(-@0)
                 	SBCI R27,HIGH(-@0)
                 	LD   R0,X+
                 	LD   R27,X
                 	MOV  R26,R0
                 	SUBI R26,LOW(-@1)
                 	SBCI R27,HIGH(-@1)
                 	ST   X+,R30
                 	ST   X+,R31
                 	ST   X+,R22
                 	ST   X,R23
                 	.ENDM
                 
                 	.MACRO __MULBRR
                 	MULS R@0,R@1
                 	MOVW R30,R0
                 	.ENDM
                 
                 	.MACRO __MULBRRU
                 	MUL  R@0,R@1
                 	MOVW R30,R0
                 	.ENDM
                 
                 	.MACRO __MULBRR0
                 	MULS R@0,R@1
                 	.ENDM
                 
                 	.MACRO __MULBRRU0
                 	MUL  R@0,R@1
                 	.ENDM
                 
                 	.MACRO __MULBNWRU
                 	LDI  R26,@2
                 	MUL  R26,R@0
                 	MOVW R30,R0
                 	MUL  R26,R@1
                 	ADD  R31,R0
                 	.ENDM
                 
                 ;NAME DEFINITIONS FOR GLOBAL VARIABLES ALLOCATED TO REGISTERS
                 	.DEF _servo_breaks=R4
                 	.DEF _servo_breaks_msb=R5
                 	.DEF _servoM40=R6
                 	.DEF _servoM40_msb=R7
                 	.DEF _servoM30=R8
                 	.DEF _servoM30_msb=R9
                 	.DEF _servoM20=R10
                 	.DEF _servoM20_msb=R11
                 	.DEF _servoM10=R12
                 	.DEF _servoM10_msb=R13
                 
                 	.CSEG
                 	.ORG 0x00
                 
                 ;START OF CODE MARKER
                 __START_OF_CODE:
                 
                 ;INTERRUPT VECTORS
000000 940c 0246 	JMP  __RESET
000002 940c 0000 	JMP  0x00
000004 940c 0000 	JMP  0x00
000006 940c 0000 	JMP  0x00
000008 940c 0000 	JMP  0x00
00000a 940c 02a4 	JMP  _ext_int4_isr
00000c 940c 0000 	JMP  0x00
00000e 940c 02c3 	JMP  _ext_int6_isr
000010 940c 0000 	JMP  0x00
000012 940c 0000 	JMP  0x00
000014 940c 052d 	JMP  _timer2_ovf_isr
000016 940c 0000 	JMP  0x00
000018 940c 0000 	JMP  0x00
00001a 940c 0000 	JMP  0x00
00001c 940c 034d 	JMP  _timer1_ovf_isr
00001e 940c 0000 	JMP  0x00
000020 940c 0403 	JMP  _timer0_ovf_isr
000022 940c 0000 	JMP  0x00
000024 940c 0000 	JMP  0x00
000026 940c 0000 	JMP  0x00
000028 940c 0000 	JMP  0x00
00002a 940c 0276 	JMP  _adc_isr
00002c 940c 0000 	JMP  0x00
00002e 940c 0000 	JMP  0x00
000030 940c 0000 	JMP  0x00
000032 940c 06f3 	JMP  _timer3_capt_isr
000034 940c 0733 	JMP  _timer3_compa_isr
000036 940c 0000 	JMP  0x00
000038 940c 0000 	JMP  0x00
00003a 940c 0000 	JMP  0x00
00003c 940c 0000 	JMP  0x00
00003e 940c 0000 	JMP  0x00
000040 940c 0000 	JMP  0x00
000042 940c 1b45 	JMP  _twi_int_handler
000044 940c 0000 	JMP  0x00
                 
                 _tbl10_G102:
000046 2710
000047 03e8
000048 0064
000049 000a      	.DB  0x10,0x27,0xE8,0x3,0x64,0x0,0xA,0x0
00004a 0001      	.DB  0x1,0x0
                 _tbl16_G102:
00004b 1000
00004c 0100
00004d 0010
00004e 0001      	.DB  0x0,0x10,0x0,0x1,0x10,0x0,0x1,0x0
                 
                 ;REGISTER BIT VARIABLES INITIALIZATION
                 __REG_BIT_VARS:
00004f 0001      	.DW  0x0001
                 
                 ;GLOBAL REGISTER VARIABLES INITIALIZATION
                 __REG_VARS:
000050 0001
000051 0032      	.DB  0x1,0x0,0x32,0x0
000052 0050
000053 006e      	.DB  0x50,0x0,0x6E,0x0
000054 008c      	.DB  0x8C,0x0
                 
                 _0x3:
H:\Roboterprojekt-avr\Debug\List\project.asm(1161): warning: .cseg .db misalignment - padding zero byte
000055 00aa      	.DB  0xAA
                 _0x4:
H:\Roboterprojekt-avr\Debug\List\project.asm(1163): warning: .cseg .db misalignment - padding zero byte
000056 00b3      	.DB  0xB3
                 _0x5:
H:\Roboterprojekt-avr\Debug\List\project.asm(1165): warning: .cseg .db misalignment - padding zero byte
000057 00bc      	.DB  0xBC
                 _0x6:
H:\Roboterprojekt-avr\Debug\List\project.asm(1167): warning: .cseg .db misalignment - padding zero byte
000058 00c5      	.DB  0xC5
                 _0x7:
H:\Roboterprojekt-avr\Debug\List\project.asm(1169): warning: .cseg .db misalignment - padding zero byte
000059 00ce      	.DB  0xCE
                 _0x8:
H:\Roboterprojekt-avr\Debug\List\project.asm(1171): warning: .cseg .db misalignment - padding zero byte
00005a 001b      	.DB  0x1B
                 _0x9:
H:\Roboterprojekt-avr\Debug\List\project.asm(1173): warning: .cseg .db misalignment - padding zero byte
00005b 000a      	.DB  0xA
                 _0x0:
00005c 4144
00005d 4154
00005e 5000
00005f 534f      	.DB  0x44,0x41,0x54,0x41,0x0,0x50,0x4F,0x53
000060 5449
000061 4f49
000062 2d4e
000063 4553      	.DB  0x49,0x54,0x49,0x4F,0x4E,0x2D,0x53,0x45
000064 5652
000065 004f
000066 454c
000067 5446      	.DB  0x52,0x56,0x4F,0x0,0x4C,0x45,0x46,0x54
000068 203a
000069 0031
00006a 454c
00006b 5446      	.DB  0x3A,0x20,0x31,0x0,0x4C,0x45,0x46,0x54
00006c 203a
00006d 0030
00006e 5220
00006f 4749      	.DB  0x3A,0x20,0x30,0x0,0x20,0x52,0x49,0x47
000070 5448
000071 203a
000072 0031
000073 5220      	.DB  0x48,0x54,0x3A,0x20,0x31,0x0,0x20,0x52
000074 4749
000075 5448
000076 203a
000077 0030      	.DB  0x49,0x47,0x48,0x54,0x3A,0x20,0x30,0x0
000078 4c4d
000079 4645
00007a 3a54
00007b 3120      	.DB  0x4D,0x4C,0x45,0x46,0x54,0x3A,0x20,0x31
00007c 4d00
00007d 454c
00007e 5446
00007f 203a      	.DB  0x0,0x4D,0x4C,0x45,0x46,0x54,0x3A,0x20
000080 0030
000081 524d
000082 4749
000083 5448      	.DB  0x30,0x0,0x4D,0x52,0x49,0x47,0x48,0x54
000084 313a
000085 4d00
000086 4952
000087 4847      	.DB  0x3A,0x31,0x0,0x4D,0x52,0x49,0x47,0x48
000088 3a54
000089 0030
00008a 2020
00008b 2020      	.DB  0x54,0x3A,0x30,0x0,0x20,0x20,0x20,0x20
00008c 4520
00008d 434e
00008e 444f
00008f 5245      	.DB  0x20,0x45,0x4E,0x43,0x4F,0x44,0x45,0x52
000090 2020
000091 3e3e
000092 3c00
000093 203c      	.DB  0x20,0x20,0x3E,0x3E,0x0,0x3C,0x3C,0x20
000094 2020
000095 4e45
000096 4f43
000097 4544      	.DB  0x20,0x20,0x45,0x4E,0x43,0x4F,0x44,0x45
000098 2052
000099 2020
00009a 0020
00009b 3a4c      	.DB  0x52,0x20,0x20,0x20,0x20,0x0,0x4C,0x3A
00009c 2000
00009d 3a52
00009e 2000
00009f 2020      	.DB  0x0,0x20,0x52,0x3A,0x0,0x20,0x20,0x20
0000a0 2020
0000a1 4552
0000a2 4843
0000a3 5354      	.DB  0x20,0x20,0x52,0x45,0x43,0x48,0x54,0x53
0000a4 2020
0000a5 2020
0000a6 2000
0000a7 2020      	.DB  0x20,0x20,0x20,0x20,0x0,0x20,0x20,0x20
0000a8 2020
0000a9 494c
0000aa 4b4e
0000ab 2053      	.DB  0x20,0x20,0x4C,0x49,0x4E,0x4B,0x53,0x20
0000ac 2020
0000ad 0020
0000ae 4c46
0000af 4645      	.DB  0x20,0x20,0x20,0x0,0x46,0x4C,0x45,0x46
0000b0 3a54
0000b1 3120
0000b2 4600
0000b3 454c      	.DB  0x54,0x3A,0x20,0x31,0x0,0x46,0x4C,0x45
0000b4 5446
0000b5 203a
0000b6 0030
0000b7 5246      	.DB  0x46,0x54,0x3A,0x20,0x30,0x0,0x46,0x52
0000b8 4749
0000b9 5448
0000ba 313a
0000bb 4600      	.DB  0x49,0x47,0x48,0x54,0x3A,0x31,0x0,0x46
0000bc 4952
0000bd 4847
0000be 3a54
0000bf 0030      	.DB  0x52,0x49,0x47,0x48,0x54,0x3A,0x30,0x0
0000c0 454c
0000c1 5446
0000c2 003a
0000c3 4952      	.DB  0x4C,0x45,0x46,0x54,0x3A,0x0,0x52,0x49
0000c4 4847
0000c5 3a54
0000c6 4f00
0000c7 6a62      	.DB  0x47,0x48,0x54,0x3A,0x0,0x4F,0x62,0x6A
0000c8 6b65
0000c9 2074
0000ca 6567
0000cb 7566      	.DB  0x65,0x6B,0x74,0x20,0x67,0x65,0x66,0x75
0000cc 646e
0000cd 6e65
0000ce 4b00
0000cf 6965      	.DB  0x6E,0x64,0x65,0x6E,0x0,0x4B,0x65,0x69
0000d0 206e
0000d1 624f
0000d2 656a
0000d3 746b      	.DB  0x6E,0x20,0x4F,0x62,0x6A,0x65,0x6B,0x74
0000d4 6100
0000d5 6c6c
0000d6 6e00
0000d7 746f      	.DB  0x0,0x61,0x6C,0x6C,0x0,0x6E,0x6F,0x74
0000d8 6968
0000d9 676e
0000da 3600
0000db 0037      	.DB  0x68,0x69,0x6E,0x67,0x0,0x36,0x37,0x0
0000dc 3836
0000dd 3600
0000de 0039
0000df 3037      	.DB  0x36,0x38,0x0,0x36,0x39,0x0,0x37,0x30
0000e0 3700
0000e1 0031
0000e2 3237
0000e3 3700      	.DB  0x0,0x37,0x31,0x0,0x37,0x32,0x0,0x37
0000e4 0033
0000e5 3537
0000e6 3800
0000e7 0030      	.DB  0x33,0x0,0x37,0x35,0x0,0x38,0x30,0x0
0000e8 3138
0000e9 4c00
0000ea 7320
0000eb 6174      	.DB  0x38,0x31,0x0,0x4C,0x20,0x73,0x74,0x61
0000ec 6574
0000ed 2000
0000ee 0032
0000ef 3320      	.DB  0x74,0x65,0x0,0x20,0x32,0x0,0x20,0x33
0000f0 2000
0000f1 0034
0000f2 3520
0000f3 2000      	.DB  0x0,0x20,0x34,0x0,0x20,0x35,0x0,0x20
0000f4 0036
0000f5 3720
0000f6 6200
0000f7 6775      	.DB  0x36,0x0,0x20,0x37,0x0,0x62,0x75,0x67
0000f8 6d00
0000f9 746f
0000fa 0068
0000fb 4f46      	.DB  0x0,0x6D,0x6F,0x74,0x68,0x0,0x46,0x4F
0000fc 4c4c
0000fd 574f
0000fe 5300
0000ff 414d      	.DB  0x4C,0x4C,0x4F,0x57,0x0,0x53,0x4D,0x41
000100 5452
000101 4850
000102 4e4f
000103 2045      	.DB  0x52,0x54,0x50,0x48,0x4F,0x4E,0x45,0x20
000104 4f20
000105 4c4e
000106 0059
000107 4b4f      	.DB  0x20,0x4F,0x4E,0x4C,0x59,0x0,0x4F,0x4B
000108 4200
000109 6675
00010a 6566
00010b 2072      	.DB  0x0,0x42,0x75,0x66,0x66,0x65,0x72,0x20
00010c 766f
00010d 7265
00010e 6c66
00010f 776f      	.DB  0x6F,0x76,0x65,0x72,0x66,0x6C,0x6F,0x77
000110 4100
000111 6272
000112 7469
000113 6172      	.DB  0x0,0x41,0x72,0x62,0x69,0x74,0x72,0x61
000114 6974
000115 6e6f
000116 6c20
000117 736f      	.DB  0x74,0x69,0x6F,0x6E,0x20,0x6C,0x6F,0x73
000118 0074
000119 7542
00011a 2073
00011b 7265      	.DB  0x74,0x0,0x42,0x75,0x73,0x20,0x65,0x72
00011c 6f72
00011d 0072
00011e 414e
00011f 4b43      	.DB  0x72,0x6F,0x72,0x0,0x4E,0x41,0x43,0x4B
000120 7220
000121 6365
000122 6965
000123 6576      	.DB  0x20,0x72,0x65,0x63,0x65,0x69,0x76,0x65
000124 0064
000125 7542
000126 2073
000127 6974      	.DB  0x64,0x0,0x42,0x75,0x73,0x20,0x74,0x69
000128 656d
000129 756f
00012a 0074
00012b 6146      	.DB  0x6D,0x65,0x6F,0x75,0x74,0x0,0x46,0x61
00012c 6c69
00012d 5500
00012e 6b6e
00012f 6f6e      	.DB  0x69,0x6C,0x0,0x55,0x6E,0x6B,0x6E,0x6F
000130 6e77
000131 6520
000132 7272
000133 726f      	.DB  0x77,0x6E,0x20,0x65,0x72,0x72,0x6F,0x72
H:\Roboterprojekt-avr\Debug\List\project.asm(1229): warning: .cseg .db misalignment - padding zero byte
000134 0000      	.DB  0x0
                 _0x2000060:
H:\Roboterprojekt-avr\Debug\List\project.asm(1231): warning: .cseg .db misalignment - padding zero byte
000135 0001      	.DB  0x1
                 _0x2000000:
000136 4e2d
000137 4e41
000138 4900
000139 464e      	.DB  0x2D,0x4E,0x41,0x4E,0x0,0x49,0x4E,0x46
H:\Roboterprojekt-avr\Debug\List\project.asm(1234): warning: .cseg .db misalignment - padding zero byte
00013a 0000      	.DB  0x0
                 _0x2060003:
H:\Roboterprojekt-avr\Debug\List\project.asm(1236): warning: .cseg .db misalignment - padding zero byte
00013b 0007      	.DB  0x7
                 _0x2080003:
00013c c080      	.DB  0x80,0xC0
                 
                 __GLOBAL_INI_TBL:
00013d 0001      	.DW  0x01
00013e 0002      	.DW  0x02
00013f 009e      	.DW  __REG_BIT_VARS*2
                 
000140 000a      	.DW  0x0A
000141 0004      	.DW  0x04
000142 00a0      	.DW  __REG_VARS*2
                 
000143 0001      	.DW  0x01
000144 06f6      	.DW  _servo_value_cur
000145 00aa      	.DW  _0x3*2
                 
000146 0001      	.DW  0x01
000147 0715      	.DW  _state
000148 00b4      	.DW  _0x8*2
                 
000149 0001      	.DW  0x01
00014a 0750      	.DW  _i
00014b 00b6      	.DW  _0x9*2
                 
00014c 0005      	.DW  0x05
00014d 0500      	.DW  _0x3D
00014e 00b8      	.DW  _0x0*2
                 
00014f 000f      	.DW  0x0F
000150 0505      	.DW  _0x57
000151 00bd      	.DW  _0x0*2+5
                 
000152 0008      	.DW  0x08
000153 0514      	.DW  _0x84
000154 00cc      	.DW  _0x0*2+20
                 
000155 0008      	.DW  0x08
000156 051c      	.DW  _0x84+8
000157 00d4      	.DW  _0x0*2+28
                 
000158 000a      	.DW  0x0A
000159 0524      	.DW  _0x84+16
00015a 00dc      	.DW  _0x0*2+36
                 
00015b 000a      	.DW  0x0A
00015c 052e      	.DW  _0x84+26
00015d 00e6      	.DW  _0x0*2+46
                 
00015e 0009      	.DW  0x09
00015f 0538      	.DW  _0x84+36
000160 00f0      	.DW  _0x0*2+56
                 
000161 0009      	.DW  0x09
000162 0541      	.DW  _0x84+45
000163 00f9      	.DW  _0x0*2+65
                 
000164 0009      	.DW  0x09
000165 054a      	.DW  _0x84+54
000166 0102      	.DW  _0x0*2+74
                 
000167 0009      	.DW  0x09
000168 0553      	.DW  _0x84+63
000169 010b      	.DW  _0x0*2+83
                 
00016a 0011      	.DW  0x11
00016b 055c      	.DW  _0x8D
00016c 0114      	.DW  _0x0*2+92
                 
00016d 0011      	.DW  0x11
00016e 056d      	.DW  _0x8D+17
00016f 0125      	.DW  _0x0*2+109
                 
000170 0003      	.DW  0x03
000171 057e      	.DW  _0x8D+34
000172 0136      	.DW  _0x0*2+126
                 
000173 0004      	.DW  0x04
000174 0581      	.DW  _0x8D+37
000175 0139      	.DW  _0x0*2+129
                 
000176 0010      	.DW  0x10
000177 0585      	.DW  _0x99
000178 013d      	.DW  _0x0*2+133
                 
000179 000f      	.DW  0x0F
00017a 0595      	.DW  _0x99+16
00017b 014d      	.DW  _0x0*2+149
                 
00017c 0003      	.DW  0x03
00017d 05a4      	.DW  _0x99+31
00017e 0136      	.DW  _0x0*2+126
                 
00017f 0004      	.DW  0x04
000180 05a7      	.DW  _0x99+34
000181 0139      	.DW  _0x0*2+129
                 
000182 0008      	.DW  0x08
000183 05ab      	.DW  _0xA5
000184 00cc      	.DW  _0x0*2+20
                 
000185 0008      	.DW  0x08
000186 05b3      	.DW  _0xA5+8
000187 00d4      	.DW  _0x0*2+28
                 
000188 000a      	.DW  0x0A
000189 05bb      	.DW  _0xA5+16
00018a 00dc      	.DW  _0x0*2+36
                 
00018b 000a      	.DW  0x0A
00018c 05c5      	.DW  _0xA5+26
00018d 00e6      	.DW  _0x0*2+46
                 
00018e 0009      	.DW  0x09
00018f 05cf      	.DW  _0xA5+36
000190 015c      	.DW  _0x0*2+164
                 
000191 0009      	.DW  0x09
000192 05d8      	.DW  _0xA5+45
000193 0165      	.DW  _0x0*2+173
                 
000194 0009      	.DW  0x09
000195 05e1      	.DW  _0xA5+54
000196 016e      	.DW  _0x0*2+182
                 
000197 0009      	.DW  0x09
000198 05ea      	.DW  _0xA5+63
000199 0177      	.DW  _0x0*2+191
                 
00019a 0006      	.DW  0x06
00019b 05f3      	.DW  _0xAD
00019c 0180      	.DW  _0x0*2+200
                 
00019d 0007      	.DW  0x07
00019e 05f9      	.DW  _0xAD+6
00019f 0186      	.DW  _0x0*2+206
                 
0001a0 0003      	.DW  0x03
0001a1 0600      	.DW  _0xCD
0001a2 0136      	.DW  _0x0*2+126
                 
0001a3 0004      	.DW  0x04
0001a4 0603      	.DW  _0xCD+3
0001a5 0139      	.DW  _0x0*2+129
                 
0001a6 0003      	.DW  0x03
0001a7 0607      	.DW  _0xD5
0001a8 0136      	.DW  _0x0*2+126
                 
0001a9 0004      	.DW  0x04
0001aa 060a      	.DW  _0xD5+3
0001ab 0139      	.DW  _0x0*2+129
                 
0001ac 0004      	.DW  0x04
0001ad 060e      	.DW  _0x299
0001ae 01a9      	.DW  _0x0*2+241
                 
0001af 0008      	.DW  0x08
0001b0 0612      	.DW  _0x299+4
0001b1 01ad      	.DW  _0x0*2+245
                 
0001b2 0003      	.DW  0x03
0001b3 061a      	.DW  _0x299+12
0001b4 01b5      	.DW  _0x0*2+253
                 
0001b5 0003      	.DW  0x03
0001b6 061d      	.DW  _0x299+15
0001b7 01b8      	.DW  _0x0*2+256
                 
0001b8 0003      	.DW  0x03
0001b9 0620      	.DW  _0x299+18
0001ba 01bb      	.DW  _0x0*2+259
                 
0001bb 0003      	.DW  0x03
0001bc 0623      	.DW  _0x299+21
0001bd 01be      	.DW  _0x0*2+262
                 
0001be 0003      	.DW  0x03
0001bf 0626      	.DW  _0x299+24
0001c0 01c1      	.DW  _0x0*2+265
                 
0001c1 0003      	.DW  0x03
0001c2 0629      	.DW  _0x299+27
0001c3 01c4      	.DW  _0x0*2+268
                 
0001c4 0003      	.DW  0x03
0001c5 062c      	.DW  _0x299+30
0001c6 01c7      	.DW  _0x0*2+271
                 
0001c7 0003      	.DW  0x03
0001c8 062f      	.DW  _0x299+33
0001c9 01ca      	.DW  _0x0*2+274
                 
0001ca 0003      	.DW  0x03
0001cb 0632      	.DW  _0x299+36
0001cc 01cd      	.DW  _0x0*2+277
                 
0001cd 0003      	.DW  0x03
0001ce 0635      	.DW  _0x299+39
0001cf 01d0      	.DW  _0x0*2+280
                 
0001d0 0003      	.DW  0x03
0001d1 0638      	.DW  _0x2ED
0001d2 0136      	.DW  _0x0*2+126
                 
0001d3 0004      	.DW  0x04
0001d4 063b      	.DW  _0x2ED+3
0001d5 0139      	.DW  _0x0*2+129
                 
0001d6 0008      	.DW  0x08
0001d7 063f      	.DW  _0x2F0
0001d8 01d3      	.DW  _0x0*2+283
                 
0001d9 0003      	.DW  0x03
0001da 0647      	.DW  _0x2F0+8
0001db 00d1      	.DW  _0x0*2+25
                 
0001dc 0003      	.DW  0x03
0001dd 064a      	.DW  _0x2F0+11
0001de 0136      	.DW  _0x0*2+126
                 
0001df 0004      	.DW  0x04
0001e0 064d      	.DW  _0x2F0+14
0001e1 0139      	.DW  _0x0*2+129
                 
0001e2 0008      	.DW  0x08
0001e3 0651      	.DW  _0x2F0+18
0001e4 01d3      	.DW  _0x0*2+283
                 
0001e5 0003      	.DW  0x03
0001e6 0659      	.DW  _0x2F0+26
0001e7 01db      	.DW  _0x0*2+291
                 
0001e8 0003      	.DW  0x03
0001e9 065c      	.DW  _0x2F0+29
0001ea 0136      	.DW  _0x0*2+126
                 
0001eb 0004      	.DW  0x04
0001ec 065f      	.DW  _0x2F0+32
0001ed 0139      	.DW  _0x0*2+129
                 
0001ee 0008      	.DW  0x08
0001ef 0663      	.DW  _0x2F0+36
0001f0 01d3      	.DW  _0x0*2+283
                 
0001f1 0003      	.DW  0x03
0001f2 066b      	.DW  _0x2F0+44
0001f3 01de      	.DW  _0x0*2+294
                 
0001f4 0003      	.DW  0x03
0001f5 066e      	.DW  _0x2F0+47
0001f6 0136      	.DW  _0x0*2+126
                 
0001f7 0004      	.DW  0x04
0001f8 0671      	.DW  _0x2F0+50
0001f9 0139      	.DW  _0x0*2+129
                 
0001fa 0008      	.DW  0x08
0001fb 0675      	.DW  _0x2F0+54
0001fc 01d3      	.DW  _0x0*2+283
                 
0001fd 0003      	.DW  0x03
0001fe 067d      	.DW  _0x2F0+62
0001ff 01e1      	.DW  _0x0*2+297
                 
000200 0003      	.DW  0x03
000201 0680      	.DW  _0x2F0+65
000202 0136      	.DW  _0x0*2+126
                 
000203 0004      	.DW  0x04
000204 0683      	.DW  _0x2F0+68
000205 0139      	.DW  _0x0*2+129
                 
000206 0008      	.DW  0x08
000207 0687      	.DW  _0x2F0+72
000208 01d3      	.DW  _0x0*2+283
                 
000209 0003      	.DW  0x03
00020a 068f      	.DW  _0x2F0+80
00020b 01e4      	.DW  _0x0*2+300
                 
00020c 0003      	.DW  0x03
00020d 0692      	.DW  _0x2F0+83
00020e 0136      	.DW  _0x0*2+126
                 
00020f 0004      	.DW  0x04
000210 0695      	.DW  _0x2F0+86
000211 0139      	.DW  _0x0*2+129
                 
000212 0008      	.DW  0x08
000213 0699      	.DW  _0x2F0+90
000214 01d3      	.DW  _0x0*2+283
                 
000215 0003      	.DW  0x03
000216 06a1      	.DW  _0x2F0+98
000217 01e7      	.DW  _0x0*2+303
                 
000218 0003      	.DW  0x03
000219 06a4      	.DW  _0x2F0+101
00021a 0136      	.DW  _0x0*2+126
                 
00021b 0004      	.DW  0x04
00021c 06a7      	.DW  _0x2F0+104
00021d 0139      	.DW  _0x0*2+129
                 
00021e 0008      	.DW  0x08
00021f 06ab      	.DW  _0x2F0+108
000220 01d3      	.DW  _0x0*2+283
                 
000221 0003      	.DW  0x03
000222 06b3      	.DW  _0x2F0+116
000223 01ea      	.DW  _0x0*2+306
                 
000224 0003      	.DW  0x03
000225 06b6      	.DW  _0x2F0+119
000226 0136      	.DW  _0x0*2+126
                 
000227 0004      	.DW  0x04
000228 06b9      	.DW  _0x2F0+122
000229 0139      	.DW  _0x0*2+129
                 
00022a 0004      	.DW  0x04
00022b 06bd      	.DW  _0x315
00022c 01ed      	.DW  _0x0*2+309
                 
00022d 0002      	.DW  0x02
00022e 06c1      	.DW  _0x315+4
00022f 0134      	.DW  _0x0*2+124
                 
000230 0005      	.DW  0x05
000231 06c3      	.DW  _0x31C
000232 01f1      	.DW  _0x0*2+313
                 
000233 0002      	.DW  0x02
000234 06c8      	.DW  _0x31C+5
000235 0134      	.DW  _0x0*2+124
                 
000236 0007      	.DW  0x07
000237 06ca      	.DW  _0x320
000238 01f6      	.DW  _0x0*2+318
                 
000239 0011      	.DW  0x11
00023a 06d1      	.DW  _0x32E
00023b 01fd      	.DW  _0x0*2+325
                 
00023c 0001      	.DW  0x01
00023d 07fe      	.DW  __seed_G100
00023e 026a      	.DW  _0x2000060*2
                 
00023f 0001      	.DW  0x01
000240 06e4      	.DW  _twi_result
000241 0276      	.DW  _0x2060003*2
                 
000242 0002      	.DW  0x02
000243 080e      	.DW  __base_y_G104
000244 0278      	.DW  _0x2080003*2
                 
                 _0xFFFFFFFF:
000245 0000      	.DW  0
                 
                 #define __GLOBAL_INI_TBL_PRESENT 1
                 
                 __RESET:
000246 94f8      	CLI
000247 27ee      	CLR  R30
000248 bbec      	OUT  EECR,R30
                 
                 ;INTERRUPT VECTORS ARE PLACED
                 ;AT THE START OF FLASH
000249 e0f1      	LDI  R31,1
00024a bff5      	OUT  MCUCR,R31
00024b bfe5      	OUT  MCUCR,R30
00024c 93e0 006c 	STS  XMCRB,R30
                 
                 ;CLEAR R2-R14
00024e e08d      	LDI  R24,(14-2)+1
00024f e0a2      	LDI  R26,2
000250 27bb      	CLR  R27
                 __CLEAR_REG:
000251 93ed      	ST   X+,R30
000252 958a      	DEC  R24
000253 f7e9      	BRNE __CLEAR_REG
                 
                 ;CLEAR SRAM
000254 e080      	LDI  R24,LOW(__CLEAR_SRAM_SIZE)
000255 e190      	LDI  R25,HIGH(__CLEAR_SRAM_SIZE)
000256 e0a0      	LDI  R26,LOW(__SRAM_START)
000257 e0b1      	LDI  R27,HIGH(__SRAM_START)
                 __CLEAR_SRAM:
000258 93ed      	ST   X+,R30
000259 9701      	SBIW R24,1
00025a f7e9      	BRNE __CLEAR_SRAM
                 
                 ;GLOBAL VARIABLES INITIALIZATION
00025b e7ea      	LDI  R30,LOW(__GLOBAL_INI_TBL*2)
00025c e0f2      	LDI  R31,HIGH(__GLOBAL_INI_TBL*2)
                 __GLOBAL_INI_NEXT:
00025d 9185      	LPM  R24,Z+
00025e 9195      	LPM  R25,Z+
00025f 9700      	SBIW R24,0
000260 f061      	BREQ __GLOBAL_INI_END
000261 91a5      	LPM  R26,Z+
000262 91b5      	LPM  R27,Z+
000263 9005      	LPM  R0,Z+
000264 9015      	LPM  R1,Z+
000265 01bf      	MOVW R22,R30
000266 01f0      	MOVW R30,R0
                 __GLOBAL_INI_LOOP:
000267 9005      	LPM  R0,Z+
000268 920d      	ST   X+,R0
000269 9701      	SBIW R24,1
00026a f7e1      	BRNE __GLOBAL_INI_LOOP
00026b 01fb      	MOVW R30,R22
00026c cff0      	RJMP __GLOBAL_INI_NEXT
                 __GLOBAL_INI_END:
                 
00026d bf8b      	OUT  RAMPZ,R24
                 
                 ;HARDWARE STACK POINTER INITIALIZATION
00026e efef      	LDI  R30,LOW(__SRAM_END-__HEAP_SIZE)
00026f bfed      	OUT  SPL,R30
000270 e1e0      	LDI  R30,HIGH(__SRAM_END-__HEAP_SIZE)
000271 bfee      	OUT  SPH,R30
                 
                 ;DATA STACK POINTER INITIALIZATION
000272 e0c0      	LDI  R28,LOW(__SRAM_START+__DSTACK_SIZE)
000273 e0d5      	LDI  R29,HIGH(__SRAM_START+__DSTACK_SIZE)
                 
000274 940c 1a80 	JMP  _main
                 
                 	.ESEG
                 	.ORG 0
                 
                 	.DSEG
                 	.ORG 0x500
                 
                 	.CSEG
                 ;/*******************************************************
                 ;This program was created by the
                 ;CodeWizardAVR V3.17 UL Advanced
                 ;Automatic Program Generator
                 ; Copyright 1998-2014 Pavel Haiduc, HP InfoTech s.r.l.
                 ;http://www.hpinfotech.com
                 ;
                 ;Project : BlueMatics
                 ;Version : 0.0.9
                 ;Date    : 28.11.2017
                 ;Author  : Viktor Lau
                 ;Company : https://lauviktor.de
                 ;Comments:
                 ;
                 ;
                 ;Chip type               : ATmega128
                 ;Program type            : Application
                 ;AVR Core Clock frequency: 16,000000 MHz
                 ;Memory model            : Small
                 ;External RAM size       : 0
                 ;Data Stack size         : 1024
                 ;*******************************************************/
                 ;
                 ;//Header includes
                 ;#include <mega128.h>
                 	#ifndef __SLEEP_DEFINED__
                 	#define __SLEEP_DEFINED__
                 	.EQU __se_bit=0x20
                 	.EQU __sm_mask=0x1C
                 	.EQU __sm_powerdown=0x10
                 	.EQU __sm_powersave=0x18
                 	.EQU __sm_standby=0x14
                 	.EQU __sm_ext_standby=0x1C
                 	.EQU __sm_adc_noise_red=0x08
                 	.SET power_ctrl_reg=mcucr
                 	#endif
                 ;#include <delay.h>
                 ;#include <stdlib.h>
                 ;#include <string.h>
                 ;#include <stdint.h>
                 ;#include <stdio.h>
                 ;#include <twi.h>
                 ;#include <i2c.h>
                 ;#include <io.h>
                 ;
                 ;#define puts lcd_puts
                 ;//STATES
                 ;#define state_linedetector  0
                 ;#define state_engine  1
                 ;#define state_engine_dir  2
                 ;#define state_distance_sensor  3
                 ;#define state_lightsensor  4
                 ;#define state_wiicam  5
                 ;#define state_irtower  6
                 ;#define state_servo  7
                 ;#define state_ultrasonic  8
                 ;#define state_vor  9
                 ;#define state_zur  10
                 ;#define state_links  11
                 ;#define state_rechts  12
                 ;//state_0 = state_stop
                 ;#define state_1  13
                 ;#define state_2  14
                 ;#define state_3  15
                 ;#define state_4  16
                 ;#define state_5  17
                 ;#define state_6  18
                 ;#define state_7  19
                 ;#define state_8  20
                 ;#define state_90links  22
                 ;#define state_90rechts  23
                 ;#define state_stop 27
                 ;
                 ;#include "modules/variables.h"
                 
                 	.DSEG
                 ;#include "modules/port_init.h"
                 
                 	.CSEG
                 _adc_isr:
                 ; .FSTART _adc_isr
000276 938a      	ST   -Y,R24
000277 93aa      	ST   -Y,R26
000278 93ba      	ST   -Y,R27
000279 93ea      	ST   -Y,R30
00027a 93fa      	ST   -Y,R31
00027b b7ef      	IN   R30,SREG
00027c 93ea      	ST   -Y,R30
00027d 91e0 07e1 	LDS  R30,_input_index_S0000000000
00027f eda3      	LDI  R26,LOW(_adc_data)
000280 e0b7      	LDI  R27,HIGH(_adc_data)
000281 e0f0      	LDI  R31,0
000282 0fee      	LSL  R30
000283 1fff      	ROL  R31
000284 0fae      	ADD  R26,R30
000285 1fbf      	ADC  R27,R31
000286 b1e4      	IN   R30,0x4
000287 b1f5      	IN   R31,0x4+1
000288 93ed      	ST   X+,R30
000289 93fc      	ST   X,R31
00028a 91a0 07e1 	LDS  R26,_input_index_S0000000000
00028c 5faf      	SUBI R26,-LOW(1)
00028d 93a0 07e1 	STS  _input_index_S0000000000,R26
00028f 30a7      	CPI  R26,LOW(0x7)
000290 f018      	BRLO _0xA
000291 e0e0      	LDI  R30,LOW(0)
000292 93e0 07e1 	STS  _input_index_S0000000000,R30
                 _0xA:
000294 91e0 07e1 	LDS  R30,_input_index_S0000000000
000296 5ce0      	SUBI R30,-LOW(64)
000297 b9e7      	OUT  0x7,R30
                +
000298 e385     +LDI R24 , LOW ( 53 )
                +__DELAY_USB_LOOP :
000299 958a     +DEC R24
00029a f7f1     +BRNE __DELAY_USB_LOOP
                 	__DELAY_USB 53
00029b 9a36      	SBI  0x6,6
00029c 91e9      	LD   R30,Y+
00029d bfef      	OUT  SREG,R30
00029e 91f9      	LD   R31,Y+
00029f 91e9      	LD   R30,Y+
0002a0 91b9      	LD   R27,Y+
0002a1 91a9      	LD   R26,Y+
0002a2 9189      	LD   R24,Y+
0002a3 9518      	RETI
                 ; .FEND
                 _ext_int4_isr:
                 ; .FSTART _ext_int4_isr
0002a4 940e 1dbf 	CALL SUBOPT_0x0
0002a6 940e 1dcb 	CALL SUBOPT_0x1
0002a8 940e 1dd4 	CALL SUBOPT_0x2
0002aa 940e 1dcb 	CALL SUBOPT_0x1
0002ac 940e 1ddc 	CALL SUBOPT_0x3
0002ae f089      	BREQ _0xB
0002af 9bdf      	SBIS 0x1B,7
0002b0 c008      	RJMP _0xC
0002b1 eea6      	LDI  R26,LOW(_wheelEncoderCounter_right)
0002b2 e0b7      	LDI  R27,HIGH(_wheelEncoderCounter_right)
0002b3 940e 2426 	CALL __GETD1P_INC
0002b5 9731      	SBIW R30,1
0002b6 4060      	SBCI R22,0
0002b7 4070      	SBCI R23,0
0002b8 c004      	RJMP _0x372
                 _0xC:
0002b9 eea6      	LDI  R26,LOW(_wheelEncoderCounter_right)
0002ba e0b7      	LDI  R27,HIGH(_wheelEncoderCounter_right)
0002bb 940e 1de4 	CALL SUBOPT_0x4
                 _0x372:
0002bd 940e 242b 	CALL __PUTDP1_DEC
0002bf c002      	RJMP _0xE
                 _0xB:
0002c0 940e 1deb 	CALL SUBOPT_0x5
                 _0xE:
0002c2 c01e      	RJMP _0x38E
                 ; .FEND
                 _ext_int6_isr:
                 ; .FSTART _ext_int6_isr
0002c3 940e 1dbf 	CALL SUBOPT_0x0
0002c5 940e 1df5 	CALL SUBOPT_0x6
0002c7 940e 1dd4 	CALL SUBOPT_0x2
0002c9 940e 1df5 	CALL SUBOPT_0x6
0002cb 940e 1ddc 	CALL SUBOPT_0x3
0002cd f089      	BREQ _0xF
0002ce 9bdd      	SBIS 0x1B,5
0002cf c008      	RJMP _0x10
0002d0 eea2      	LDI  R26,LOW(_wheelEncoderCounter_left)
0002d1 e0b7      	LDI  R27,HIGH(_wheelEncoderCounter_left)
0002d2 940e 2426 	CALL __GETD1P_INC
0002d4 9731      	SBIW R30,1
0002d5 4060      	SBCI R22,0
0002d6 4070      	SBCI R23,0
0002d7 c004      	RJMP _0x373
                 _0x10:
0002d8 eea2      	LDI  R26,LOW(_wheelEncoderCounter_left)
0002d9 e0b7      	LDI  R27,HIGH(_wheelEncoderCounter_left)
0002da 940e 1de4 	CALL SUBOPT_0x4
                 _0x373:
0002dc 940e 242b 	CALL __PUTDP1_DEC
0002de c002      	RJMP _0x12
                 _0xF:
0002df 940e 1dfe 	CALL SUBOPT_0x7
                 _0x12:
                 _0x38E:
0002e1 91e9      	LD   R30,Y+
0002e2 bfef      	OUT  SREG,R30
0002e3 91f9      	LD   R31,Y+
0002e4 91e9      	LD   R30,Y+
0002e5 91b9      	LD   R27,Y+
0002e6 91a9      	LD   R26,Y+
0002e7 9199      	LD   R25,Y+
0002e8 9189      	LD   R24,Y+
0002e9 9179      	LD   R23,Y+
0002ea 9169      	LD   R22,Y+
0002eb 9009      	LD   R0,Y+
0002ec 9518      	RETI
                 ; .FEND
                    .equ __lcd_port=0x15 ;PORTC
                 _port_init:
                 ; .FSTART _port_init
0002ed e8ea      	LDI  R30,LOW(138)
0002ee bbea      	OUT  0x1A,R30
0002ef e0e2      	LDI  R30,LOW(2)
0002f0 bbe7      	OUT  0x17,R30
0002f1 eae1      	LDI  R30,LOW(161)
0002f2 bbe1      	OUT  0x11,R30
0002f3 e0e4      	LDI  R30,LOW(4)
0002f4 b9e2      	OUT  0x2,R30
0002f5 e2e0      	LDI  R30,LOW(32)
0002f6 93e0 0061 	STS  97,R30
0002f8 e1a0      	LDI  R26,LOW(16)
0002f9 940e 1d8b 	CALL _lcd_init
0002fb e4e0      	LDI  R30,LOW(64)
0002fc b9e7      	OUT  0x7,R30
0002fd ecef      	LDI  R30,LOW(207)
0002fe b9e6      	OUT  0x6,R30
0002ff e0e0      	LDI  R30,LOW(0)
000300 bde0      	OUT  0x20,R30
000301 e8e0      	LDI  R30,LOW(128)
000302 b9e8      	OUT  0x8,R30
000303 e0e0      	LDI  R30,LOW(0)
000304 93e0 006a 	STS  106,R30
000306 e1e1      	LDI  R30,LOW(17)
000307 bfea      	OUT  0x3A,R30
000308 e5e0      	LDI  R30,LOW(80)
000309 bfe9      	OUT  0x39,R30
00030a e0e0      	LDI  R30,LOW(0)
00030b bfe8      	OUT  0x38,R30
00030c bfe0      	OUT  0x30,R30
00030d e0e6      	LDI  R30,LOW(6)
00030e bfe3      	OUT  0x33,R30
00030f e8e3      	LDI  R30,LOW(131)
000310 bfe2      	OUT  0x32,R30
000311 e0e0      	LDI  R30,LOW(0)
000312 bfe1      	OUT  0x31,R30
000313 e0e1      	LDI  R30,LOW(1)
000314 bdef      	OUT  0x2F,R30
000315 e0ea      	LDI  R30,LOW(10)
000316 bdee      	OUT  0x2E,R30
000317 e0e0      	LDI  R30,LOW(0)
000318 bded      	OUT  0x2D,R30
000319 bdec      	OUT  0x2C,R30
00031a bde7      	OUT  0x27,R30
00031b bde6      	OUT  0x26,R30
00031c bdeb      	OUT  0x2B,R30
00031d bdea      	OUT  0x2A,R30
00031e bde9      	OUT  0x29,R30
00031f bde8      	OUT  0x28,R30
000320 93e0 0079 	STS  121,R30
000322 93e0 0078 	STS  120,R30
000324 e0e4      	LDI  R30,LOW(4)
000325 bde5      	OUT  0x25,R30
000326 e0e0      	LDI  R30,LOW(0)
000327 bde4      	OUT  0x24,R30
000328 bde3      	OUT  0x23,R30
000329 93e0 008b 	STS  139,R30
00032b eceb      	LDI  R30,LOW(203)
00032c 93e0 008a 	STS  138,R30
00032e e0e0      	LDI  R30,LOW(0)
00032f 93e0 0089 	STS  137,R30
000331 93e0 0088 	STS  136,R30
000333 93e0 0081 	STS  129,R30
000335 93e0 0080 	STS  128,R30
000337 e6e1      	LDI  R30,LOW(97)
000338 93e0 0087 	STS  135,R30
00033a eae8      	LDI  R30,LOW(168)
00033b 93e0 0086 	STS  134,R30
00033d e0e0      	LDI  R30,LOW(0)
00033e 93e0 0085 	STS  133,R30
000340 93e0 0084 	STS  132,R30
000342 93e0 0083 	STS  131,R30
000344 93e0 0082 	STS  130,R30
000346 e4e5      	LDI  R30,LOW(69)
000347 bfe7      	OUT  0x37,R30
000348 e3e0      	LDI  R30,LOW(48)
000349 93e0 007d 	STS  125,R30
00034b 9478      	sei
00034c 9508      	RET
                 ; .FEND
                 ;#include "modules/pwm.h"
                 _timer1_ovf_isr:
                 ; .FSTART _timer1_ovf_isr
00034d 920a      	ST   -Y,R0
00034e 93aa      	ST   -Y,R26
00034f 93ba      	ST   -Y,R27
000350 93ea      	ST   -Y,R30
000351 93fa      	ST   -Y,R31
000352 b7ef      	IN   R30,SREG
000353 93ea      	ST   -Y,R30
000354 e9ec      	LDI  R30,LOW(156)
000355 bdec      	OUT  0x2C,R30
000356 e2ab      	LDI  R26,LOW(_ipwmcounter)
000357 e0b7      	LDI  R27,HIGH(_ipwmcounter)
000358 940e 1e08 	CALL SUBOPT_0x8
00035a 940e 1e0e 	CALL SUBOPT_0x9
00035c 36a5      	CPI  R26,LOW(0x65)
00035d e0e0      	LDI  R30,HIGH(0x65)
00035e 07be      	CPC  R27,R30
00035f f02c      	BRLT _0x13
000360 e0e0      	LDI  R30,LOW(0)
000361 93e0 072b 	STS  _ipwmcounter,R30
000363 93e0 072c 	STS  _ipwmcounter+1,R30
                 _0x13:
000365 91e0 072d 	LDS  R30,_ipwmcompareleft
000367 91f0 072e 	LDS  R31,_ipwmcompareleft+1
000369 940e 1e0e 	CALL SUBOPT_0x9
00036b 17ae      	CP   R26,R30
00036c 07bf      	CPC  R27,R31
00036d f014      	BRLT _0x14
00036e 98db      	CBI  0x1B,3
00036f c001      	RJMP _0x17
                 _0x14:
000370 9adb      	SBI  0x1B,3
                 _0x17:
000371 91e0 072f 	LDS  R30,_ipwmcompareright
000373 91f0 0730 	LDS  R31,_ipwmcompareright+1
000375 940e 1e0e 	CALL SUBOPT_0x9
000377 17ae      	CP   R26,R30
000378 07bf      	CPC  R27,R31
000379 f014      	BRLT _0x1A
00037a 98d9      	CBI  0x1B,1
00037b c001      	RJMP _0x1D
                 _0x1A:
00037c 9ad9      	SBI  0x1B,1
                 _0x1D:
00037d 91a0 07f2 	LDS  R26,_tmr_line
00037f 91b0 07f3 	LDS  R27,_tmr_line+1
000381 3ba8      	CPI  R26,LOW(0xBB8)
000382 e0eb      	LDI  R30,HIGH(0xBB8)
000383 07be      	CPC  R27,R30
000384 f42c      	BRGE _0x20
000385 efa2      	LDI  R26,LOW(_tmr_line)
000386 e0b7      	LDI  R27,HIGH(_tmr_line)
000387 940e 1e08 	CALL SUBOPT_0x8
000389 c01e      	RJMP _0x21
                 _0x20:
00038a 91a0 07f4 	LDS  R26,_val_L_linesearch
00038c 91b0 07f5 	LDS  R27,_val_L_linesearch+1
00038e 975e      	SBIW R26,30
00038f f43c      	BRGE _0x23
000390 91a0 07f4 	LDS  R26,_val_L_linesearch
000392 91b0 07f5 	LDS  R27,_val_L_linesearch+1
000394 940e 2430 	CALL __CPW02
000396 f00c      	BRLT _0x24
                 _0x23:
000397 c005      	RJMP _0x22
                 _0x24:
000398 efa4      	LDI  R26,LOW(_val_L_linesearch)
000399 e0b7      	LDI  R27,HIGH(_val_L_linesearch)
00039a 940e 1e08 	CALL SUBOPT_0x8
00039c c006      	RJMP _0x374
                 _0x22:
00039d e0e1      	LDI  R30,LOW(1)
00039e e0f0      	LDI  R31,HIGH(1)
00039f 93e0 07f4 	STS  _val_L_linesearch,R30
0003a1 93f0 07f5 	STS  _val_L_linesearch+1,R31
                 _0x374:
0003a3 e0e0      	LDI  R30,LOW(0)
0003a4 93e0 07f2 	STS  _tmr_line,R30
0003a6 93e0 07f3 	STS  _tmr_line+1,R30
                 _0x21:
0003a8 91a0 0733 	LDS  R26,_Wiipwmleft
0003aa 91b0 0734 	LDS  R27,_Wiipwmleft+1
0003ac 940e 2430 	CALL __CPW02
0003ae f03c      	BRLT _0x27
0003af 91a0 0735 	LDS  R26,_Wiipwmright
0003b1 91b0 0736 	LDS  R27,_Wiipwmright+1
0003b3 940e 2430 	CALL __CPW02
0003b5 f50c      	BRGE _0x26
                 _0x27:
0003b6 91a0 0731 	LDS  R26,_tmr_wiipwm
0003b8 91b0 0732 	LDS  R27,_tmr_wiipwm+1
0003ba 3ca8      	CPI  R26,LOW(0xC8)
0003bb e0e0      	LDI  R30,HIGH(0xC8)
0003bc 07be      	CPC  R27,R30
0003bd f42c      	BRGE _0x29
0003be e3a1      	LDI  R26,LOW(_tmr_wiipwm)
0003bf e0b7      	LDI  R27,HIGH(_tmr_wiipwm)
0003c0 940e 1e08 	CALL SUBOPT_0x8
0003c2 c013      	RJMP _0x2A
                 _0x29:
0003c3 e3a3      	LDI  R26,LOW(_Wiipwmleft)
0003c4 e0b7      	LDI  R27,HIGH(_Wiipwmleft)
0003c5 91ed      	LD   R30,X+
0003c6 91fd      	LD   R31,X+
0003c7 9731      	SBIW R30,1
0003c8 93fe      	ST   -X,R31
0003c9 93ee      	ST   -X,R30
0003ca e3a5      	LDI  R26,LOW(_Wiipwmright)
0003cb e0b7      	LDI  R27,HIGH(_Wiipwmright)
0003cc 91ed      	LD   R30,X+
0003cd 91fd      	LD   R31,X+
0003ce 9731      	SBIW R30,1
0003cf 93fe      	ST   -X,R31
0003d0 93ee      	ST   -X,R30
0003d1 e0e0      	LDI  R30,LOW(0)
0003d2 93e0 0731 	STS  _tmr_wiipwm,R30
0003d4 93e0 0732 	STS  _tmr_wiipwm+1,R30
                 _0x2A:
0003d6 c00d      	RJMP _0x2B
                 _0x26:
0003d7 e0e0      	LDI  R30,LOW(0)
0003d8 93e0 0733 	STS  _Wiipwmleft,R30
0003da 93e0 0734 	STS  _Wiipwmleft+1,R30
0003dc 93e0 0735 	STS  _Wiipwmright,R30
0003de 93e0 0736 	STS  _Wiipwmright+1,R30
0003e0 93e0 0731 	STS  _tmr_wiipwm,R30
0003e2 93e0 0732 	STS  _tmr_wiipwm+1,R30
                 _0x2B:
0003e4 91e9      	LD   R30,Y+
0003e5 bfef      	OUT  SREG,R30
0003e6 91f9      	LD   R31,Y+
0003e7 91e9      	LD   R30,Y+
0003e8 91b9      	LD   R27,Y+
0003e9 91a9      	LD   R26,Y+
0003ea 9009      	LD   R0,Y+
0003eb 9518      	RETI
                 ; .FEND
                 _movement:
                 ; .FSTART _movement
0003ec 93ba      	ST   -Y,R27
0003ed 93aa      	ST   -Y,R26
                 ;	left -> Y+6
                 ;	right -> Y+4
                 ;	dir_left -> Y+2
                 ;	dir_right -> Y+0
0003ee 81ee      	LDD  R30,Y+6
0003ef 81ff      	LDD  R31,Y+6+1
0003f0 940e 1e13 	CALL SUBOPT_0xA
0003f2 81ec      	LDD  R30,Y+4
0003f3 81fd      	LDD  R31,Y+4+1
0003f4 940e 1e18 	CALL SUBOPT_0xB
0003f6 81ea      	LDD  R30,Y+2
0003f7 30e0      	CPI  R30,0
0003f8 f411      	BRNE _0x2C
0003f9 98df      	CBI  0x1B,7
0003fa c001      	RJMP _0x2D
                 _0x2C:
0003fb 9adf      	SBI  0x1B,7
                 _0x2D:
0003fc 81e8      	LD   R30,Y
0003fd 30e0      	CPI  R30,0
0003fe f411      	BRNE _0x2E
0003ff 98dd      	CBI  0x1B,5
000400 c001      	RJMP _0x2F
                 _0x2E:
000401 9add      	SBI  0x1B,5
                 _0x2F:
000402 c08f      	RJMP _0x20E0009
                 ; .FEND
                 ;#include "modules/ir.h"
                 _timer0_ovf_isr:
                 ; .FSTART _timer0_ovf_isr
000403 940e 1e1d 	CALL SUBOPT_0xC
000405 efee      	LDI  R30,LOW(254)
000406 bfe2      	OUT  0x32,R30
000407 91a0 0737 	LDS  R26,_rc5_time
000409 5faf      	SUBI R26,-LOW(1)
00040a 93a0 0737 	STS  _rc5_time,R26
00040c 34a4      	CPI  R26,LOW(0x44)
00040d f0a0      	BRLO _0x30
                +
00040e 91e0 073b+LDS R30 , _tmp + ( 1 )
                 	__GETB1MN _tmp,1
000410 74e0      	ANDI R30,LOW(0x40)
000411 f421      	BRNE _0x32
                +
000412 91e0 073b+LDS R30 , _tmp + ( 1 )
                 	__GETB1MN _tmp,1
000414 72e0      	ANDI R30,LOW(0x20)
000415 f409      	BRNE _0x33
                 _0x32:
000416 c006      	RJMP _0x31
                 _0x33:
000417 940e 1e24 	CALL SUBOPT_0xD
000419 93e0 0738 	STS  _rc5_data,R30
00041b 93f0 0739 	STS  _rc5_data+1,R31
                 _0x31:
00041d e0e0      	LDI  R30,LOW(0)
00041e 93e0 073a 	STS  _tmp,R30
000420 93e0 073b 	STS  _tmp+1,R30
                 _0x30:
000422 e0a0      	LDI  R26,0
000423 fc20      	SBRC R2,0
000424 e0a1      	LDI  R26,1
000425 e0e0      	LDI  R30,0
000426 99ca      	SBIC 0x19,2
000427 e0e1      	LDI  R30,1
000428 e0b0      	LDI  R27,0
000429 e0f0      	LDI  R31,0
00042a fde7      	SBRC R30,7
00042b efff      	SER  R31
00042c 17ea      	CP   R30,R26
00042d 07fb      	CPC  R31,R27
00042e f159      	BREQ _0x34
00042f e0e1      	LDI  R30,LOW(1)
000430 262e      	EOR  R2,R30
000431 91a0 0737 	LDS  R26,_rc5_time
000433 30ab      	CPI  R26,LOW(0xB)
000434 f428      	BRSH _0x35
000435 e0e0      	LDI  R30,LOW(0)
000436 93e0 073a 	STS  _tmp,R30
000438 93e0 073b 	STS  _tmp+1,R30
                 _0x35:
00043a 940e 1e24 	CALL SUBOPT_0xD
00043c 9730      	SBIW R30,0
00043d f021      	BREQ _0x37
00043e 91a0 0737 	LDS  R26,_rc5_time
000440 32ad      	CPI  R26,LOW(0x2D)
000441 f0c0      	BRLO _0x36
                 _0x37:
                +
000442 91e0 073b+LDS R30 , _tmp + ( 1 )
                 	__GETB1MN _tmp,1
000444 74e0      	ANDI R30,LOW(0x40)
000445 f441      	BRNE _0x39
000446 940e 1e24 	CALL SUBOPT_0xD
000448 0fee      	LSL  R30
000449 1fff      	ROL  R31
00044a 93e0 073a 	STS  _tmp,R30
00044c 93f0 073b 	STS  _tmp+1,R31
                 _0x39:
00044e fc20      	SBRC R2,0
00044f c007      	RJMP _0x3A
000450 940e 1e24 	CALL SUBOPT_0xD
000452 60e1      	ORI  R30,1
000453 93e0 073a 	STS  _tmp,R30
000455 93f0 073b 	STS  _tmp+1,R31
                 _0x3A:
000457 e0e0      	LDI  R30,LOW(0)
000458 93e0 0737 	STS  _rc5_time,R30
                 _0x36:
                 _0x34:
00045a c2d1      	RJMP _0x38D
                 ; .FEND
                 _rc5_receive:
                 ; .FSTART _rc5_receive
00045b 93ba      	ST   -Y,R27
00045c 93aa      	ST   -Y,R26
00045d 931a      	ST   -Y,R17
00045e 930a      	ST   -Y,R16
                 ;	*ucToggle -> Y+6
                 ;	*ucAdress -> Y+4
                 ;	*ucData -> Y+2
                 ;	i -> R16,R17
00045f 94f8      	cli
                +
000460 9100 0738+LDS R16 , 0 + ( _rc5_data )
000462 9110 0739+LDS R17 , 0 + ( _rc5_data ) + 1
                 	__GETWRMN 16,17,0,_rc5_data
000464 e0e0      	LDI  R30,LOW(0)
000465 93e0 0738 	STS  _rc5_data,R30
000467 93e0 0739 	STS  _rc5_data+1,R30
000469 9478      	sei
00046a 2e00      	MOV  R0,R16
00046b 2a01      	OR   R0,R17
00046c f109      	BREQ _0x3B
00046d 01d8      	MOVW R26,R16
00046e e0eb      	LDI  R30,LOW(11)
00046f 940e 23bf 	CALL __LSRW12
000471 70e1      	ANDI R30,LOW(0x1)
000472 81ae      	LDD  R26,Y+6
000473 81bf      	LDD  R27,Y+6+1
000474 93ec      	ST   X,R30
000475 01d8      	MOVW R26,R16
000476 e0e6      	LDI  R30,LOW(6)
000477 940e 23bf 	CALL __LSRW12
000479 71ef      	ANDI R30,LOW(0x1F)
00047a 81ac      	LDD  R26,Y+4
00047b 81bd      	LDD  R27,Y+4+1
00047c 93ec      	ST   X,R30
00047d 2fe0      	MOV  R30,R16
00047e 73ef      	ANDI R30,LOW(0x3F)
00047f 2fae      	MOV  R26,R30
000480 01f8      	MOVW R30,R16
000481 95e0      	COM  R30
000482 95f0      	COM  R31
000483 940e 23d3 	CALL __LSRW3
000485 940e 23d1 	CALL __LSRW4
000487 74e0      	ANDI R30,LOW(0x40)
000488 2bea      	OR   R30,R26
000489 81aa      	LDD  R26,Y+2
00048a 81bb      	LDD  R27,Y+2+1
00048b 93ec      	ST   X,R30
00048c 01f8      	MOVW R30,R16
00048d c002      	RJMP _0x20E0008
                 _0x3B:
00048e e0e0      	LDI  R30,LOW(0)
00048f e0f0      	LDI  R31,HIGH(0)
                 _0x20E0008:
000490 8119      	LDD  R17,Y+1
000491 8108      	LDD  R16,Y+0
                 _0x20E0009:
000492 9628      	ADIW R28,8
000493 9508      	RET
                 ; .FEND
                 _rc5_display:
                 ; .FSTART _rc5_display
000494 940e 1d1c 	CALL _lcd_clear
                +
000496 e0a0     +LDI R26 , LOW ( _0x3D + ( 0 ) )
000497 e0b5     +LDI R27 , HIGH ( _0x3D + ( 0 ) )
                 	__POINTW2MN _0x3D,0
000498 940e 1e29 	CALL SUBOPT_0xE
00049a 91a0 073c 	LDS  R26,_ucToggle
00049c 5da0      	SUBI R26,-LOW(48)
00049d 940e 1d31 	CALL _lcd_putchar
00049f e2a0      	LDI  R26,LOW(32)
0004a0 940e 1d31 	CALL _lcd_putchar
0004a2 91e0 073d 	LDS  R30,_ucAdress
0004a4 940e 1e30 	CALL SUBOPT_0xF
0004a6 940e 1d58 	CALL _lcd_puts
0004a8 e2a0      	LDI  R26,LOW(32)
0004a9 940e 1d31 	CALL _lcd_putchar
0004ab 91e0 073e 	LDS  R30,_ucData
0004ad 940e 1e30 	CALL SUBOPT_0xF
0004af c0b2      	RJMP _0x20E0007
                 ; .FEND
                 
                 	.DSEG
                 _0x3D:
000500           	.BYTE 0x5
                 
                 	.CSEG
                 _ondata:
                 ; .FSTART _ondata
0004b0 e3ec      	LDI  R30,LOW(_ucToggle)
0004b1 e0f7      	LDI  R31,HIGH(_ucToggle)
0004b2 93fa      	ST   -Y,R31
0004b3 93ea      	ST   -Y,R30
0004b4 e3ed      	LDI  R30,LOW(_ucAdress)
0004b5 e0f7      	LDI  R31,HIGH(_ucAdress)
0004b6 93fa      	ST   -Y,R31
0004b7 93ea      	ST   -Y,R30
0004b8 e3ae      	LDI  R26,LOW(_ucData)
0004b9 e0b7      	LDI  R27,HIGH(_ucData)
0004ba dfa0      	RCALL _rc5_receive
0004bb 9730      	SBIW R30,0
0004bc f079      	BREQ _0x3E
0004bd 91e0 073e 	LDS  R30,_ucData
0004bf e0f0      	LDI  R31,0
0004c0 9730      	SBIW R30,0
0004c1 f451      	BRNE _0x41
0004c2 e1eb      	LDI  R30,LOW(27)
0004c3 e0f0      	LDI  R31,HIGH(27)
0004c4 93e0 0713 	STS  _currstate,R30
0004c6 93f0 0714 	STS  _currstate+1,R31
0004c8 e6a4      	LDI  R26,LOW(100)
0004c9 e0b0      	LDI  R27,0
0004ca 940e 22b0 	CALL _delay_ms
                 _0x41:
                 _0x3E:
0004cc 91a0 073e 	LDS  R26,_ucData
0004ce 30a1      	CPI  R26,LOW(0x1)
0004cf f421      	BRNE _0x43
0004d0 e0ed      	LDI  R30,LOW(13)
0004d1 e0f0      	LDI  R31,HIGH(13)
0004d2 940e 1e3a 	CALL SUBOPT_0x10
                 _0x43:
0004d4 91a0 073e 	LDS  R26,_ucData
0004d6 30a2      	CPI  R26,LOW(0x2)
0004d7 f421      	BRNE _0x44
0004d8 e0ee      	LDI  R30,LOW(14)
0004d9 e0f0      	LDI  R31,HIGH(14)
0004da 940e 1e3a 	CALL SUBOPT_0x10
                 _0x44:
0004dc 91a0 073e 	LDS  R26,_ucData
0004de 30a3      	CPI  R26,LOW(0x3)
0004df f421      	BRNE _0x45
0004e0 e0ef      	LDI  R30,LOW(15)
0004e1 e0f0      	LDI  R31,HIGH(15)
0004e2 940e 1e3a 	CALL SUBOPT_0x10
                 _0x45:
0004e4 91a0 073e 	LDS  R26,_ucData
0004e6 30a4      	CPI  R26,LOW(0x4)
0004e7 f421      	BRNE _0x46
0004e8 e1e0      	LDI  R30,LOW(16)
0004e9 e0f0      	LDI  R31,HIGH(16)
0004ea 940e 1e3a 	CALL SUBOPT_0x10
                 _0x46:
0004ec 91a0 073e 	LDS  R26,_ucData
0004ee 30a5      	CPI  R26,LOW(0x5)
0004ef f421      	BRNE _0x47
0004f0 e1e1      	LDI  R30,LOW(17)
0004f1 e0f0      	LDI  R31,HIGH(17)
0004f2 940e 1e3a 	CALL SUBOPT_0x10
                 _0x47:
0004f4 91a0 073e 	LDS  R26,_ucData
0004f6 30a6      	CPI  R26,LOW(0x6)
0004f7 f421      	BRNE _0x48
0004f8 e1e2      	LDI  R30,LOW(18)
0004f9 e0f0      	LDI  R31,HIGH(18)
0004fa 940e 1e3a 	CALL SUBOPT_0x10
                 _0x48:
0004fc 91a0 073e 	LDS  R26,_ucData
0004fe 30a7      	CPI  R26,LOW(0x7)
0004ff f421      	BRNE _0x49
000500 e1e3      	LDI  R30,LOW(19)
000501 e0f0      	LDI  R31,HIGH(19)
000502 940e 1e3a 	CALL SUBOPT_0x10
                 _0x49:
000504 91a0 073e 	LDS  R26,_ucData
000506 30a8      	CPI  R26,LOW(0x8)
000507 f421      	BRNE _0x4A
000508 e1e4      	LDI  R30,LOW(20)
000509 e0f0      	LDI  R31,HIGH(20)
00050a 940e 1e3a 	CALL SUBOPT_0x10
                 _0x4A:
00050c 91a0 073e 	LDS  R26,_ucData
00050e 31a2      	CPI  R26,LOW(0x12)
00050f f421      	BRNE _0x4B
000510 e0ec      	LDI  R30,LOW(12)
000511 e0f0      	LDI  R31,HIGH(12)
000512 940e 1e3a 	CALL SUBOPT_0x10
                 _0x4B:
000514 91a0 073e 	LDS  R26,_ucData
000516 31a3      	CPI  R26,LOW(0x13)
000517 f421      	BRNE _0x4C
000518 e0eb      	LDI  R30,LOW(11)
000519 e0f0      	LDI  R31,HIGH(11)
00051a 940e 1e3a 	CALL SUBOPT_0x10
                 _0x4C:
00051c 91a0 073e 	LDS  R26,_ucData
00051e 31a6      	CPI  R26,LOW(0x16)
00051f f421      	BRNE _0x4D
000520 e0e9      	LDI  R30,LOW(9)
000521 e0f0      	LDI  R31,HIGH(9)
000522 940e 1e3a 	CALL SUBOPT_0x10
                 _0x4D:
000524 91a0 073e 	LDS  R26,_ucData
000526 31a7      	CPI  R26,LOW(0x17)
000527 f421      	BRNE _0x4E
000528 e0ea      	LDI  R30,LOW(10)
000529 e0f0      	LDI  R31,HIGH(10)
00052a 940e 1e3a 	CALL SUBOPT_0x10
                 _0x4E:
00052c 9508      	RET
                 ; .FEND
                 ;#include "modules/servo.h"
                 _timer2_ovf_isr:
                 ; .FSTART _timer2_ovf_isr
00052d 940e 1e1d 	CALL SUBOPT_0xC
00052f 9897      	CBI  0x12,7
000530 91e0 06f8 	LDS  R30,_servo_value_copy
000532 91f0 06f9 	LDS  R31,_servo_value_copy+1
000534 940e 1e3f 	CALL SUBOPT_0x11
000536 17ea      	CP   R30,R26
000537 07fb      	CPC  R31,R27
000538 f429      	BRNE _0x52
000539 e3e2      	LDI  R30,LOW(50)
00053a e0f0      	LDI  R31,HIGH(50)
00053b 15e4      	CP   R30,R4
00053c 05f5      	CPC  R31,R5
00053d f471      	BRNE _0x51
                 _0x52:
00053e 940e 1e44 	CALL SUBOPT_0x12
000540 93e0 06f8 	STS  _servo_value_copy,R30
000542 93f0 06f9 	STS  _servo_value_copy+1,R31
000544 e0e1      	LDI  R30,LOW(1)
000545 e0f0      	LDI  R31,HIGH(1)
000546 012f      	MOVW R4,R30
000547 91e0 06f6 	LDS  R30,_servo_value_cur
000549 bde4      	OUT  0x24,R30
00054a 9a97      	SBI  0x12,7
00054b c005      	RJMP _0x56
                 _0x51:
00054c 01f2      	MOVW R30,R4
00054d 9632      	ADIW R30,2
00054e 012f      	MOVW R4,R30
00054f e0e0      	LDI  R30,LOW(0)
000550 bde4      	OUT  0x24,R30
                 _0x56:
000551 c1da      	RJMP _0x38D
                 ; .FEND
                 _fnDisplay:
                 ; .FSTART _fnDisplay
000552 940e 1d1c 	CALL _lcd_clear
                +
000554 e0a5     +LDI R26 , LOW ( _0x57 + ( 0 ) )
000555 e0b5     +LDI R27 , HIGH ( _0x57 + ( 0 ) )
                 	__POINTW2MN _0x57,0
000556 940e 1e29 	CALL SUBOPT_0xE
000558 940e 1e44 	CALL SUBOPT_0x12
00055a 93fa      	ST   -Y,R31
00055b 93ea      	ST   -Y,R30
00055c eea5      	LDI  R26,LOW(_strTemp)
00055d e0b6      	LDI  R27,HIGH(_strTemp)
00055e 940e 1ae2 	CALL _itoa
000560 eea5      	LDI  R26,LOW(_strTemp)
000561 e0b6      	LDI  R27,HIGH(_strTemp)
                 _0x20E0007:
000562 940e 1d58 	CALL _lcd_puts
000564 9508      	RET
                 ; .FEND
                 
                 	.DSEG
                 _0x57:
000505           	.BYTE 0xF
                 
                 	.CSEG
                 _fnServo:
                 ; .FSTART _fnServo
000565 91a0 0715 	LDS  R26,_state
000567 91b0 0716 	LDS  R27,_state+1
000569 9758      	SBIW R26,24
00056a f469      	BRNE _0x58
00056b 940e 1e3f 	CALL SUBOPT_0x11
00056d 3dac      	CPI  R26,LOW(0xDC)
00056e e0e0      	LDI  R30,HIGH(0xDC)
00056f 07be      	CPC  R27,R30
000570 f43c      	BRGE _0x59
000571 940e 1e44 	CALL SUBOPT_0x12
000573 9631      	ADIW R30,1
000574 93e0 06f6 	STS  _servo_value_cur,R30
000576 93f0 06f7 	STS  _servo_value_cur+1,R31
                 _0x59:
                 _0x58:
000578 91a0 0715 	LDS  R26,_state
00057a 91b0 0716 	LDS  R27,_state+1
00057c 9759      	SBIW R26,25
00057d f469      	BRNE _0x5A
00057e 940e 1e3f 	CALL SUBOPT_0x11
000580 37a9      	CPI  R26,LOW(0x79)
000581 e0e0      	LDI  R30,HIGH(0x79)
000582 07be      	CPC  R27,R30
000583 f03c      	BRLT _0x5B
000584 940e 1e44 	CALL SUBOPT_0x12
000586 9731      	SBIW R30,1
000587 93e0 06f6 	STS  _servo_value_cur,R30
000589 93f0 06f7 	STS  _servo_value_cur+1,R31
                 _0x5B:
                 _0x5A:
00058b 9508      	RET
                 ; .FEND
                 ;#include "modules/esp_main_func.h"
                 _esp_states:
                 ; .FSTART _esp_states
00058c 91a0 0713 	LDS  R26,_currstate
00058e 91b0 0714 	LDS  R27,_currstate+1
000590 9710      	SBIW R26,0
000591 f419      	BRNE _0x5C
000592 e1eb      	LDI  R30,LOW(27)
000593 e0f0      	LDI  R31,HIGH(27)
000594 c005      	RJMP _0x375
                 _0x5C:
000595 91e0 0713 	LDS  R30,_currstate
000597 91f0 0714 	LDS  R31,_currstate+1
000599 9731      	SBIW R30,1
                 _0x375:
00059a 93e0 0715 	STS  _state,R30
00059c 93f0 0716 	STS  _state+1,R31
00059e 9508      	RET
                 ; .FEND
                 _esp_mainfunctions:
                 ; .FSTART _esp_mainfunctions
00059f 940e 1e49 	CALL SUBOPT_0x13
0005a1 f419      	BRNE _0x5F
0005a2 e0e0      	LDI  R30,LOW(0)
0005a3 e0f0      	LDI  R31,HIGH(0)
0005a4 c002      	RJMP _0x376
                 _0x5F:
0005a5 e0e1      	LDI  R30,LOW(1)
0005a6 e0f0      	LDI  R31,HIGH(1)
                 _0x376:
0005a7 93e0 0717 	STS  _line_left,R30
0005a9 93f0 0718 	STS  _line_left+1,R31
0005ab 940e 1e4f 	CALL SUBOPT_0x14
0005ad f419      	BRNE _0x62
0005ae e0e0      	LDI  R30,LOW(0)
0005af e0f0      	LDI  R31,HIGH(0)
0005b0 c002      	RJMP _0x377
                 _0x62:
0005b1 e0e1      	LDI  R30,LOW(1)
0005b2 e0f0      	LDI  R31,HIGH(1)
                 _0x377:
0005b3 93e0 0719 	STS  _line_mleft,R30
0005b5 93f0 071a 	STS  _line_mleft+1,R31
0005b7 940e 1e55 	CALL SUBOPT_0x15
0005b9 f419      	BRNE _0x65
0005ba e0e0      	LDI  R30,LOW(0)
0005bb e0f0      	LDI  R31,HIGH(0)
0005bc c002      	RJMP _0x378
                 _0x65:
0005bd e0e1      	LDI  R30,LOW(1)
0005be e0f0      	LDI  R31,HIGH(1)
                 _0x378:
0005bf 93e0 071b 	STS  _line_mright,R30
0005c1 93f0 071c 	STS  _line_mright+1,R31
0005c3 940e 1e5b 	CALL SUBOPT_0x16
0005c5 f419      	BRNE _0x68
0005c6 e0e0      	LDI  R30,LOW(0)
0005c7 e0f0      	LDI  R31,HIGH(0)
0005c8 c002      	RJMP _0x379
                 _0x68:
0005c9 e0e1      	LDI  R30,LOW(1)
0005ca e0f0      	LDI  R31,HIGH(1)
                 _0x379:
0005cb 93e0 071d 	STS  _line_right,R30
0005cd 93f0 071e 	STS  _line_right+1,R31
0005cf 91e0 0717 	LDS  R30,_line_left
0005d1 91f0 0718 	LDS  R31,_line_left+1
0005d3 eea8      	LDI  R26,LOW(1000)
0005d4 e0b3      	LDI  R27,HIGH(1000)
0005d5 940e 240f 	CALL __MULW12
0005d7 01bf      	MOVW R22,R30
0005d8 91e0 0719 	LDS  R30,_line_mleft
0005da 91f0 071a 	LDS  R31,_line_mleft+1
0005dc 940e 1e61 	CALL SUBOPT_0x17
0005de 91e0 071b 	LDS  R30,_line_mright
0005e0 91f0 071c 	LDS  R31,_line_mright+1
0005e2 940e 1e68 	CALL SUBOPT_0x18
0005e4 91a0 071d 	LDS  R26,_line_right
0005e6 91b0 071e 	LDS  R27,_line_right+1
0005e8 0fea      	ADD  R30,R26
0005e9 1ffb      	ADC  R31,R27
0005ea 93e0 0727 	STS  _linesensorvaluetemp,R30
0005ec 93f0 0728 	STS  _linesensorvaluetemp+1,R31
0005ee 99b0      	SBIC 0x16,0
0005ef c003      	RJMP _0x6B
0005f0 e0e1      	LDI  R30,LOW(1)
0005f1 e0f0      	LDI  R31,HIGH(1)
0005f2 c002      	RJMP _0x37A
                 _0x6B:
0005f3 e0e0      	LDI  R30,LOW(0)
0005f4 e0f0      	LDI  R31,HIGH(0)
                 _0x37A:
0005f5 93e0 071f 	STS  _dist_left,R30
0005f7 93f0 0720 	STS  _dist_left+1,R31
0005f9 99b2      	SBIC 0x16,2
0005fa c003      	RJMP _0x6E
0005fb e0e1      	LDI  R30,LOW(1)
0005fc e0f0      	LDI  R31,HIGH(1)
0005fd c002      	RJMP _0x37B
                 _0x6E:
0005fe e0e0      	LDI  R30,LOW(0)
0005ff e0f0      	LDI  R31,HIGH(0)
                 _0x37B:
000600 93e0 0721 	STS  _dist_fleft,R30
000602 93f0 0722 	STS  _dist_fleft+1,R31
000604 99b4      	SBIC 0x16,4
000605 c003      	RJMP _0x71
000606 e0e1      	LDI  R30,LOW(1)
000607 e0f0      	LDI  R31,HIGH(1)
000608 c002      	RJMP _0x37C
                 _0x71:
000609 e0e0      	LDI  R30,LOW(0)
00060a e0f0      	LDI  R31,HIGH(0)
                 _0x37C:
00060b 93e0 0723 	STS  _dist_fright,R30
00060d 93f0 0724 	STS  _dist_fright+1,R31
00060f 99b6      	SBIC 0x16,6
000610 c003      	RJMP _0x74
000611 e0e1      	LDI  R30,LOW(1)
000612 e0f0      	LDI  R31,HIGH(1)
000613 c002      	RJMP _0x37D
                 _0x74:
000614 e0e0      	LDI  R30,LOW(0)
000615 e0f0      	LDI  R31,HIGH(0)
                 _0x37D:
000616 93e0 0725 	STS  _dist_right,R30
000618 93f0 0726 	STS  _dist_right+1,R31
00061a 91e0 071f 	LDS  R30,_dist_left
00061c 91f0 0720 	LDS  R31,_dist_left+1
00061e eea8      	LDI  R26,LOW(1000)
00061f e0b3      	LDI  R27,HIGH(1000)
000620 940e 240f 	CALL __MULW12
000622 01bf      	MOVW R22,R30
000623 91e0 0721 	LDS  R30,_dist_fleft
000625 91f0 0722 	LDS  R31,_dist_fleft+1
000627 940e 1e61 	CALL SUBOPT_0x17
000629 91e0 0723 	LDS  R30,_dist_fright
00062b 91f0 0724 	LDS  R31,_dist_fright+1
00062d 940e 1e68 	CALL SUBOPT_0x18
00062f 91a0 0725 	LDS  R26,_dist_right
000631 91b0 0726 	LDS  R27,_dist_right+1
000633 0fea      	ADD  R30,R26
000634 1ffb      	ADC  R31,R27
000635 93e0 0729 	STS  _distanzsensorvaluetemp,R30
000637 93f0 072a 	STS  _distanzsensorvaluetemp+1,R31
000639 9508      	RET
                 ; .FEND
                 ;#include "modules/wiicam.h"
                 _wii_cam_init:
                 ; .FSTART _wii_cam_init
00063a e3e0      	LDI  R30,LOW(48)
00063b 93ea      	ST   -Y,R30
00063c e0a1      	LDI  R26,LOW(1)
00063d d016      	RCALL _write2Byte
00063e e3e0      	LDI  R30,LOW(48)
00063f 93ea      	ST   -Y,R30
000640 e0a8      	LDI  R26,LOW(8)
000641 d012      	RCALL _write2Byte
000642 e0e6      	LDI  R30,LOW(6)
000643 93ea      	ST   -Y,R30
000644 e9a0      	LDI  R26,LOW(144)
000645 d00e      	RCALL _write2Byte
000646 e0e8      	LDI  R30,LOW(8)
000647 93ea      	ST   -Y,R30
000648 eca0      	LDI  R26,LOW(192)
000649 d00a      	RCALL _write2Byte
00064a e1ea      	LDI  R30,LOW(26)
00064b 93ea      	ST   -Y,R30
00064c e4a0      	LDI  R26,LOW(64)
00064d d006      	RCALL _write2Byte
00064e e3e3      	LDI  R30,LOW(51)
00064f 93ea      	ST   -Y,R30
000650 e3a3      	LDI  R26,LOW(51)
000651 d002      	RCALL _write2Byte
000652 e6a4      	LDI  R26,LOW(100)
000653 c21a      	RJMP _0x20E0005
                 ; .FEND
                 _write2Byte:
                 ; .FSTART _write2Byte
000654 93aa      	ST   -Y,R26
                 ;	b1 -> Y+1
                 ;	b2 -> Y+0
000655 940e 2264 	CALL _i2c_start
000657 eba0      	LDI  R26,LOW(176)
000658 940e 2298 	CALL _i2c_write
00065a 81a9      	LDD  R26,Y+1
00065b 940e 2298 	CALL _i2c_write
00065d 81a8      	LD   R26,Y
00065e 940e 2298 	CALL _i2c_write
000660 940e 2273 	CALL _i2c_stop
000662 e0aa      	LDI  R26,LOW(10)
000663 e0b0      	LDI  R27,0
000664 940e 22b0 	CALL _delay_ms
000666 9622      	ADIW R28,2
000667 9508      	RET
                 ; .FEND
                 _readData:
                 ; .FSTART _readData
000668 931a      	ST   -Y,R17
                 ;	i -> R17
000669 e010      	LDI  R17,0
00066a 940e 2264 	CALL _i2c_start
00066c eba0      	LDI  R26,LOW(176)
00066d 940e 2298 	CALL _i2c_write
00066f e3a6      	LDI  R26,LOW(54)
000670 940e 2298 	CALL _i2c_write
000672 940e 2273 	CALL _i2c_stop
000674 e0a1      	LDI  R26,LOW(1)
000675 e0b0      	LDI  R27,0
000676 940e 22b0 	CALL _delay_ms
000678 940e 2264 	CALL _i2c_start
00067a eba1      	LDI  R26,LOW(177)
00067b 940e 2298 	CALL _i2c_write
00067d e010      	LDI  R17,LOW(0)
                 _0x78:
00067e 301f      	CPI  R17,15
00067f f490      	BRSH _0x79
000680 2fe1      	MOV  R30,R17
000681 e9a0      	LDI  R26,LOW(_data)
000682 e0b7      	LDI  R27,HIGH(_data)
000683 e0f0      	LDI  R31,0
000684 940e 1e6f 	CALL SUBOPT_0x19
000686 93ff      	PUSH R31
000687 93ef      	PUSH R30
000688 e0a1      	LDI  R26,LOW(1)
000689 940e 227d 	CALL _i2c_read
00068b 91af      	POP  R26
00068c 91bf      	POP  R27
00068d e0f0      	LDI  R31,0
00068e 93ed      	ST   X+,R30
00068f 93fc      	ST   X,R31
000690 5f1f      	SUBI R17,-1
000691 cfec      	RJMP _0x78
                 _0x79:
000692 e0a0      	LDI  R26,LOW(0)
000693 940e 227d 	CALL _i2c_read
                +
000695 eaae     +LDI R26 , LOW ( _data + ( 30 ) )
000696 e0b7     +LDI R27 , HIGH ( _data + ( 30 ) )
                 	__POINTW2MN _data,30
000697 e0f0      	LDI  R31,0
000698 93ed      	ST   X+,R30
000699 93fc      	ST   X,R31
00069a 940e 2273 	CALL _i2c_stop
00069c c1c9      	RJMP _0x20E0006
                 ; .FEND
                 _convertdata:
                 ; .FSTART _convertdata
00069d 931a      	ST   -Y,R17
00069e 930a      	ST   -Y,R16
                 ;	i -> R16,R17
                +
00069f e000     +LDI R16 , LOW ( 0 )
0006a0 e010     +LDI R17 , HIGH ( 0 )
                 	__GETWRN 16,17,0
                +
0006a1 e000     +LDI R16 , LOW ( 0 )
0006a2 e010     +LDI R17 , HIGH ( 0 )
                 	__GETWRN 16,17,0
                 _0x7B:
                +
0006a3 3004     +CPI R16 , LOW ( 4 )
0006a4 e0e0     +LDI R30 , HIGH ( 4 )
0006a5 071e     +CPC R17 , R30
                 	__CPWRN 16,17,4
0006a6 f00c      	BRLT PC+2
0006a7 c048      	RJMP _0x7C
0006a8 940e 1e74 	CALL SUBOPT_0x1A
0006aa 940e 1e7a 	CALL SUBOPT_0x1B
0006ac 73e0      	ANDI R30,LOW(0x30)
0006ad 70f0      	ANDI R31,HIGH(0x30)
0006ae 940e 23c8 	CALL __LSLW4
0006b0 93e0 07c9 	STS  _temp,R30
0006b2 93f0 07ca 	STS  _temp+1,R31
0006b4 01f8      	MOVW R30,R16
0006b5 eba5      	LDI  R26,LOW(_x)
0006b6 e0b7      	LDI  R27,HIGH(_x)
0006b7 940e 1e6f 	CALL SUBOPT_0x19
0006b9 01bf      	MOVW R22,R30
0006ba 940e 1e74 	CALL SUBOPT_0x1A
0006bc 01df      	MOVW R26,R30
0006bd 0faa      	LSL  R26
0006be 1fbb      	ROL  R27
                +
0006bf 56ae     +SUBI R26 , LOW ( - _data - ( 2 ) )
0006c0 4fb8     +SBCI R27 , HIGH ( - _data - ( 2 ) )
                 	__ADDW2MN _data,2
0006c1 940e 1e82 	CALL SUBOPT_0x1C
0006c3 940e 1e74 	CALL SUBOPT_0x1A
0006c5 940e 1e7a 	CALL SUBOPT_0x1B
0006c7 7ce0      	ANDI R30,LOW(0xC0)
0006c8 70f0      	ANDI R31,HIGH(0xC0)
0006c9 940e 23cc 	CALL __LSLW2
0006cb 93e0 07c9 	STS  _temp,R30
0006cd 93f0 07ca 	STS  _temp+1,R31
0006cf 01f8      	MOVW R30,R16
0006d0 ebad      	LDI  R26,LOW(_y)
0006d1 e0b7      	LDI  R27,HIGH(_y)
0006d2 940e 1e6f 	CALL SUBOPT_0x19
0006d4 01bf      	MOVW R22,R30
0006d5 940e 1e74 	CALL SUBOPT_0x1A
0006d7 01df      	MOVW R26,R30
0006d8 0faa      	LSL  R26
0006d9 1fbb      	ROL  R27
                +
0006da 56ac     +SUBI R26 , LOW ( - _data - ( 4 ) )
0006db 4fb8     +SBCI R27 , HIGH ( - _data - ( 4 ) )
                 	__ADDW2MN _data,4
0006dc 940e 1e82 	CALL SUBOPT_0x1C
0006de 01f8      	MOVW R30,R16
0006df 53eb      	SUBI R30,LOW(-_sWIICAM)
0006e0 4ff8      	SBCI R31,HIGH(-_sWIICAM)
0006e1 01bf      	MOVW R22,R30
0006e2 940e 1e74 	CALL SUBOPT_0x1A
0006e4 01df      	MOVW R26,R30
0006e5 0faa      	LSL  R26
0006e6 1fbb      	ROL  R27
                +
0006e7 56aa     +SUBI R26 , LOW ( - _data - ( 6 ) )
0006e8 4fb8     +SBCI R27 , HIGH ( - _data - ( 6 ) )
                 	__ADDW2MN _data,6
0006e9 91ec      	LD   R30,X
0006ea 70ef      	ANDI R30,LOW(0xF)
0006eb 01db      	MOVW R26,R22
0006ec 93ec      	ST   X,R30
                +
0006ed 5f0f     +SUBI R16 , LOW ( - 1 )
0006ee 4f1f     +SBCI R17 , HIGH ( - 1 )
                 	__ADDWRN 16,17,1
0006ef cfb3      	RJMP _0x7B
                 _0x7C:
0006f0 9109      	LD   R16,Y+
0006f1 9119      	LD   R17,Y+
0006f2 9508      	RET
                 ; .FEND
                 ;#include "modules/ultrasonic.h"
                 _timer3_capt_isr:
                 ; .FSTART _timer3_capt_isr
0006f3 940e 1e1d 	CALL SUBOPT_0xC
0006f5 91e0 0080 	LDS  R30,128
0006f7 93e0 078e 	STS  _icr3,R30
0006f9 91e0 0081 	LDS  R30,129
                +
0006fb 93e0 078f+STS _icr3 + ( 1 ) , R30
                 	__PUTB1MN _icr3,1
0006fd 9b0f      	SBIS 0x1,7
0006fe c00e      	RJMP _0x7D
0006ff 91e0 078e 	LDS  R30,_icr3
000701 91f0 078f 	LDS  R31,_icr3+1
000703 93e0 0788 	STS  _iRisingEdge,R30
000705 93f0 0789 	STS  _iRisingEdge+1,R31
000707 91e0 008a 	LDS  R30,138
000709 7bef      	ANDI R30,0xBF
00070a 93e0 008a 	STS  138,R30
00070c c01f      	RJMP _0x7E
                 _0x7D:
00070d 91e0 078e 	LDS  R30,_icr3
00070f 91f0 078f 	LDS  R31,_icr3+1
000711 93e0 078a 	STS  _iFallingEdge,R30
000713 93f0 078b 	STS  _iFallingEdge+1,R31
000715 91e0 008a 	LDS  R30,138
000717 64e0      	ORI  R30,0x40
000718 93e0 008a 	STS  138,R30
00071a 91a0 0788 	LDS  R26,_iRisingEdge
00071c 91b0 0789 	LDS  R27,_iRisingEdge+1
00071e 91e0 078a 	LDS  R30,_iFallingEdge
000720 91f0 078b 	LDS  R31,_iFallingEdge+1
000722 1bea      	SUB  R30,R26
000723 0bfb      	SBC  R31,R27
000724 940e 23cc 	CALL __LSLW2
000726 93e0 078c 	STS  _iTime,R30
000728 93f0 078d 	STS  _iTime+1,R31
00072a 9468      	SET
00072b f822      	BLD  R2,2
                 _0x7E:
                 _0x38D:
00072c 91e9      	LD   R30,Y+
00072d bfef      	OUT  SREG,R30
00072e 91f9      	LD   R31,Y+
00072f 91e9      	LD   R30,Y+
000730 91b9      	LD   R27,Y+
000731 91a9      	LD   R26,Y+
000732 9518      	RETI
                 ; .FEND
                 _timer3_compa_isr:
                 ; .FSTART _timer3_compa_isr
000733 938a      	ST   -Y,R24
000734 93ea      	ST   -Y,R30
000735 b7ef      	IN   R30,SREG
000736 9ac1      	SBI  0x18,1
                +
000737 e385     +LDI R24 , LOW ( 53 )
                +__DELAY_USB_LOOP :
000738 958a     +DEC R24
000739 f7f1     +BRNE __DELAY_USB_LOOP
                 	__DELAY_USB 53
00073a 98c1      	CBI  0x18,1
00073b bfef      	OUT  SREG,R30
00073c 91e9      	LD   R30,Y+
00073d 9189      	LD   R24,Y+
00073e 9518      	RETI
                 ; .FEND
                 ;#include "modules/states/states.h"
                 _STATE_LINE_SENSOR:
                 ; .FSTART _STATE_LINE_SENSOR
00073f 940e 1d1c 	CALL _lcd_clear
000741 940e 1e49 	CALL SUBOPT_0x13
000743 f419      	BRNE _0x83
                +
000744 e1a4     +LDI R26 , LOW ( _0x84 + ( 0 ) )
000745 e0b5     +LDI R27 , HIGH ( _0x84 + ( 0 ) )
                 	__POINTW2MN _0x84,0
000746 c002      	RJMP _0x37E
                 _0x83:
                +
000747 e1ac     +LDI R26 , LOW ( _0x84 + ( 8 ) )
000748 e0b5     +LDI R27 , HIGH ( _0x84 + ( 8 ) )
                 	__POINTW2MN _0x84,8
                 _0x37E:
000749 940e 1d58 	CALL _lcd_puts
00074b 940e 1e5b 	CALL SUBOPT_0x16
00074d f419      	BRNE _0x86
                +
00074e e2a4     +LDI R26 , LOW ( _0x84 + ( 16 ) )
00074f e0b5     +LDI R27 , HIGH ( _0x84 + ( 16 ) )
                 	__POINTW2MN _0x84,16
000750 c002      	RJMP _0x37F
                 _0x86:
                +
000751 e2ae     +LDI R26 , LOW ( _0x84 + ( 26 ) )
000752 e0b5     +LDI R27 , HIGH ( _0x84 + ( 26 ) )
                 	__POINTW2MN _0x84,26
                 _0x37F:
000753 940e 1d58 	CALL _lcd_puts
000755 940e 1e8e 	CALL SUBOPT_0x1D
000757 940e 1e4f 	CALL SUBOPT_0x14
000759 f419      	BRNE _0x88
                +
00075a e3a8     +LDI R26 , LOW ( _0x84 + ( 36 ) )
00075b e0b5     +LDI R27 , HIGH ( _0x84 + ( 36 ) )
                 	__POINTW2MN _0x84,36
00075c c002      	RJMP _0x380
                 _0x88:
                +
00075d e4a1     +LDI R26 , LOW ( _0x84 + ( 45 ) )
00075e e0b5     +LDI R27 , HIGH ( _0x84 + ( 45 ) )
                 	__POINTW2MN _0x84,45
                 _0x380:
00075f 940e 1d58 	CALL _lcd_puts
000761 940e 1e55 	CALL SUBOPT_0x15
000763 f419      	BRNE _0x8A
                +
000764 e4aa     +LDI R26 , LOW ( _0x84 + ( 54 ) )
000765 e0b5     +LDI R27 , HIGH ( _0x84 + ( 54 ) )
                 	__POINTW2MN _0x84,54
000766 c002      	RJMP _0x381
                 _0x8A:
                +
000767 e5a3     +LDI R26 , LOW ( _0x84 + ( 63 ) )
000768 e0b5     +LDI R27 , HIGH ( _0x84 + ( 63 ) )
                 	__POINTW2MN _0x84,63
                 _0x381:
000769 940e 1d58 	CALL _lcd_puts
00076b 9508      	RET
                 ; .FEND
                 
                 	.DSEG
                 _0x84:
000514           	.BYTE 0x48
                 
                 	.CSEG
                 _STATE_ENGINE:
                 ; .FSTART _STATE_ENGINE
00076c 9761      	SBIW R28,17
                 ;	str -> Y+0
00076d 940e 1e93 	CALL SUBOPT_0x1E
00076f f439      	BRNE _0x8C
                +
000770 e5ac     +LDI R26 , LOW ( _0x8D + ( 0 ) )
000771 e0b5     +LDI R27 , HIGH ( _0x8D + ( 0 ) )
                 	__POINTW2MN _0x8D,0
000772 940e 1d58 	CALL _lcd_puts
000774 98df      	CBI  0x1B,7
000775 98dd      	CBI  0x1B,5
000776 c006      	RJMP _0x92
                 _0x8C:
                +
000777 e6ad     +LDI R26 , LOW ( _0x8D + ( 17 ) )
000778 e0b5     +LDI R27 , HIGH ( _0x8D + ( 17 ) )
                 	__POINTW2MN _0x8D,17
000779 940e 1d58 	CALL _lcd_puts
00077b 9adf      	SBI  0x1B,7
00077c 9add      	SBI  0x1B,5
                 _0x92:
00077d 940e 1e8e 	CALL SUBOPT_0x1D
                +
00077f e7ae     +LDI R26 , LOW ( _0x8D + ( 34 ) )
000780 e0b5     +LDI R27 , HIGH ( _0x8D + ( 34 ) )
                 	__POINTW2MN _0x8D,34
000781 940e 1ea1 	CALL SUBOPT_0x1F
                +
000783 e8a1     +LDI R26 , LOW ( _0x8D + ( 37 ) )
000784 e0b5     +LDI R27 , HIGH ( _0x8D + ( 37 ) )
                 	__POINTW2MN _0x8D,37
000785 940e 1eb0 	CALL SUBOPT_0x20
000787 99ce      	SBIC 0x19,6
000788 c002      	RJMP _0x97
000789 940e 1ebf 	CALL SUBOPT_0x21
                 _0x97:
00078b 9661      	ADIW R28,17
00078c 9508      	RET
                 ; .FEND
                 
                 	.DSEG
                 _0x8D:
00055c           	.BYTE 0x29
                 
                 	.CSEG
                 _STATE_ENGINE_DIR:
                 ; .FSTART _STATE_ENGINE_DIR
00078d 972a      	SBIW R28,10
                 ;	str -> Y+0
00078e 940e 1e93 	CALL SUBOPT_0x1E
000790 f439      	BRNE _0x98
                +
000791 e8a5     +LDI R26 , LOW ( _0x99 + ( 0 ) )
000792 e0b5     +LDI R27 , HIGH ( _0x99 + ( 0 ) )
                 	__POINTW2MN _0x99,0
000793 940e 1d58 	CALL _lcd_puts
000795 98df      	CBI  0x1B,7
000796 9add      	SBI  0x1B,5
000797 c006      	RJMP _0x9E
                 _0x98:
                +
000798 e9a5     +LDI R26 , LOW ( _0x99 + ( 16 ) )
000799 e0b5     +LDI R27 , HIGH ( _0x99 + ( 16 ) )
                 	__POINTW2MN _0x99,16
00079a 940e 1d58 	CALL _lcd_puts
00079c 9adf      	SBI  0x1B,7
00079d 98dd      	CBI  0x1B,5
                 _0x9E:
00079e 940e 1e8e 	CALL SUBOPT_0x1D
                +
0007a0 eaa4     +LDI R26 , LOW ( _0x99 + ( 31 ) )
0007a1 e0b5     +LDI R27 , HIGH ( _0x99 + ( 31 ) )
                 	__POINTW2MN _0x99,31
0007a2 940e 1ea1 	CALL SUBOPT_0x1F
                +
0007a4 eaa7     +LDI R26 , LOW ( _0x99 + ( 34 ) )
0007a5 e0b5     +LDI R27 , HIGH ( _0x99 + ( 34 ) )
                 	__POINTW2MN _0x99,34
0007a6 940e 1eb0 	CALL SUBOPT_0x20
0007a8 99ce      	SBIC 0x19,6
0007a9 c002      	RJMP _0xA3
0007aa 940e 1ebf 	CALL SUBOPT_0x21
                 _0xA3:
0007ac 962a      	ADIW R28,10
0007ad 9508      	RET
                 ; .FEND
                 
                 	.DSEG
                 _0x99:
000585           	.BYTE 0x26
                 
                 	.CSEG
                 _STATE_DISTANCE_SENSOR:
                 ; .FSTART _STATE_DISTANCE_SENSOR
0007ae 940e 1d1c 	CALL _lcd_clear
0007b0 99b0      	SBIC 0x16,0
0007b1 c003      	RJMP _0xA4
                +
0007b2 eaab     +LDI R26 , LOW ( _0xA5 + ( 0 ) )
0007b3 e0b5     +LDI R27 , HIGH ( _0xA5 + ( 0 ) )
                 	__POINTW2MN _0xA5,0
0007b4 c002      	RJMP _0x382
                 _0xA4:
                +
0007b5 eba3     +LDI R26 , LOW ( _0xA5 + ( 8 ) )
0007b6 e0b5     +LDI R27 , HIGH ( _0xA5 + ( 8 ) )
                 	__POINTW2MN _0xA5,8
                 _0x382:
0007b7 940e 1d58 	CALL _lcd_puts
0007b9 99b6      	SBIC 0x16,6
0007ba c003      	RJMP _0xA7
                +
0007bb ebab     +LDI R26 , LOW ( _0xA5 + ( 16 ) )
0007bc e0b5     +LDI R27 , HIGH ( _0xA5 + ( 16 ) )
                 	__POINTW2MN _0xA5,16
0007bd c002      	RJMP _0x383
                 _0xA7:
                +
0007be eca5     +LDI R26 , LOW ( _0xA5 + ( 26 ) )
0007bf e0b5     +LDI R27 , HIGH ( _0xA5 + ( 26 ) )
                 	__POINTW2MN _0xA5,26
                 _0x383:
0007c0 940e 1d58 	CALL _lcd_puts
0007c2 940e 1e8e 	CALL SUBOPT_0x1D
0007c4 99b2      	SBIC 0x16,2
0007c5 c003      	RJMP _0xA9
                +
0007c6 ecaf     +LDI R26 , LOW ( _0xA5 + ( 36 ) )
0007c7 e0b5     +LDI R27 , HIGH ( _0xA5 + ( 36 ) )
                 	__POINTW2MN _0xA5,36
0007c8 c002      	RJMP _0x384
                 _0xA9:
                +
0007c9 eda8     +LDI R26 , LOW ( _0xA5 + ( 45 ) )
0007ca e0b5     +LDI R27 , HIGH ( _0xA5 + ( 45 ) )
                 	__POINTW2MN _0xA5,45
                 _0x384:
0007cb 940e 1d58 	CALL _lcd_puts
0007cd 99b4      	SBIC 0x16,4
0007ce c003      	RJMP _0xAB
                +
0007cf eea1     +LDI R26 , LOW ( _0xA5 + ( 54 ) )
0007d0 e0b5     +LDI R27 , HIGH ( _0xA5 + ( 54 ) )
                 	__POINTW2MN _0xA5,54
0007d1 c002      	RJMP _0x385
                 _0xAB:
                +
0007d2 eeaa     +LDI R26 , LOW ( _0xA5 + ( 63 ) )
0007d3 e0b5     +LDI R27 , HIGH ( _0xA5 + ( 63 ) )
                 	__POINTW2MN _0xA5,63
                 _0x385:
0007d4 940e 1d58 	CALL _lcd_puts
0007d6 9508      	RET
                 ; .FEND
                 
                 	.DSEG
                 _0xA5:
0005ab           	.BYTE 0x48
                 
                 	.CSEG
                 _STATE_LIGHTSENSOR:
                 ; .FSTART _STATE_LIGHTSENSOR
0007d7 972a      	SBIW R28,10
0007d8 940e 2440 	CALL __SAVELOCR4
                 ;	right -> R16,R17
                 ;	left -> R18,R19
                 ;	str -> Y+4
0007da 940e 1ecf 	CALL SUBOPT_0x22
0007dc 018f      	MOVW R16,R30
0007dd 940e 1ed4 	CALL SUBOPT_0x23
0007df 019f      	MOVW R18,R30
0007e0 940e 1d1c 	CALL _lcd_clear
                +
0007e2 efa3     +LDI R26 , LOW ( _0xAD + ( 0 ) )
0007e3 e0b5     +LDI R27 , HIGH ( _0xAD + ( 0 ) )
                 	__POINTW2MN _0xAD,0
0007e4 940e 1d58 	CALL _lcd_puts
0007e6 933a      	ST   -Y,R19
0007e7 932a      	ST   -Y,R18
0007e8 940e 1ed9 	CALL SUBOPT_0x24
0007ea 940e 1e29 	CALL SUBOPT_0xE
                +
0007ec efa9     +LDI R26 , LOW ( _0xAD + ( 6 ) )
0007ed e0b5     +LDI R27 , HIGH ( _0xAD + ( 6 ) )
                 	__POINTW2MN _0xAD,6
0007ee 940e 1d58 	CALL _lcd_puts
0007f0 931a      	ST   -Y,R17
0007f1 930a      	ST   -Y,R16
0007f2 940e 1ed9 	CALL SUBOPT_0x24
0007f4 940e 1d58 	CALL _lcd_puts
0007f6 940e 2447 	CALL __LOADLOCR4
0007f8 962e      	ADIW R28,14
0007f9 9508      	RET
                 ; .FEND
                 
                 	.DSEG
                 _0xAD:
0005f3           	.BYTE 0xD
                 
                 	.CSEG
                 _STATE_WIICAM:
                 ; .FSTART _STATE_WIICAM
0007fa 940e 1ee0 	CALL SUBOPT_0x25
                 ;	iWII -> R17
0007fc e010      	LDI  R17,LOW(0)
                 _0xAF:
0007fd 3014      	CPI  R17,4
0007fe f008      	BRLO PC+2
0007ff c05f      	RJMP _0xB0
000800 3014      	CPI  R17,4
000801 f558      	BRSH _0xB1
000802 940e 1ee6 	CALL SUBOPT_0x26
000804 3fef      	CPI  R30,LOW(0x3FF)
000805 e0a3      	LDI  R26,HIGH(0x3FF)
000806 07fa      	CPC  R31,R26
000807 f031      	BREQ _0xB3
000808 940e 1ef1 	CALL SUBOPT_0x27
00080a 3fef      	CPI  R30,LOW(0x3FF)
00080b e0a3      	LDI  R26,HIGH(0x3FF)
00080c 07fa      	CPC  R31,R26
00080d f409      	BRNE _0xB2
                 _0xB3:
00080e c01d      	RJMP _0xB5
                 _0xB2:
00080f 940e 1ee6 	CALL SUBOPT_0x26
000811 940e 1efc 	CALL SUBOPT_0x28
000813 e1a4      	LDI  R26,LOW(20)
000814 021a      	MULS R17,R26
000815 920a      	ST   -Y,R0
000816 940e 1f04 	CALL SUBOPT_0x29
000818 940e 1ef1 	CALL SUBOPT_0x27
00081a 940e 1f0b 	CALL SUBOPT_0x2A
00081c e1a4      	LDI  R26,LOW(20)
00081d 021a      	MULS R17,R26
00081e 01f0      	MOVW R30,R0
00081f 5fe8      	SUBI R30,-LOW(8)
000820 93ea      	ST   -Y,R30
000821 940e 1f04 	CALL SUBOPT_0x29
000823 940e 1f13 	CALL SUBOPT_0x2B
000825 e1a4      	LDI  R26,LOW(20)
000826 021a      	MULS R17,R26
000827 01f0      	MOVW R30,R0
000828 5fe0      	SUBI R30,-LOW(16)
000829 93ea      	ST   -Y,R30
00082a 940e 1f04 	CALL SUBOPT_0x29
                 _0xB5:
00082c c030      	RJMP _0xB6
                 _0xB1:
00082d 940e 1ee6 	CALL SUBOPT_0x26
00082f 3fef      	CPI  R30,LOW(0x3FF)
000830 e0a3      	LDI  R26,HIGH(0x3FF)
000831 07fa      	CPC  R31,R26
000832 f031      	BREQ _0xB8
000833 940e 1ef1 	CALL SUBOPT_0x27
000835 3fef      	CPI  R30,LOW(0x3FF)
000836 e0a3      	LDI  R26,HIGH(0x3FF)
000837 07fa      	CPC  R31,R26
000838 f409      	BRNE _0xB7
                 _0xB8:
000839 c023      	RJMP _0xBA
                 _0xB7:
00083a 940e 1ee6 	CALL SUBOPT_0x26
00083c 940e 1efc 	CALL SUBOPT_0x28
00083e 2fe1      	MOV  R30,R17
00083f 50e2      	SUBI R30,LOW(2)
000840 e1a4      	LDI  R26,LOW(20)
000841 02ea      	MULS R30,R26
000842 920a      	ST   -Y,R0
000843 940e 1f1f 	CALL SUBOPT_0x2C
000845 940e 1ef1 	CALL SUBOPT_0x27
000847 940e 1f0b 	CALL SUBOPT_0x2A
000849 2fe1      	MOV  R30,R17
00084a 50e2      	SUBI R30,LOW(2)
00084b e1a4      	LDI  R26,LOW(20)
00084c 02ea      	MULS R30,R26
00084d 01f0      	MOVW R30,R0
00084e 5fe8      	SUBI R30,-LOW(8)
00084f 93ea      	ST   -Y,R30
000850 940e 1f1f 	CALL SUBOPT_0x2C
000852 940e 1f13 	CALL SUBOPT_0x2B
000854 2fe1      	MOV  R30,R17
000855 50e2      	SUBI R30,LOW(2)
000856 e1a4      	LDI  R26,LOW(20)
000857 02ea      	MULS R30,R26
000858 01f0      	MOVW R30,R0
000859 5fe0      	SUBI R30,-LOW(16)
00085a 93ea      	ST   -Y,R30
00085b 940e 1f1f 	CALL SUBOPT_0x2C
                 _0xBA:
                 _0xB6:
00085d 5f1f      	SUBI R17,-1
00085e cf9e      	RJMP _0xAF
                 _0xB0:
00085f 940e 1f26 	CALL SUBOPT_0x2D
000861 9bc3      	SBIS 0x18,3
000862 c002      	RJMP _0xBB
000863 98c3      	CBI  0x18,3
000864 c001      	RJMP _0xBC
                 _0xBB:
000865 9ac3      	SBI  0x18,3
                 _0xBC:
                 _0x20E0006:
000866 9119      	LD   R17,Y+
000867 9508      	RET
                 ; .FEND
                 _STATE_IRTOWER:
                 ; .FSTART _STATE_IRTOWER
000868 dc2b      	RCALL _rc5_display
000869 9508      	RET
                 ; .FEND
                 _STATE_SERVO:
                 ; .FSTART _STATE_SERVO
00086a 940e 1d1c 	CALL _lcd_clear
00086c dce5      	RCALL _fnDisplay
00086d eca8      	LDI  R26,LOW(200)
                 _0x20E0005:
00086e e0b0      	LDI  R27,0
00086f 940e 22b0 	CALL _delay_ms
000871 9508      	RET
                 ; .FEND
                 _STATE_ULTRASONIC:
                 ; .FSTART _STATE_ULTRASONIC
000872 fe22      	SBRS R2,2
000873 c029      	RJMP _0xBD
000874 940e 1e8e 	CALL SUBOPT_0x1D
000876 91a0 078c 	LDS  R26,_iTime
000878 91b0 078d 	LDS  R27,_iTime+1
00087a 37a1      	CPI  R26,LOW(0x1771)
00087b e1e7      	LDI  R30,HIGH(0x1771)
00087c 07be      	CPC  R27,R30
00087d f4b8      	BRSH _0xBE
00087e 940e 1d1c 	CALL _lcd_clear
                +
000880 e8ad     +LDI R26 , LOW ( 2 * _0x0 + ( 213 ) )
000881 e0b1     +LDI R27 , HIGH ( 2 * _0x0 + ( 213 ) )
                 	__POINTW2FN _0x0,213
000882 940e 1d67 	CALL _lcd_putsf
000884 940e 1e8e 	CALL SUBOPT_0x1D
000886 940e 1f2a 	CALL SUBOPT_0x2E
000888 940e 22e9 	CALL __CFD1
00088a 93fa      	ST   -Y,R31
00088b 93ea      	ST   -Y,R30
00088c e7a7      	LDI  R26,LOW(_strULTRA)
00088d e0b7      	LDI  R27,HIGH(_strULTRA)
00088e 940e 1ae2 	CALL _itoa
000890 e7a7      	LDI  R26,LOW(_strULTRA)
000891 e0b7      	LDI  R27,HIGH(_strULTRA)
000892 940e 1d58 	CALL _lcd_puts
000894 c006      	RJMP _0xBF
                 _0xBE:
000895 940e 1d1c 	CALL _lcd_clear
                +
000897 e9ad     +LDI R26 , LOW ( 2 * _0x0 + ( 229 ) )
000898 e0b1     +LDI R27 , HIGH ( 2 * _0x0 + ( 229 ) )
                 	__POINTW2FN _0x0,229
000899 940e 1d67 	CALL _lcd_putsf
                 _0xBF:
00089b 94e8      	CLT
00089c f822      	BLD  R2,2
                 _0xBD:
00089d 9508      	RET
                 ; .FEND
                 _STATE_VOR:
                 ; .FSTART _STATE_VOR
00089e 940e 1f3b 	CALL SUBOPT_0x2F
0008a0 940e 1f48 	CALL SUBOPT_0x30
0008a2 940e 2434 	CALL __CPD12
0008a4 f431      	BRNE _0xC0
0008a5 940e 1f51 	CALL SUBOPT_0x31
0008a7 940e 1f51 	CALL SUBOPT_0x31
0008a9 940e 1f56 	CALL SUBOPT_0x32
                 _0xC0:
0008ab 940e 1f48 	CALL SUBOPT_0x30
0008ad 940e 2439 	CALL __CPD21
0008af f434      	BRGE _0xC1
0008b0 940e 1f51 	CALL SUBOPT_0x31
0008b2 940e 1f5e 	CALL SUBOPT_0x33
0008b4 940e 1f56 	CALL SUBOPT_0x32
                 _0xC1:
0008b6 940e 1f48 	CALL SUBOPT_0x30
0008b8 940e 2434 	CALL __CPD12
0008ba f434      	BRGE _0xC2
0008bb 940e 1f5e 	CALL SUBOPT_0x33
0008bd 940e 1f51 	CALL SUBOPT_0x31
0008bf 940e 1f56 	CALL SUBOPT_0x32
                 _0xC2:
0008c1 9508      	RET
                 ; .FEND
                 _STATE_ZUR:
                 ; .FSTART _STATE_ZUR
0008c2 940e 1f3b 	CALL SUBOPT_0x2F
0008c4 940e 1f48 	CALL SUBOPT_0x30
0008c6 940e 2434 	CALL __CPD12
0008c8 f431      	BRNE _0xC3
0008c9 940e 1f51 	CALL SUBOPT_0x31
0008cb 940e 1f51 	CALL SUBOPT_0x31
0008cd 940e 1f63 	CALL SUBOPT_0x34
                 _0xC3:
0008cf 940e 1f48 	CALL SUBOPT_0x30
0008d1 940e 2439 	CALL __CPD21
0008d3 f434      	BRGE _0xC4
0008d4 940e 1f51 	CALL SUBOPT_0x31
0008d6 940e 1f5e 	CALL SUBOPT_0x33
0008d8 940e 1f63 	CALL SUBOPT_0x34
                 _0xC4:
0008da 940e 1f48 	CALL SUBOPT_0x30
0008dc 940e 2434 	CALL __CPD12
0008de f434      	BRGE _0xC5
0008df 940e 1f5e 	CALL SUBOPT_0x33
0008e1 940e 1f51 	CALL SUBOPT_0x31
0008e3 940e 1f63 	CALL SUBOPT_0x34
                 _0xC5:
0008e5 9508      	RET
                 ; .FEND
                 _STATE_LINKS:
                 ; .FSTART _STATE_LINKS
0008e6 940e 1f6b 	CALL SUBOPT_0x35
0008e8 e6e4      	LDI  R30,LOW(100)
0008e9 e0f0      	LDI  R31,HIGH(100)
0008ea c004      	RJMP _0x20E0004
                 ; .FEND
                 _STATE_RECHTS:
                 ; .FSTART _STATE_RECHTS
0008eb 940e 1f51 	CALL SUBOPT_0x31
0008ed e0e0      	LDI  R30,LOW(0)
0008ee e0f0      	LDI  R31,HIGH(0)
                 _0x20E0004:
0008ef 93fa      	ST   -Y,R31
0008f0 93ea      	ST   -Y,R30
0008f1 940e 1f56 	CALL SUBOPT_0x32
0008f3 9508      	RET
                 ; .FEND
                 _STATE_90RECHTS:
                 ; .FSTART _STATE_90RECHTS
0008f4 940e 1dfe 	CALL SUBOPT_0x7
0008f6 940e 1deb 	CALL SUBOPT_0x5
                 _0xC7:
0008f8 e0e0      	LDI  R30,LOW(0)
0008f9 93e0 072d 	STS  _ipwmcompareleft,R30
0008fb 93e0 072e 	STS  _ipwmcompareleft+1,R30
0008fd e6e4      	LDI  R30,LOW(100)
0008fe e0f0      	LDI  R31,HIGH(100)
0008ff 940e 1e18 	CALL SUBOPT_0xB
000901 98df      	CBI  0x1B,7
000902 9add      	SBI  0x1B,5
000903 940e 1f70 	CALL SUBOPT_0x36
                +
000905 e0a0     +LDI R26 , LOW ( _0xCD + ( 0 ) )
000906 e0b6     +LDI R27 , HIGH ( _0xCD + ( 0 ) )
                 	__POINTW2MN _0xCD,0
000907 940e 1f73 	CALL SUBOPT_0x37
                +
000909 e0a3     +LDI R26 , LOW ( _0xCD + ( 3 ) )
00090a e0b6     +LDI R27 , HIGH ( _0xCD + ( 3 ) )
                 	__POINTW2MN _0xCD,3
00090b 940e 1f83 	CALL SUBOPT_0x38
00090d 940e 1dcb 	CALL SUBOPT_0x1
00090f 940e 1f93 	CALL SUBOPT_0x39
000911 f334      	BRLT _0xC7
000912 9508      	RET
                 ; .FEND
                 
                 	.DSEG
                 _0xCD:
000600           	.BYTE 0x7
                 
                 	.CSEG
                 _STATE_90LINKS:
                 ; .FSTART _STATE_90LINKS
000913 940e 1dfe 	CALL SUBOPT_0x7
000915 940e 1deb 	CALL SUBOPT_0x5
                 _0xCF:
000917 e6e4      	LDI  R30,LOW(100)
000918 e0f0      	LDI  R31,HIGH(100)
000919 940e 1e13 	CALL SUBOPT_0xA
00091b e0e0      	LDI  R30,LOW(0)
00091c 93e0 072f 	STS  _ipwmcompareright,R30
00091e 93e0 0730 	STS  _ipwmcompareright+1,R30
000920 9adf      	SBI  0x1B,7
000921 98dd      	CBI  0x1B,5
000922 940e 1f70 	CALL SUBOPT_0x36
                +
000924 e0a7     +LDI R26 , LOW ( _0xD5 + ( 0 ) )
000925 e0b6     +LDI R27 , HIGH ( _0xD5 + ( 0 ) )
                 	__POINTW2MN _0xD5,0
000926 940e 1f73 	CALL SUBOPT_0x37
                +
000928 e0aa     +LDI R26 , LOW ( _0xD5 + ( 3 ) )
000929 e0b6     +LDI R27 , HIGH ( _0xD5 + ( 3 ) )
                 	__POINTW2MN _0xD5,3
00092a 940e 1f83 	CALL SUBOPT_0x38
00092c 940e 1df5 	CALL SUBOPT_0x6
00092e 940e 1f93 	CALL SUBOPT_0x39
000930 f334      	BRLT _0xCF
000931 9508      	RET
                 ; .FEND
                 
                 	.DSEG
                 _0xD5:
000607           	.BYTE 0x7
                 
                 	.CSEG
                 _detector:
                 ; .FSTART _detector
000932 9bcc      	SBIS 0x19,4
000933 c00a      	RJMP _0xD7
000934 9bce      	SBIS 0x19,6
000935 c008      	RJMP _0xD7
000936 9bb0      	SBIS 0x16,0
000937 c006      	RJMP _0xD7
000938 9bb6      	SBIS 0x16,6
000939 c004      	RJMP _0xD7
00093a 9bb2      	SBIS 0x16,2
00093b c002      	RJMP _0xD7
00093c 99b4      	SBIC 0x16,4
00093d c001      	RJMP _0xD8
                 _0xD7:
00093e c005      	RJMP _0xD6
                 _0xD8:
00093f e0e0      	LDI  R30,LOW(0)
000940 93e0 07f6 	STS  _detector_value,R30
000942 93e0 07f7 	STS  _detector_value+1,R30
                 _0xD6:
000944 9bcc      	SBIS 0x19,4
000945 c00a      	RJMP _0xDA
000946 9bce      	SBIS 0x19,6
000947 c008      	RJMP _0xDA
000948 9bb0      	SBIS 0x16,0
000949 c006      	RJMP _0xDA
00094a 9bb6      	SBIS 0x16,6
00094b c004      	RJMP _0xDA
00094c 9bb2      	SBIS 0x16,2
00094d c002      	RJMP _0xDA
00094e 9bb4      	SBIS 0x16,4
00094f c001      	RJMP _0xDB
                 _0xDA:
000950 c002      	RJMP _0xD9
                 _0xDB:
000951 940e 1f9b 	CALL SUBOPT_0x3A
                 _0xD9:
000953 9bcc      	SBIS 0x19,4
000954 c00a      	RJMP _0xDD
000955 9bce      	SBIS 0x19,6
000956 c008      	RJMP _0xDD
000957 9bb0      	SBIS 0x16,0
000958 c006      	RJMP _0xDD
000959 9bb6      	SBIS 0x16,6
00095a c004      	RJMP _0xDD
00095b 99b2      	SBIC 0x16,2
00095c c002      	RJMP _0xDD
00095d 99b4      	SBIC 0x16,4
00095e c001      	RJMP _0xDE
                 _0xDD:
00095f c002      	RJMP _0xDC
                 _0xDE:
000960 940e 1fa2 	CALL SUBOPT_0x3B
                 _0xDC:
000962 9bcc      	SBIS 0x19,4
000963 c00a      	RJMP _0xE0
000964 9bce      	SBIS 0x19,6
000965 c008      	RJMP _0xE0
000966 9bb0      	SBIS 0x16,0
000967 c006      	RJMP _0xE0
000968 99b6      	SBIC 0x16,6
000969 c004      	RJMP _0xE0
00096a 9bb2      	SBIS 0x16,2
00096b c002      	RJMP _0xE0
00096c 99b4      	SBIC 0x16,4
00096d c001      	RJMP _0xE1
                 _0xE0:
00096e c002      	RJMP _0xDF
                 _0xE1:
00096f 940e 1fa9 	CALL SUBOPT_0x3C
                 _0xDF:
000971 9bcc      	SBIS 0x19,4
000972 c00a      	RJMP _0xE3
000973 9bce      	SBIS 0x19,6
000974 c008      	RJMP _0xE3
000975 99b0      	SBIC 0x16,0
000976 c006      	RJMP _0xE3
000977 9bb6      	SBIS 0x16,6
000978 c004      	RJMP _0xE3
000979 9bb2      	SBIS 0x16,2
00097a c002      	RJMP _0xE3
00097b 99b4      	SBIC 0x16,4
00097c c001      	RJMP _0xE4
                 _0xE3:
00097d c002      	RJMP _0xE2
                 _0xE4:
00097e 940e 1fb0 	CALL SUBOPT_0x3D
                 _0xE2:
000980 9bcc      	SBIS 0x19,4
000981 c00a      	RJMP _0xE6
000982 99ce      	SBIC 0x19,6
000983 c008      	RJMP _0xE6
000984 9bb0      	SBIS 0x16,0
000985 c006      	RJMP _0xE6
000986 9bb6      	SBIS 0x16,6
000987 c004      	RJMP _0xE6
000988 9bb2      	SBIS 0x16,2
000989 c002      	RJMP _0xE6
00098a 99b4      	SBIC 0x16,4
00098b c001      	RJMP _0xE7
                 _0xE6:
00098c c002      	RJMP _0xE5
                 _0xE7:
00098d 940e 1fb7 	CALL SUBOPT_0x3E
                 _0xE5:
00098f 99cc      	SBIC 0x19,4
000990 c00a      	RJMP _0xE9
000991 9bce      	SBIS 0x19,6
000992 c008      	RJMP _0xE9
000993 9bb0      	SBIS 0x16,0
000994 c006      	RJMP _0xE9
000995 9bb6      	SBIS 0x16,6
000996 c004      	RJMP _0xE9
000997 9bb2      	SBIS 0x16,2
000998 c002      	RJMP _0xE9
000999 99b4      	SBIC 0x16,4
00099a c001      	RJMP _0xEA
                 _0xE9:
00099b c002      	RJMP _0xE8
                 _0xEA:
00099c 940e 1fbe 	CALL SUBOPT_0x3F
                 _0xE8:
00099e 9bcc      	SBIS 0x19,4
00099f c00a      	RJMP _0xEC
0009a0 9bce      	SBIS 0x19,6
0009a1 c008      	RJMP _0xEC
0009a2 9bb0      	SBIS 0x16,0
0009a3 c006      	RJMP _0xEC
0009a4 9bb6      	SBIS 0x16,6
0009a5 c004      	RJMP _0xEC
0009a6 99b2      	SBIC 0x16,2
0009a7 c002      	RJMP _0xEC
0009a8 9bb4      	SBIS 0x16,4
0009a9 c001      	RJMP _0xED
                 _0xEC:
0009aa c002      	RJMP _0xEB
                 _0xED:
0009ab 940e 1fc5 	CALL SUBOPT_0x40
                 _0xEB:
0009ad 9bcc      	SBIS 0x19,4
0009ae c00a      	RJMP _0xEF
0009af 9bce      	SBIS 0x19,6
0009b0 c008      	RJMP _0xEF
0009b1 9bb0      	SBIS 0x16,0
0009b2 c006      	RJMP _0xEF
0009b3 99b6      	SBIC 0x16,6
0009b4 c004      	RJMP _0xEF
0009b5 99b2      	SBIC 0x16,2
0009b6 c002      	RJMP _0xEF
0009b7 99b4      	SBIC 0x16,4
0009b8 c001      	RJMP _0xF0
                 _0xEF:
0009b9 c002      	RJMP _0xEE
                 _0xF0:
0009ba 940e 1fcc 	CALL SUBOPT_0x41
                 _0xEE:
0009bc 9bcc      	SBIS 0x19,4
0009bd c00a      	RJMP _0xF2
0009be 9bce      	SBIS 0x19,6
0009bf c008      	RJMP _0xF2
0009c0 99b0      	SBIC 0x16,0
0009c1 c006      	RJMP _0xF2
0009c2 99b6      	SBIC 0x16,6
0009c3 c004      	RJMP _0xF2
0009c4 9bb2      	SBIS 0x16,2
0009c5 c002      	RJMP _0xF2
0009c6 99b4      	SBIC 0x16,4
0009c7 c001      	RJMP _0xF3
                 _0xF2:
0009c8 c002      	RJMP _0xF1
                 _0xF3:
0009c9 940e 1fd3 	CALL SUBOPT_0x42
                 _0xF1:
0009cb 9bcc      	SBIS 0x19,4
0009cc c00a      	RJMP _0xF5
0009cd 99ce      	SBIC 0x19,6
0009ce c008      	RJMP _0xF5
0009cf 99b0      	SBIC 0x16,0
0009d0 c006      	RJMP _0xF5
0009d1 9bb6      	SBIS 0x16,6
0009d2 c004      	RJMP _0xF5
0009d3 9bb2      	SBIS 0x16,2
0009d4 c002      	RJMP _0xF5
0009d5 99b4      	SBIC 0x16,4
0009d6 c001      	RJMP _0xF6
                 _0xF5:
0009d7 c002      	RJMP _0xF4
                 _0xF6:
0009d8 940e 1fda 	CALL SUBOPT_0x43
                 _0xF4:
0009da 99cc      	SBIC 0x19,4
0009db c00a      	RJMP _0xF8
0009dc 99ce      	SBIC 0x19,6
0009dd c008      	RJMP _0xF8
0009de 9bb0      	SBIS 0x16,0
0009df c006      	RJMP _0xF8
0009e0 9bb6      	SBIS 0x16,6
0009e1 c004      	RJMP _0xF8
0009e2 9bb2      	SBIS 0x16,2
0009e3 c002      	RJMP _0xF8
0009e4 99b4      	SBIC 0x16,4
0009e5 c001      	RJMP _0xF9
                 _0xF8:
0009e6 c002      	RJMP _0xF7
                 _0xF9:
0009e7 940e 1fe1 	CALL SUBOPT_0x44
                 _0xF7:
0009e9 9bcc      	SBIS 0x19,4
0009ea c00a      	RJMP _0xFB
0009eb 9bce      	SBIS 0x19,6
0009ec c008      	RJMP _0xFB
0009ed 9bb0      	SBIS 0x16,0
0009ee c006      	RJMP _0xFB
0009ef 99b6      	SBIC 0x16,6
0009f0 c004      	RJMP _0xFB
0009f1 99b2      	SBIC 0x16,2
0009f2 c002      	RJMP _0xFB
0009f3 9bb4      	SBIS 0x16,4
0009f4 c001      	RJMP _0xFC
                 _0xFB:
0009f5 c002      	RJMP _0xFA
                 _0xFC:
0009f6 940e 1fe8 	CALL SUBOPT_0x45
                 _0xFA:
0009f8 9bcc      	SBIS 0x19,4
0009f9 c00a      	RJMP _0xFE
0009fa 9bce      	SBIS 0x19,6
0009fb c008      	RJMP _0xFE
0009fc 99b0      	SBIC 0x16,0
0009fd c006      	RJMP _0xFE
0009fe 99b6      	SBIC 0x16,6
0009ff c004      	RJMP _0xFE
000a00 99b2      	SBIC 0x16,2
000a01 c002      	RJMP _0xFE
000a02 99b4      	SBIC 0x16,4
000a03 c001      	RJMP _0xFF
                 _0xFE:
000a04 c002      	RJMP _0xFD
                 _0xFF:
000a05 940e 1fef 	CALL SUBOPT_0x46
                 _0xFD:
000a07 9bcc      	SBIS 0x19,4
000a08 c00a      	RJMP _0x101
000a09 99ce      	SBIC 0x19,6
000a0a c008      	RJMP _0x101
000a0b 99b0      	SBIC 0x16,0
000a0c c006      	RJMP _0x101
000a0d 99b6      	SBIC 0x16,6
000a0e c004      	RJMP _0x101
000a0f 9bb2      	SBIS 0x16,2
000a10 c002      	RJMP _0x101
000a11 99b4      	SBIC 0x16,4
000a12 c001      	RJMP _0x102
                 _0x101:
000a13 c002      	RJMP _0x100
                 _0x102:
000a14 940e 1ff6 	CALL SUBOPT_0x47
                 _0x100:
000a16 99cc      	SBIC 0x19,4
000a17 c00a      	RJMP _0x104
000a18 99ce      	SBIC 0x19,6
000a19 c008      	RJMP _0x104
000a1a 99b0      	SBIC 0x16,0
000a1b c006      	RJMP _0x104
000a1c 9bb6      	SBIS 0x16,6
000a1d c004      	RJMP _0x104
000a1e 9bb2      	SBIS 0x16,2
000a1f c002      	RJMP _0x104
000a20 99b4      	SBIC 0x16,4
000a21 c001      	RJMP _0x105
                 _0x104:
000a22 c002      	RJMP _0x103
                 _0x105:
000a23 940e 1ffd 	CALL SUBOPT_0x48
                 _0x103:
000a25 9bcc      	SBIS 0x19,4
000a26 c00a      	RJMP _0x107
000a27 9bce      	SBIS 0x19,6
000a28 c008      	RJMP _0x107
000a29 99b0      	SBIC 0x16,0
000a2a c006      	RJMP _0x107
000a2b 99b6      	SBIC 0x16,6
000a2c c004      	RJMP _0x107
000a2d 99b2      	SBIC 0x16,2
000a2e c002      	RJMP _0x107
000a2f 9bb4      	SBIS 0x16,4
000a30 c001      	RJMP _0x108
                 _0x107:
000a31 c002      	RJMP _0x106
                 _0x108:
000a32 940e 2004 	CALL SUBOPT_0x49
                 _0x106:
000a34 9bcc      	SBIS 0x19,4
000a35 c00a      	RJMP _0x10A
000a36 99ce      	SBIC 0x19,6
000a37 c008      	RJMP _0x10A
000a38 99b0      	SBIC 0x16,0
000a39 c006      	RJMP _0x10A
000a3a 99b6      	SBIC 0x16,6
000a3b c004      	RJMP _0x10A
000a3c 99b2      	SBIC 0x16,2
000a3d c002      	RJMP _0x10A
000a3e 99b4      	SBIC 0x16,4
000a3f c001      	RJMP _0x10B
                 _0x10A:
000a40 c002      	RJMP _0x109
                 _0x10B:
000a41 940e 200b 	CALL SUBOPT_0x4A
                 _0x109:
000a43 99cc      	SBIC 0x19,4
000a44 c00a      	RJMP _0x10D
000a45 99ce      	SBIC 0x19,6
000a46 c008      	RJMP _0x10D
000a47 99b0      	SBIC 0x16,0
000a48 c006      	RJMP _0x10D
000a49 99b6      	SBIC 0x16,6
000a4a c004      	RJMP _0x10D
000a4b 9bb2      	SBIS 0x16,2
000a4c c002      	RJMP _0x10D
000a4d 99b4      	SBIC 0x16,4
000a4e c001      	RJMP _0x10E
                 _0x10D:
000a4f c002      	RJMP _0x10C
                 _0x10E:
000a50 940e 2012 	CALL SUBOPT_0x4B
                 _0x10C:
000a52 9bcc      	SBIS 0x19,4
000a53 c00a      	RJMP _0x110
000a54 99ce      	SBIC 0x19,6
000a55 c008      	RJMP _0x110
000a56 99b0      	SBIC 0x16,0
000a57 c006      	RJMP _0x110
000a58 99b6      	SBIC 0x16,6
000a59 c004      	RJMP _0x110
000a5a 99b2      	SBIC 0x16,2
000a5b c002      	RJMP _0x110
000a5c 9bb4      	SBIS 0x16,4
000a5d c001      	RJMP _0x111
                 _0x110:
000a5e c002      	RJMP _0x10F
                 _0x111:
000a5f 940e 2019 	CALL SUBOPT_0x4C
                 _0x10F:
000a61 99cc      	SBIC 0x19,4
000a62 c00a      	RJMP _0x113
000a63 99ce      	SBIC 0x19,6
000a64 c008      	RJMP _0x113
000a65 99b0      	SBIC 0x16,0
000a66 c006      	RJMP _0x113
000a67 99b6      	SBIC 0x16,6
000a68 c004      	RJMP _0x113
000a69 99b2      	SBIC 0x16,2
000a6a c002      	RJMP _0x113
000a6b 99b4      	SBIC 0x16,4
000a6c c001      	RJMP _0x114
                 _0x113:
000a6d c002      	RJMP _0x112
                 _0x114:
000a6e 940e 2020 	CALL SUBOPT_0x4D
                 _0x112:
000a70 99cc      	SBIC 0x19,4
000a71 c00a      	RJMP _0x116
000a72 99ce      	SBIC 0x19,6
000a73 c008      	RJMP _0x116
000a74 99b0      	SBIC 0x16,0
000a75 c006      	RJMP _0x116
000a76 99b6      	SBIC 0x16,6
000a77 c004      	RJMP _0x116
000a78 99b2      	SBIC 0x16,2
000a79 c002      	RJMP _0x116
000a7a 9bb4      	SBIS 0x16,4
000a7b c001      	RJMP _0x117
                 _0x116:
000a7c c002      	RJMP _0x115
                 _0x117:
000a7d 940e 2027 	CALL SUBOPT_0x4E
                 _0x115:
000a7f 9bcc      	SBIS 0x19,4
000a80 c00a      	RJMP _0x119
000a81 9bce      	SBIS 0x19,6
000a82 c008      	RJMP _0x119
000a83 9bb0      	SBIS 0x16,0
000a84 c006      	RJMP _0x119
000a85 99b6      	SBIC 0x16,6
000a86 c004      	RJMP _0x119
000a87 9bb2      	SBIS 0x16,2
000a88 c002      	RJMP _0x119
000a89 9bb4      	SBIS 0x16,4
000a8a c001      	RJMP _0x11A
                 _0x119:
000a8b c002      	RJMP _0x118
                 _0x11A:
000a8c 940e 202e 	CALL SUBOPT_0x4F
                 _0x118:
000a8e 9bcc      	SBIS 0x19,4
000a8f c00a      	RJMP _0x11C
000a90 9bce      	SBIS 0x19,6
000a91 c008      	RJMP _0x11C
000a92 99b0      	SBIC 0x16,0
000a93 c006      	RJMP _0x11C
000a94 9bb6      	SBIS 0x16,6
000a95 c004      	RJMP _0x11C
000a96 99b2      	SBIC 0x16,2
000a97 c002      	RJMP _0x11C
000a98 99b4      	SBIC 0x16,4
000a99 c001      	RJMP _0x11D
                 _0x11C:
000a9a c002      	RJMP _0x11B
                 _0x11D:
000a9b 940e 2035 	CALL SUBOPT_0x50
                 _0x11B:
000a9d 9bcc      	SBIS 0x19,4
000a9e c00a      	RJMP _0x11F
000a9f 99ce      	SBIC 0x19,6
000aa0 c008      	RJMP _0x11F
000aa1 9bb0      	SBIS 0x16,0
000aa2 c006      	RJMP _0x11F
000aa3 99b6      	SBIC 0x16,6
000aa4 c004      	RJMP _0x11F
000aa5 9bb2      	SBIS 0x16,2
000aa6 c002      	RJMP _0x11F
000aa7 99b4      	SBIC 0x16,4
000aa8 c001      	RJMP _0x120
                 _0x11F:
000aa9 c002      	RJMP _0x11E
                 _0x120:
000aaa 940e 203c 	CALL SUBOPT_0x51
                 _0x11E:
000aac 99cc      	SBIC 0x19,4
000aad c00a      	RJMP _0x122
000aae 9bce      	SBIS 0x19,6
000aaf c008      	RJMP _0x122
000ab0 99b0      	SBIC 0x16,0
000ab1 c006      	RJMP _0x122
000ab2 9bb6      	SBIS 0x16,6
000ab3 c004      	RJMP _0x122
000ab4 9bb2      	SBIS 0x16,2
000ab5 c002      	RJMP _0x122
000ab6 99b4      	SBIC 0x16,4
000ab7 c001      	RJMP _0x123
                 _0x122:
000ab8 c002      	RJMP _0x121
                 _0x123:
000ab9 940e 2043 	CALL SUBOPT_0x52
                 _0x121:
000abb 9bcc      	SBIS 0x19,4
000abc c00a      	RJMP _0x125
000abd 9bce      	SBIS 0x19,6
000abe c008      	RJMP _0x125
000abf 99b0      	SBIC 0x16,0
000ac0 c006      	RJMP _0x125
000ac1 9bb6      	SBIS 0x16,6
000ac2 c004      	RJMP _0x125
000ac3 9bb2      	SBIS 0x16,2
000ac4 c002      	RJMP _0x125
000ac5 9bb4      	SBIS 0x16,4
000ac6 c001      	RJMP _0x126
                 _0x125:
000ac7 c002      	RJMP _0x124
                 _0x126:
000ac8 940e 204a 	CALL SUBOPT_0x53
                 _0x124:
000aca 9bcc      	SBIS 0x19,4
000acb c00a      	RJMP _0x128
000acc 99ce      	SBIC 0x19,6
000acd c008      	RJMP _0x128
000ace 9bb0      	SBIS 0x16,0
000acf c006      	RJMP _0x128
000ad0 9bb6      	SBIS 0x16,6
000ad1 c004      	RJMP _0x128
000ad2 99b2      	SBIC 0x16,2
000ad3 c002      	RJMP _0x128
000ad4 99b4      	SBIC 0x16,4
000ad5 c001      	RJMP _0x129
                 _0x128:
000ad6 c002      	RJMP _0x127
                 _0x129:
000ad7 940e 2051 	CALL SUBOPT_0x54
                 _0x127:
000ad9 99cc      	SBIC 0x19,4
000ada c00a      	RJMP _0x12B
000adb 9bce      	SBIS 0x19,6
000adc c008      	RJMP _0x12B
000add 9bb0      	SBIS 0x16,0
000ade c006      	RJMP _0x12B
000adf 99b6      	SBIC 0x16,6
000ae0 c004      	RJMP _0x12B
000ae1 9bb2      	SBIS 0x16,2
000ae2 c002      	RJMP _0x12B
000ae3 99b4      	SBIC 0x16,4
000ae4 c001      	RJMP _0x12C
                 _0x12B:
000ae5 c002      	RJMP _0x12A
                 _0x12C:
000ae6 940e 2058 	CALL SUBOPT_0x55
                 _0x12A:
000ae8 9bcc      	SBIS 0x19,4
000ae9 c00a      	RJMP _0x12E
000aea 99ce      	SBIC 0x19,6
000aeb c008      	RJMP _0x12E
000aec 9bb0      	SBIS 0x16,0
000aed c006      	RJMP _0x12E
000aee 9bb6      	SBIS 0x16,6
000aef c004      	RJMP _0x12E
000af0 9bb2      	SBIS 0x16,2
000af1 c002      	RJMP _0x12E
000af2 9bb4      	SBIS 0x16,4
000af3 c001      	RJMP _0x12F
                 _0x12E:
000af4 c002      	RJMP _0x12D
                 _0x12F:
000af5 940e 205f 	CALL SUBOPT_0x56
                 _0x12D:
000af7 99cc      	SBIC 0x19,4
000af8 c00a      	RJMP _0x131
000af9 9bce      	SBIS 0x19,6
000afa c008      	RJMP _0x131
000afb 9bb0      	SBIS 0x16,0
000afc c006      	RJMP _0x131
000afd 9bb6      	SBIS 0x16,6
000afe c004      	RJMP _0x131
000aff 99b2      	SBIC 0x16,2
000b00 c002      	RJMP _0x131
000b01 99b4      	SBIC 0x16,4
000b02 c001      	RJMP _0x132
                 _0x131:
000b03 c002      	RJMP _0x130
                 _0x132:
000b04 940e 2066 	CALL SUBOPT_0x57
                 _0x130:
000b06 99cc      	SBIC 0x19,4
000b07 c00a      	RJMP _0x134
000b08 9bce      	SBIS 0x19,6
000b09 c008      	RJMP _0x134
000b0a 9bb0      	SBIS 0x16,0
000b0b c006      	RJMP _0x134
000b0c 9bb6      	SBIS 0x16,6
000b0d c004      	RJMP _0x134
000b0e 9bb2      	SBIS 0x16,2
000b0f c002      	RJMP _0x134
000b10 9bb4      	SBIS 0x16,4
000b11 c001      	RJMP _0x135
                 _0x134:
000b12 c002      	RJMP _0x133
                 _0x135:
000b13 940e 206d 	CALL SUBOPT_0x58
                 _0x133:
000b15 99cc      	SBIC 0x19,4
000b16 c00a      	RJMP _0x137
000b17 99ce      	SBIC 0x19,6
000b18 c008      	RJMP _0x137
000b19 99b0      	SBIC 0x16,0
000b1a c006      	RJMP _0x137
000b1b 99b6      	SBIC 0x16,6
000b1c c004      	RJMP _0x137
000b1d 9bb2      	SBIS 0x16,2
000b1e c002      	RJMP _0x137
000b1f 9bb4      	SBIS 0x16,4
000b20 c001      	RJMP _0x138
                 _0x137:
000b21 c002      	RJMP _0x136
                 _0x138:
000b22 940e 2074 	CALL SUBOPT_0x59
                 _0x136:
000b24 99cc      	SBIC 0x19,4
000b25 c00a      	RJMP _0x13A
000b26 99ce      	SBIC 0x19,6
000b27 c008      	RJMP _0x13A
000b28 99b0      	SBIC 0x16,0
000b29 c006      	RJMP _0x13A
000b2a 9bb6      	SBIS 0x16,6
000b2b c004      	RJMP _0x13A
000b2c 99b2      	SBIC 0x16,2
000b2d c002      	RJMP _0x13A
000b2e 9bb4      	SBIS 0x16,4
000b2f c001      	RJMP _0x13B
                 _0x13A:
000b30 c002      	RJMP _0x139
                 _0x13B:
000b31 940e 207b 	CALL SUBOPT_0x5A
                 _0x139:
000b33 99cc      	SBIC 0x19,4
000b34 c00a      	RJMP _0x13D
000b35 99ce      	SBIC 0x19,6
000b36 c008      	RJMP _0x13D
000b37 9bb0      	SBIS 0x16,0
000b38 c006      	RJMP _0x13D
000b39 99b6      	SBIC 0x16,6
000b3a c004      	RJMP _0x13D
000b3b 99b2      	SBIC 0x16,2
000b3c c002      	RJMP _0x13D
000b3d 9bb4      	SBIS 0x16,4
000b3e c001      	RJMP _0x13E
                 _0x13D:
000b3f c002      	RJMP _0x13C
                 _0x13E:
000b40 940e 2082 	CALL SUBOPT_0x5B
                 _0x13C:
000b42 99cc      	SBIC 0x19,4
000b43 c00a      	RJMP _0x140
000b44 9bce      	SBIS 0x19,6
000b45 c008      	RJMP _0x140
000b46 99b0      	SBIC 0x16,0
000b47 c006      	RJMP _0x140
000b48 99b6      	SBIC 0x16,6
000b49 c004      	RJMP _0x140
000b4a 99b2      	SBIC 0x16,2
000b4b c002      	RJMP _0x140
000b4c 9bb4      	SBIS 0x16,4
000b4d c001      	RJMP _0x141
                 _0x140:
000b4e c002      	RJMP _0x13F
                 _0x141:
000b4f 940e 2089 	CALL SUBOPT_0x5C
                 _0x13F:
000b51 99cc      	SBIC 0x19,4
000b52 c00a      	RJMP _0x143
000b53 99ce      	SBIC 0x19,6
000b54 c008      	RJMP _0x143
000b55 99b0      	SBIC 0x16,0
000b56 c006      	RJMP _0x143
000b57 9bb6      	SBIS 0x16,6
000b58 c004      	RJMP _0x143
000b59 9bb2      	SBIS 0x16,2
000b5a c002      	RJMP _0x143
000b5b 9bb4      	SBIS 0x16,4
000b5c c001      	RJMP _0x144
                 _0x143:
000b5d c002      	RJMP _0x142
                 _0x144:
000b5e 940e 2090 	CALL SUBOPT_0x5D
                 _0x142:
000b60 99cc      	SBIC 0x19,4
000b61 c00a      	RJMP _0x146
000b62 99ce      	SBIC 0x19,6
000b63 c008      	RJMP _0x146
000b64 9bb0      	SBIS 0x16,0
000b65 c006      	RJMP _0x146
000b66 9bb6      	SBIS 0x16,6
000b67 c004      	RJMP _0x146
000b68 99b2      	SBIC 0x16,2
000b69 c002      	RJMP _0x146
000b6a 9bb4      	SBIS 0x16,4
000b6b c001      	RJMP _0x147
                 _0x146:
000b6c c002      	RJMP _0x145
                 _0x147:
000b6d 940e 2097 	CALL SUBOPT_0x5E
                 _0x145:
000b6f 99cc      	SBIC 0x19,4
000b70 c00a      	RJMP _0x149
000b71 9bce      	SBIS 0x19,6
000b72 c008      	RJMP _0x149
000b73 9bb0      	SBIS 0x16,0
000b74 c006      	RJMP _0x149
000b75 99b6      	SBIC 0x16,6
000b76 c004      	RJMP _0x149
000b77 99b2      	SBIC 0x16,2
000b78 c002      	RJMP _0x149
000b79 9bb4      	SBIS 0x16,4
000b7a c001      	RJMP _0x14A
                 _0x149:
000b7b c002      	RJMP _0x148
                 _0x14A:
000b7c 940e 209e 	CALL SUBOPT_0x5F
                 _0x148:
000b7e 99cc      	SBIC 0x19,4
000b7f c00a      	RJMP _0x14C
000b80 9bce      	SBIS 0x19,6
000b81 c008      	RJMP _0x14C
000b82 99b0      	SBIC 0x16,0
000b83 c006      	RJMP _0x14C
000b84 9bb6      	SBIS 0x16,6
000b85 c004      	RJMP _0x14C
000b86 99b2      	SBIC 0x16,2
000b87 c002      	RJMP _0x14C
000b88 99b4      	SBIC 0x16,4
000b89 c001      	RJMP _0x14D
                 _0x14C:
000b8a c002      	RJMP _0x14B
                 _0x14D:
000b8b 940e 20a5 	CALL SUBOPT_0x60
                 _0x14B:
000b8d 9bcc      	SBIS 0x19,4
000b8e c00a      	RJMP _0x14F
000b8f 99ce      	SBIC 0x19,6
000b90 c008      	RJMP _0x14F
000b91 9bb0      	SBIS 0x16,0
000b92 c006      	RJMP _0x14F
000b93 99b6      	SBIC 0x16,6
000b94 c004      	RJMP _0x14F
000b95 9bb2      	SBIS 0x16,2
000b96 c002      	RJMP _0x14F
000b97 9bb4      	SBIS 0x16,4
000b98 c001      	RJMP _0x150
                 _0x14F:
000b99 c002      	RJMP _0x14E
                 _0x150:
000b9a 940e 20ac 	CALL SUBOPT_0x61
                 _0x14E:
000b9c 99cc      	SBIC 0x19,4
000b9d c00a      	RJMP _0x152
000b9e 9bce      	SBIS 0x19,6
000b9f c008      	RJMP _0x152
000ba0 9bb0      	SBIS 0x16,0
000ba1 c006      	RJMP _0x152
000ba2 99b6      	SBIC 0x16,6
000ba3 c004      	RJMP _0x152
000ba4 99b2      	SBIC 0x16,2
000ba5 c002      	RJMP _0x152
000ba6 99b4      	SBIC 0x16,4
000ba7 c001      	RJMP _0x153
                 _0x152:
000ba8 c002      	RJMP _0x151
                 _0x153:
000ba9 940e 20b3 	CALL SUBOPT_0x62
                 _0x151:
000bab 9bcc      	SBIS 0x19,4
000bac c00a      	RJMP _0x155
000bad 99ce      	SBIC 0x19,6
000bae c008      	RJMP _0x155
000baf 99b0      	SBIC 0x16,0
000bb0 c006      	RJMP _0x155
000bb1 9bb6      	SBIS 0x16,6
000bb2 c004      	RJMP _0x155
000bb3 9bb2      	SBIS 0x16,2
000bb4 c002      	RJMP _0x155
000bb5 9bb4      	SBIS 0x16,4
000bb6 c001      	RJMP _0x156
                 _0x155:
000bb7 c002      	RJMP _0x154
                 _0x156:
000bb8 940e 20ba 	CALL SUBOPT_0x63
                 _0x154:
000bba 99cc      	SBIC 0x19,4
000bbb c00a      	RJMP _0x158
000bbc 99ce      	SBIC 0x19,6
000bbd c008      	RJMP _0x158
000bbe 9bb0      	SBIS 0x16,0
000bbf c006      	RJMP _0x158
000bc0 99b6      	SBIC 0x16,6
000bc1 c004      	RJMP _0x158
000bc2 9bb2      	SBIS 0x16,2
000bc3 c002      	RJMP _0x158
000bc4 9bb4      	SBIS 0x16,4
000bc5 c001      	RJMP _0x159
                 _0x158:
000bc6 c002      	RJMP _0x157
                 _0x159:
000bc7 940e 20c1 	CALL SUBOPT_0x64
                 _0x157:
000bc9 99cc      	SBIC 0x19,4
000bca c00a      	RJMP _0x15B
000bcb 99ce      	SBIC 0x19,6
000bcc c008      	RJMP _0x15B
000bcd 9bb0      	SBIS 0x16,0
000bce c006      	RJMP _0x15B
000bcf 99b6      	SBIC 0x16,6
000bd0 c004      	RJMP _0x15B
000bd1 99b2      	SBIC 0x16,2
000bd2 c002      	RJMP _0x15B
000bd3 99b4      	SBIC 0x16,4
000bd4 c001      	RJMP _0x15C
                 _0x15B:
000bd5 c002      	RJMP _0x15A
                 _0x15C:
000bd6 940e 20c8 	CALL SUBOPT_0x65
                 _0x15A:
000bd8 99cc      	SBIC 0x19,4
000bd9 c00a      	RJMP _0x15E
000bda 9bce      	SBIS 0x19,6
000bdb c008      	RJMP _0x15E
000bdc 99b0      	SBIC 0x16,0
000bdd c006      	RJMP _0x15E
000bde 99b6      	SBIC 0x16,6
000bdf c004      	RJMP _0x15E
000be0 9bb2      	SBIS 0x16,2
000be1 c002      	RJMP _0x15E
000be2 9bb4      	SBIS 0x16,4
000be3 c001      	RJMP _0x15F
                 _0x15E:
000be4 c002      	RJMP _0x15D
                 _0x15F:
000be5 940e 20cf 	CALL SUBOPT_0x66
                 _0x15D:
000be7 99cc      	SBIC 0x19,4
000be8 c00a      	RJMP _0x161
000be9 9bce      	SBIS 0x19,6
000bea c008      	RJMP _0x161
000beb 99b0      	SBIC 0x16,0
000bec c006      	RJMP _0x161
000bed 99b6      	SBIC 0x16,6
000bee c004      	RJMP _0x161
000bef 99b2      	SBIC 0x16,2
000bf0 c002      	RJMP _0x161
000bf1 99b4      	SBIC 0x16,4
000bf2 c001      	RJMP _0x162
                 _0x161:
000bf3 c002      	RJMP _0x160
                 _0x162:
000bf4 940e 20d6 	CALL SUBOPT_0x67
                 _0x160:
000bf6 9bcc      	SBIS 0x19,4
000bf7 c00a      	RJMP _0x164
000bf8 99ce      	SBIC 0x19,6
000bf9 c008      	RJMP _0x164
000bfa 99b0      	SBIC 0x16,0
000bfb c006      	RJMP _0x164
000bfc 99b6      	SBIC 0x16,6
000bfd c004      	RJMP _0x164
000bfe 9bb2      	SBIS 0x16,2
000bff c002      	RJMP _0x164
000c00 9bb4      	SBIS 0x16,4
000c01 c001      	RJMP _0x165
                 _0x164:
000c02 c002      	RJMP _0x163
                 _0x165:
000c03 940e 20dd 	CALL SUBOPT_0x68
                 _0x163:
000c05 9bcc      	SBIS 0x19,4
000c06 c00a      	RJMP _0x167
000c07 99ce      	SBIC 0x19,6
000c08 c008      	RJMP _0x167
000c09 99b0      	SBIC 0x16,0
000c0a c006      	RJMP _0x167
000c0b 9bb6      	SBIS 0x16,6
000c0c c004      	RJMP _0x167
000c0d 99b2      	SBIC 0x16,2
000c0e c002      	RJMP _0x167
000c0f 9bb4      	SBIS 0x16,4
000c10 c001      	RJMP _0x168
                 _0x167:
000c11 c002      	RJMP _0x166
                 _0x168:
000c12 940e 20e4 	CALL SUBOPT_0x69
                 _0x166:
000c14 99cc      	SBIC 0x19,4
000c15 c00a      	RJMP _0x16A
000c16 99ce      	SBIC 0x19,6
000c17 c008      	RJMP _0x16A
000c18 9bb0      	SBIS 0x16,0
000c19 c006      	RJMP _0x16A
000c1a 9bb6      	SBIS 0x16,6
000c1b c004      	RJMP _0x16A
000c1c 99b2      	SBIC 0x16,2
000c1d c002      	RJMP _0x16A
000c1e 99b4      	SBIC 0x16,4
000c1f c001      	RJMP _0x16B
                 _0x16A:
000c20 c002      	RJMP _0x169
                 _0x16B:
000c21 940e 20eb 	CALL SUBOPT_0x6A
                 _0x169:
000c23 9bcc      	SBIS 0x19,4
000c24 c00a      	RJMP _0x16D
000c25 99ce      	SBIC 0x19,6
000c26 c008      	RJMP _0x16D
000c27 99b0      	SBIC 0x16,0
000c28 c006      	RJMP _0x16D
000c29 9bb6      	SBIS 0x16,6
000c2a c004      	RJMP _0x16D
000c2b 9bb2      	SBIS 0x16,2
000c2c c002      	RJMP _0x16D
000c2d 9bb4      	SBIS 0x16,4
000c2e c001      	RJMP _0x16E
                 _0x16D:
000c2f c002      	RJMP _0x16C
                 _0x16E:
000c30 940e 20f2 	CALL SUBOPT_0x6B
                 _0x16C:
000c32 99cc      	SBIC 0x19,4
000c33 c00a      	RJMP _0x170
000c34 99ce      	SBIC 0x19,6
000c35 c008      	RJMP _0x170
000c36 9bb0      	SBIS 0x16,0
000c37 c006      	RJMP _0x170
000c38 9bb6      	SBIS 0x16,6
000c39 c004      	RJMP _0x170
000c3a 99b2      	SBIC 0x16,2
000c3b c002      	RJMP _0x170
000c3c 99b4      	SBIC 0x16,4
000c3d c001      	RJMP _0x171
                 _0x170:
000c3e c002      	RJMP _0x16F
                 _0x171:
000c3f 940e 20f9 	CALL SUBOPT_0x6C
                 _0x16F:
000c41 99cc      	SBIC 0x19,4
000c42 c00a      	RJMP _0x173
000c43 99ce      	SBIC 0x19,6
000c44 c008      	RJMP _0x173
000c45 9bb0      	SBIS 0x16,0
000c46 c006      	RJMP _0x173
000c47 99b6      	SBIC 0x16,6
000c48 c004      	RJMP _0x173
000c49 9bb2      	SBIS 0x16,2
000c4a c002      	RJMP _0x173
000c4b 99b4      	SBIC 0x16,4
000c4c c001      	RJMP _0x174
                 _0x173:
000c4d c002      	RJMP _0x172
                 _0x174:
000c4e 940e 2100 	CALL SUBOPT_0x6D
                 _0x172:
000c50 99cc      	SBIC 0x19,4
000c51 c00a      	RJMP _0x176
000c52 99ce      	SBIC 0x19,6
000c53 c008      	RJMP _0x176
000c54 99b0      	SBIC 0x16,0
000c55 c006      	RJMP _0x176
000c56 9bb6      	SBIS 0x16,6
000c57 c004      	RJMP _0x176
000c58 99b2      	SBIC 0x16,2
000c59 c002      	RJMP _0x176
000c5a 99b4      	SBIC 0x16,4
000c5b c001      	RJMP _0x177
                 _0x176:
000c5c c002      	RJMP _0x175
                 _0x177:
000c5d 940e 2107 	CALL SUBOPT_0x6E
                 _0x175:
000c5f 9bcc      	SBIS 0x19,4
000c60 c00a      	RJMP _0x179
000c61 9bce      	SBIS 0x19,6
000c62 c008      	RJMP _0x179
000c63 99b0      	SBIC 0x16,0
000c64 c006      	RJMP _0x179
000c65 99b6      	SBIC 0x16,6
000c66 c004      	RJMP _0x179
000c67 9bb2      	SBIS 0x16,2
000c68 c002      	RJMP _0x179
000c69 9bb4      	SBIS 0x16,4
000c6a c001      	RJMP _0x17A
                 _0x179:
000c6b c002      	RJMP _0x178
                 _0x17A:
000c6c 940e 210e 	CALL SUBOPT_0x6F
                 _0x178:
000c6e 99cc      	SBIC 0x19,4
000c6f c00a      	RJMP _0x17C
000c70 9bce      	SBIS 0x19,6
000c71 c008      	RJMP _0x17C
000c72 9bb0      	SBIS 0x16,0
000c73 c006      	RJMP _0x17C
000c74 9bb6      	SBIS 0x16,6
000c75 c004      	RJMP _0x17C
000c76 99b2      	SBIC 0x16,2
000c77 c002      	RJMP _0x17C
000c78 9bb4      	SBIS 0x16,4
000c79 c001      	RJMP _0x17D
                 _0x17C:
000c7a c002      	RJMP _0x17B
                 _0x17D:
000c7b 940e 2115 	CALL SUBOPT_0x70
                 _0x17B:
000c7d 99cc      	SBIC 0x19,4
000c7e c00a      	RJMP _0x17F
000c7f 9bce      	SBIS 0x19,6
000c80 c008      	RJMP _0x17F
000c81 99b0      	SBIC 0x16,0
000c82 c006      	RJMP _0x17F
000c83 9bb6      	SBIS 0x16,6
000c84 c004      	RJMP _0x17F
000c85 99b2      	SBIC 0x16,2
000c86 c002      	RJMP _0x17F
000c87 9bb4      	SBIS 0x16,4
000c88 c001      	RJMP _0x180
                 _0x17F:
000c89 c002      	RJMP _0x17E
                 _0x180:
000c8a 940e 211c 	CALL SUBOPT_0x71
                 _0x17E:
000c8c 9bcc      	SBIS 0x19,4
000c8d c00a      	RJMP _0x182
000c8e 9bce      	SBIS 0x19,6
000c8f c008      	RJMP _0x182
000c90 99b0      	SBIC 0x16,0
000c91 c006      	RJMP _0x182
000c92 9bb6      	SBIS 0x16,6
000c93 c004      	RJMP _0x182
000c94 99b2      	SBIC 0x16,2
000c95 c002      	RJMP _0x182
000c96 9bb4      	SBIS 0x16,4
000c97 c001      	RJMP _0x183
                 _0x182:
000c98 c002      	RJMP _0x181
                 _0x183:
000c99 940e 2123 	CALL SUBOPT_0x72
                 _0x181:
000c9b 9bcc      	SBIS 0x19,4
000c9c c00a      	RJMP _0x185
000c9d 99ce      	SBIC 0x19,6
000c9e c008      	RJMP _0x185
000c9f 9bb0      	SBIS 0x16,0
000ca0 c006      	RJMP _0x185
000ca1 99b6      	SBIC 0x16,6
000ca2 c004      	RJMP _0x185
000ca3 99b2      	SBIC 0x16,2
000ca4 c002      	RJMP _0x185
000ca5 9bb4      	SBIS 0x16,4
000ca6 c001      	RJMP _0x186
                 _0x185:
000ca7 c002      	RJMP _0x184
                 _0x186:
000ca8 940e 212a 	CALL SUBOPT_0x73
                 _0x184:
000caa 9bcc      	SBIS 0x19,4
000cab c00a      	RJMP _0x188
000cac 99ce      	SBIC 0x19,6
000cad c008      	RJMP _0x188
000cae 9bb0      	SBIS 0x16,0
000caf c006      	RJMP _0x188
000cb0 9bb6      	SBIS 0x16,6
000cb1 c004      	RJMP _0x188
000cb2 99b2      	SBIC 0x16,2
000cb3 c002      	RJMP _0x188
000cb4 9bb4      	SBIS 0x16,4
000cb5 c001      	RJMP _0x189
                 _0x188:
000cb6 c002      	RJMP _0x187
                 _0x189:
000cb7 940e 2131 	CALL SUBOPT_0x74
                 _0x187:
000cb9 99cc      	SBIC 0x19,4
000cba c00a      	RJMP _0x18B
000cbb 9bce      	SBIS 0x19,6
000cbc c008      	RJMP _0x18B
000cbd 99b0      	SBIC 0x16,0
000cbe c006      	RJMP _0x18B
000cbf 99b6      	SBIC 0x16,6
000cc0 c004      	RJMP _0x18B
000cc1 9bb2      	SBIS 0x16,2
000cc2 c002      	RJMP _0x18B
000cc3 99b4      	SBIC 0x16,4
000cc4 c001      	RJMP _0x18C
                 _0x18B:
000cc5 c002      	RJMP _0x18A
                 _0x18C:
000cc6 940e 2138 	CALL SUBOPT_0x75
                 _0x18A:
000cc8 940e 1f2a 	CALL SUBOPT_0x2E
000cca 01df      	MOVW R26,R30
000ccb 01cb      	MOVW R24,R22
                +
000ccc e0e0     +LDI R30 , LOW ( 0x41A00000 )
000ccd e0f0     +LDI R31 , HIGH ( 0x41A00000 )
000cce ea60     +LDI R22 , BYTE3 ( 0x41A00000 )
000ccf e471     +LDI R23 , BYTE4 ( 0x41A00000 )
                 	__GETD1N 0x41A00000
000cd0 940e 2393 	CALL __CMPF12
000cd2 f410      	BRSH _0x18D
000cd3 940e 213f 	CALL SUBOPT_0x76
                 _0x18D:
000cd5 9508      	RET
                 ; .FEND
                 _line_detector:
                 ; .FSTART _line_detector
000cd6 9bcc      	SBIS 0x19,4
000cd7 c00a      	RJMP _0x18F
000cd8 9bce      	SBIS 0x19,6
000cd9 c008      	RJMP _0x18F
000cda 9bb0      	SBIS 0x16,0
000cdb c006      	RJMP _0x18F
000cdc 9bb6      	SBIS 0x16,6
000cdd c004      	RJMP _0x18F
000cde 9bb2      	SBIS 0x16,2
000cdf c002      	RJMP _0x18F
000ce0 9bb4      	SBIS 0x16,4
000ce1 c001      	RJMP _0x190
                 _0x18F:
000ce2 c002      	RJMP _0x18E
                 _0x190:
000ce3 940e 1f9b 	CALL SUBOPT_0x3A
                 _0x18E:
000ce5 9bcc      	SBIS 0x19,4
000ce6 c00a      	RJMP _0x192
000ce7 9bce      	SBIS 0x19,6
000ce8 c008      	RJMP _0x192
000ce9 9bb0      	SBIS 0x16,0
000cea c006      	RJMP _0x192
000ceb 9bb6      	SBIS 0x16,6
000cec c004      	RJMP _0x192
000ced 99b2      	SBIC 0x16,2
000cee c002      	RJMP _0x192
000cef 99b4      	SBIC 0x16,4
000cf0 c001      	RJMP _0x193
                 _0x192:
000cf1 c002      	RJMP _0x191
                 _0x193:
000cf2 940e 1fa2 	CALL SUBOPT_0x3B
                 _0x191:
000cf4 9bcc      	SBIS 0x19,4
000cf5 c00a      	RJMP _0x195
000cf6 9bce      	SBIS 0x19,6
000cf7 c008      	RJMP _0x195
000cf8 9bb0      	SBIS 0x16,0
000cf9 c006      	RJMP _0x195
000cfa 99b6      	SBIC 0x16,6
000cfb c004      	RJMP _0x195
000cfc 9bb2      	SBIS 0x16,2
000cfd c002      	RJMP _0x195
000cfe 99b4      	SBIC 0x16,4
000cff c001      	RJMP _0x196
                 _0x195:
000d00 c002      	RJMP _0x194
                 _0x196:
000d01 940e 1fa9 	CALL SUBOPT_0x3C
                 _0x194:
000d03 9bcc      	SBIS 0x19,4
000d04 c00a      	RJMP _0x198
000d05 9bce      	SBIS 0x19,6
000d06 c008      	RJMP _0x198
000d07 99b0      	SBIC 0x16,0
000d08 c006      	RJMP _0x198
000d09 9bb6      	SBIS 0x16,6
000d0a c004      	RJMP _0x198
000d0b 9bb2      	SBIS 0x16,2
000d0c c002      	RJMP _0x198
000d0d 99b4      	SBIC 0x16,4
000d0e c001      	RJMP _0x199
                 _0x198:
000d0f c002      	RJMP _0x197
                 _0x199:
000d10 940e 1fb0 	CALL SUBOPT_0x3D
                 _0x197:
000d12 9bcc      	SBIS 0x19,4
000d13 c00a      	RJMP _0x19B
000d14 99ce      	SBIC 0x19,6
000d15 c008      	RJMP _0x19B
000d16 9bb0      	SBIS 0x16,0
000d17 c006      	RJMP _0x19B
000d18 9bb6      	SBIS 0x16,6
000d19 c004      	RJMP _0x19B
000d1a 9bb2      	SBIS 0x16,2
000d1b c002      	RJMP _0x19B
000d1c 99b4      	SBIC 0x16,4
000d1d c001      	RJMP _0x19C
                 _0x19B:
000d1e c002      	RJMP _0x19A
                 _0x19C:
000d1f 940e 1fb7 	CALL SUBOPT_0x3E
                 _0x19A:
000d21 99cc      	SBIC 0x19,4
000d22 c00a      	RJMP _0x19E
000d23 9bce      	SBIS 0x19,6
000d24 c008      	RJMP _0x19E
000d25 9bb0      	SBIS 0x16,0
000d26 c006      	RJMP _0x19E
000d27 9bb6      	SBIS 0x16,6
000d28 c004      	RJMP _0x19E
000d29 9bb2      	SBIS 0x16,2
000d2a c002      	RJMP _0x19E
000d2b 99b4      	SBIC 0x16,4
000d2c c001      	RJMP _0x19F
                 _0x19E:
000d2d c002      	RJMP _0x19D
                 _0x19F:
000d2e 940e 1fbe 	CALL SUBOPT_0x3F
                 _0x19D:
000d30 9bcc      	SBIS 0x19,4
000d31 c00a      	RJMP _0x1A1
000d32 9bce      	SBIS 0x19,6
000d33 c008      	RJMP _0x1A1
000d34 9bb0      	SBIS 0x16,0
000d35 c006      	RJMP _0x1A1
000d36 9bb6      	SBIS 0x16,6
000d37 c004      	RJMP _0x1A1
000d38 99b2      	SBIC 0x16,2
000d39 c002      	RJMP _0x1A1
000d3a 9bb4      	SBIS 0x16,4
000d3b c001      	RJMP _0x1A2
                 _0x1A1:
000d3c c002      	RJMP _0x1A0
                 _0x1A2:
000d3d 940e 1fc5 	CALL SUBOPT_0x40
                 _0x1A0:
000d3f 9bcc      	SBIS 0x19,4
000d40 c00a      	RJMP _0x1A4
000d41 9bce      	SBIS 0x19,6
000d42 c008      	RJMP _0x1A4
000d43 9bb0      	SBIS 0x16,0
000d44 c006      	RJMP _0x1A4
000d45 99b6      	SBIC 0x16,6
000d46 c004      	RJMP _0x1A4
000d47 99b2      	SBIC 0x16,2
000d48 c002      	RJMP _0x1A4
000d49 99b4      	SBIC 0x16,4
000d4a c001      	RJMP _0x1A5
                 _0x1A4:
000d4b c002      	RJMP _0x1A3
                 _0x1A5:
000d4c 940e 1fcc 	CALL SUBOPT_0x41
                 _0x1A3:
000d4e 9bcc      	SBIS 0x19,4
000d4f c00a      	RJMP _0x1A7
000d50 9bce      	SBIS 0x19,6
000d51 c008      	RJMP _0x1A7
000d52 99b0      	SBIC 0x16,0
000d53 c006      	RJMP _0x1A7
000d54 99b6      	SBIC 0x16,6
000d55 c004      	RJMP _0x1A7
000d56 9bb2      	SBIS 0x16,2
000d57 c002      	RJMP _0x1A7
000d58 99b4      	SBIC 0x16,4
000d59 c001      	RJMP _0x1A8
                 _0x1A7:
000d5a c002      	RJMP _0x1A6
                 _0x1A8:
000d5b 940e 1fd3 	CALL SUBOPT_0x42
                 _0x1A6:
000d5d 9bcc      	SBIS 0x19,4
000d5e c00a      	RJMP _0x1AA
000d5f 99ce      	SBIC 0x19,6
000d60 c008      	RJMP _0x1AA
000d61 99b0      	SBIC 0x16,0
000d62 c006      	RJMP _0x1AA
000d63 9bb6      	SBIS 0x16,6
000d64 c004      	RJMP _0x1AA
000d65 9bb2      	SBIS 0x16,2
000d66 c002      	RJMP _0x1AA
000d67 99b4      	SBIC 0x16,4
000d68 c001      	RJMP _0x1AB
                 _0x1AA:
000d69 c002      	RJMP _0x1A9
                 _0x1AB:
000d6a 940e 1fda 	CALL SUBOPT_0x43
                 _0x1A9:
000d6c 99cc      	SBIC 0x19,4
000d6d c00a      	RJMP _0x1AD
000d6e 99ce      	SBIC 0x19,6
000d6f c008      	RJMP _0x1AD
000d70 9bb0      	SBIS 0x16,0
000d71 c006      	RJMP _0x1AD
000d72 9bb6      	SBIS 0x16,6
000d73 c004      	RJMP _0x1AD
000d74 9bb2      	SBIS 0x16,2
000d75 c002      	RJMP _0x1AD
000d76 99b4      	SBIC 0x16,4
000d77 c001      	RJMP _0x1AE
                 _0x1AD:
000d78 c002      	RJMP _0x1AC
                 _0x1AE:
000d79 940e 1fe1 	CALL SUBOPT_0x44
                 _0x1AC:
000d7b 9bcc      	SBIS 0x19,4
000d7c c00a      	RJMP _0x1B0
000d7d 9bce      	SBIS 0x19,6
000d7e c008      	RJMP _0x1B0
000d7f 9bb0      	SBIS 0x16,0
000d80 c006      	RJMP _0x1B0
000d81 99b6      	SBIC 0x16,6
000d82 c004      	RJMP _0x1B0
000d83 99b2      	SBIC 0x16,2
000d84 c002      	RJMP _0x1B0
000d85 9bb4      	SBIS 0x16,4
000d86 c001      	RJMP _0x1B1
                 _0x1B0:
000d87 c002      	RJMP _0x1AF
                 _0x1B1:
000d88 940e 1fe8 	CALL SUBOPT_0x45
                 _0x1AF:
000d8a 9bcc      	SBIS 0x19,4
000d8b c00a      	RJMP _0x1B3
000d8c 9bce      	SBIS 0x19,6
000d8d c008      	RJMP _0x1B3
000d8e 99b0      	SBIC 0x16,0
000d8f c006      	RJMP _0x1B3
000d90 99b6      	SBIC 0x16,6
000d91 c004      	RJMP _0x1B3
000d92 99b2      	SBIC 0x16,2
000d93 c002      	RJMP _0x1B3
000d94 99b4      	SBIC 0x16,4
000d95 c001      	RJMP _0x1B4
                 _0x1B3:
000d96 c002      	RJMP _0x1B2
                 _0x1B4:
000d97 940e 1fef 	CALL SUBOPT_0x46
                 _0x1B2:
000d99 9bcc      	SBIS 0x19,4
000d9a c00a      	RJMP _0x1B6
000d9b 99ce      	SBIC 0x19,6
000d9c c008      	RJMP _0x1B6
000d9d 99b0      	SBIC 0x16,0
000d9e c006      	RJMP _0x1B6
000d9f 99b6      	SBIC 0x16,6
000da0 c004      	RJMP _0x1B6
000da1 9bb2      	SBIS 0x16,2
000da2 c002      	RJMP _0x1B6
000da3 99b4      	SBIC 0x16,4
000da4 c001      	RJMP _0x1B7
                 _0x1B6:
000da5 c002      	RJMP _0x1B5
                 _0x1B7:
000da6 940e 1ff6 	CALL SUBOPT_0x47
                 _0x1B5:
000da8 99cc      	SBIC 0x19,4
000da9 c00a      	RJMP _0x1B9
000daa 99ce      	SBIC 0x19,6
000dab c008      	RJMP _0x1B9
000dac 99b0      	SBIC 0x16,0
000dad c006      	RJMP _0x1B9
000dae 9bb6      	SBIS 0x16,6
000daf c004      	RJMP _0x1B9
000db0 9bb2      	SBIS 0x16,2
000db1 c002      	RJMP _0x1B9
000db2 99b4      	SBIC 0x16,4
000db3 c001      	RJMP _0x1BA
                 _0x1B9:
000db4 c002      	RJMP _0x1B8
                 _0x1BA:
000db5 940e 1ffd 	CALL SUBOPT_0x48
                 _0x1B8:
000db7 9bcc      	SBIS 0x19,4
000db8 c00a      	RJMP _0x1BC
000db9 9bce      	SBIS 0x19,6
000dba c008      	RJMP _0x1BC
000dbb 99b0      	SBIC 0x16,0
000dbc c006      	RJMP _0x1BC
000dbd 99b6      	SBIC 0x16,6
000dbe c004      	RJMP _0x1BC
000dbf 99b2      	SBIC 0x16,2
000dc0 c002      	RJMP _0x1BC
000dc1 9bb4      	SBIS 0x16,4
000dc2 c001      	RJMP _0x1BD
                 _0x1BC:
000dc3 c002      	RJMP _0x1BB
                 _0x1BD:
000dc4 940e 2004 	CALL SUBOPT_0x49
                 _0x1BB:
000dc6 9bcc      	SBIS 0x19,4
000dc7 c00a      	RJMP _0x1BF
000dc8 99ce      	SBIC 0x19,6
000dc9 c008      	RJMP _0x1BF
000dca 99b0      	SBIC 0x16,0
000dcb c006      	RJMP _0x1BF
000dcc 99b6      	SBIC 0x16,6
000dcd c004      	RJMP _0x1BF
000dce 99b2      	SBIC 0x16,2
000dcf c002      	RJMP _0x1BF
000dd0 99b4      	SBIC 0x16,4
000dd1 c001      	RJMP _0x1C0
                 _0x1BF:
000dd2 c002      	RJMP _0x1BE
                 _0x1C0:
000dd3 940e 200b 	CALL SUBOPT_0x4A
                 _0x1BE:
000dd5 99cc      	SBIC 0x19,4
000dd6 c00a      	RJMP _0x1C2
000dd7 99ce      	SBIC 0x19,6
000dd8 c008      	RJMP _0x1C2
000dd9 99b0      	SBIC 0x16,0
000dda c006      	RJMP _0x1C2
000ddb 99b6      	SBIC 0x16,6
000ddc c004      	RJMP _0x1C2
000ddd 9bb2      	SBIS 0x16,2
000dde c002      	RJMP _0x1C2
000ddf 99b4      	SBIC 0x16,4
000de0 c001      	RJMP _0x1C3
                 _0x1C2:
000de1 c002      	RJMP _0x1C1
                 _0x1C3:
000de2 940e 2012 	CALL SUBOPT_0x4B
                 _0x1C1:
000de4 9bcc      	SBIS 0x19,4
000de5 c00a      	RJMP _0x1C5
000de6 99ce      	SBIC 0x19,6
000de7 c008      	RJMP _0x1C5
000de8 99b0      	SBIC 0x16,0
000de9 c006      	RJMP _0x1C5
000dea 99b6      	SBIC 0x16,6
000deb c004      	RJMP _0x1C5
000dec 99b2      	SBIC 0x16,2
000ded c002      	RJMP _0x1C5
000dee 9bb4      	SBIS 0x16,4
000def c001      	RJMP _0x1C6
                 _0x1C5:
000df0 c002      	RJMP _0x1C4
                 _0x1C6:
000df1 940e 2019 	CALL SUBOPT_0x4C
                 _0x1C4:
000df3 99cc      	SBIC 0x19,4
000df4 c00a      	RJMP _0x1C8
000df5 99ce      	SBIC 0x19,6
000df6 c008      	RJMP _0x1C8
000df7 99b0      	SBIC 0x16,0
000df8 c006      	RJMP _0x1C8
000df9 99b6      	SBIC 0x16,6
000dfa c004      	RJMP _0x1C8
000dfb 99b2      	SBIC 0x16,2
000dfc c002      	RJMP _0x1C8
000dfd 99b4      	SBIC 0x16,4
000dfe c001      	RJMP _0x1C9
                 _0x1C8:
000dff c002      	RJMP _0x1C7
                 _0x1C9:
000e00 940e 2020 	CALL SUBOPT_0x4D
                 _0x1C7:
000e02 99cc      	SBIC 0x19,4
000e03 c00a      	RJMP _0x1CB
000e04 99ce      	SBIC 0x19,6
000e05 c008      	RJMP _0x1CB
000e06 99b0      	SBIC 0x16,0
000e07 c006      	RJMP _0x1CB
000e08 99b6      	SBIC 0x16,6
000e09 c004      	RJMP _0x1CB
000e0a 99b2      	SBIC 0x16,2
000e0b c002      	RJMP _0x1CB
000e0c 9bb4      	SBIS 0x16,4
000e0d c001      	RJMP _0x1CC
                 _0x1CB:
000e0e c002      	RJMP _0x1CA
                 _0x1CC:
000e0f 940e 2027 	CALL SUBOPT_0x4E
                 _0x1CA:
000e11 9bcc      	SBIS 0x19,4
000e12 c00a      	RJMP _0x1CE
000e13 9bce      	SBIS 0x19,6
000e14 c008      	RJMP _0x1CE
000e15 9bb0      	SBIS 0x16,0
000e16 c006      	RJMP _0x1CE
000e17 99b6      	SBIC 0x16,6
000e18 c004      	RJMP _0x1CE
000e19 9bb2      	SBIS 0x16,2
000e1a c002      	RJMP _0x1CE
000e1b 9bb4      	SBIS 0x16,4
000e1c c001      	RJMP _0x1CF
                 _0x1CE:
000e1d c002      	RJMP _0x1CD
                 _0x1CF:
000e1e 940e 202e 	CALL SUBOPT_0x4F
                 _0x1CD:
000e20 9bcc      	SBIS 0x19,4
000e21 c00a      	RJMP _0x1D1
000e22 9bce      	SBIS 0x19,6
000e23 c008      	RJMP _0x1D1
000e24 99b0      	SBIC 0x16,0
000e25 c006      	RJMP _0x1D1
000e26 9bb6      	SBIS 0x16,6
000e27 c004      	RJMP _0x1D1
000e28 99b2      	SBIC 0x16,2
000e29 c002      	RJMP _0x1D1
000e2a 99b4      	SBIC 0x16,4
000e2b c001      	RJMP _0x1D2
                 _0x1D1:
000e2c c002      	RJMP _0x1D0
                 _0x1D2:
000e2d 940e 2035 	CALL SUBOPT_0x50
                 _0x1D0:
000e2f 9bcc      	SBIS 0x19,4
000e30 c00a      	RJMP _0x1D4
000e31 99ce      	SBIC 0x19,6
000e32 c008      	RJMP _0x1D4
000e33 9bb0      	SBIS 0x16,0
000e34 c006      	RJMP _0x1D4
000e35 99b6      	SBIC 0x16,6
000e36 c004      	RJMP _0x1D4
000e37 9bb2      	SBIS 0x16,2
000e38 c002      	RJMP _0x1D4
000e39 99b4      	SBIC 0x16,4
000e3a c001      	RJMP _0x1D5
                 _0x1D4:
000e3b c002      	RJMP _0x1D3
                 _0x1D5:
000e3c 940e 203c 	CALL SUBOPT_0x51
                 _0x1D3:
000e3e 99cc      	SBIC 0x19,4
000e3f c00a      	RJMP _0x1D7
000e40 9bce      	SBIS 0x19,6
000e41 c008      	RJMP _0x1D7
000e42 99b0      	SBIC 0x16,0
000e43 c006      	RJMP _0x1D7
000e44 9bb6      	SBIS 0x16,6
000e45 c004      	RJMP _0x1D7
000e46 9bb2      	SBIS 0x16,2
000e47 c002      	RJMP _0x1D7
000e48 99b4      	SBIC 0x16,4
000e49 c001      	RJMP _0x1D8
                 _0x1D7:
000e4a c002      	RJMP _0x1D6
                 _0x1D8:
000e4b 940e 2043 	CALL SUBOPT_0x52
                 _0x1D6:
000e4d 9bcc      	SBIS 0x19,4
000e4e c00a      	RJMP _0x1DA
000e4f 9bce      	SBIS 0x19,6
000e50 c008      	RJMP _0x1DA
000e51 99b0      	SBIC 0x16,0
000e52 c006      	RJMP _0x1DA
000e53 9bb6      	SBIS 0x16,6
000e54 c004      	RJMP _0x1DA
000e55 9bb2      	SBIS 0x16,2
000e56 c002      	RJMP _0x1DA
000e57 9bb4      	SBIS 0x16,4
000e58 c001      	RJMP _0x1DB
                 _0x1DA:
000e59 c002      	RJMP _0x1D9
                 _0x1DB:
000e5a 940e 204a 	CALL SUBOPT_0x53
                 _0x1D9:
000e5c 9bcc      	SBIS 0x19,4
000e5d c00a      	RJMP _0x1DD
000e5e 99ce      	SBIC 0x19,6
000e5f c008      	RJMP _0x1DD
000e60 9bb0      	SBIS 0x16,0
000e61 c006      	RJMP _0x1DD
000e62 9bb6      	SBIS 0x16,6
000e63 c004      	RJMP _0x1DD
000e64 99b2      	SBIC 0x16,2
000e65 c002      	RJMP _0x1DD
000e66 99b4      	SBIC 0x16,4
000e67 c001      	RJMP _0x1DE
                 _0x1DD:
000e68 c002      	RJMP _0x1DC
                 _0x1DE:
000e69 940e 2051 	CALL SUBOPT_0x54
                 _0x1DC:
000e6b 99cc      	SBIC 0x19,4
000e6c c00a      	RJMP _0x1E0
000e6d 9bce      	SBIS 0x19,6
000e6e c008      	RJMP _0x1E0
000e6f 9bb0      	SBIS 0x16,0
000e70 c006      	RJMP _0x1E0
000e71 99b6      	SBIC 0x16,6
000e72 c004      	RJMP _0x1E0
000e73 9bb2      	SBIS 0x16,2
000e74 c002      	RJMP _0x1E0
000e75 99b4      	SBIC 0x16,4
000e76 c001      	RJMP _0x1E1
                 _0x1E0:
000e77 c002      	RJMP _0x1DF
                 _0x1E1:
000e78 940e 2058 	CALL SUBOPT_0x55
                 _0x1DF:
000e7a 9bcc      	SBIS 0x19,4
000e7b c00a      	RJMP _0x1E3
000e7c 99ce      	SBIC 0x19,6
000e7d c008      	RJMP _0x1E3
000e7e 9bb0      	SBIS 0x16,0
000e7f c006      	RJMP _0x1E3
000e80 9bb6      	SBIS 0x16,6
000e81 c004      	RJMP _0x1E3
000e82 9bb2      	SBIS 0x16,2
000e83 c002      	RJMP _0x1E3
000e84 9bb4      	SBIS 0x16,4
000e85 c001      	RJMP _0x1E4
                 _0x1E3:
000e86 c002      	RJMP _0x1E2
                 _0x1E4:
000e87 940e 205f 	CALL SUBOPT_0x56
                 _0x1E2:
000e89 99cc      	SBIC 0x19,4
000e8a c00a      	RJMP _0x1E6
000e8b 9bce      	SBIS 0x19,6
000e8c c008      	RJMP _0x1E6
000e8d 9bb0      	SBIS 0x16,0
000e8e c006      	RJMP _0x1E6
000e8f 9bb6      	SBIS 0x16,6
000e90 c004      	RJMP _0x1E6
000e91 99b2      	SBIC 0x16,2
000e92 c002      	RJMP _0x1E6
000e93 99b4      	SBIC 0x16,4
000e94 c001      	RJMP _0x1E7
                 _0x1E6:
000e95 c002      	RJMP _0x1E5
                 _0x1E7:
000e96 940e 2066 	CALL SUBOPT_0x57
                 _0x1E5:
000e98 99cc      	SBIC 0x19,4
000e99 c00a      	RJMP _0x1E9
000e9a 9bce      	SBIS 0x19,6
000e9b c008      	RJMP _0x1E9
000e9c 9bb0      	SBIS 0x16,0
000e9d c006      	RJMP _0x1E9
000e9e 9bb6      	SBIS 0x16,6
000e9f c004      	RJMP _0x1E9
000ea0 9bb2      	SBIS 0x16,2
000ea1 c002      	RJMP _0x1E9
000ea2 9bb4      	SBIS 0x16,4
000ea3 c001      	RJMP _0x1EA
                 _0x1E9:
000ea4 c002      	RJMP _0x1E8
                 _0x1EA:
000ea5 940e 206d 	CALL SUBOPT_0x58
                 _0x1E8:
000ea7 99cc      	SBIC 0x19,4
000ea8 c00a      	RJMP _0x1EC
000ea9 99ce      	SBIC 0x19,6
000eaa c008      	RJMP _0x1EC
000eab 99b0      	SBIC 0x16,0
000eac c006      	RJMP _0x1EC
000ead 99b6      	SBIC 0x16,6
000eae c004      	RJMP _0x1EC
000eaf 9bb2      	SBIS 0x16,2
000eb0 c002      	RJMP _0x1EC
000eb1 9bb4      	SBIS 0x16,4
000eb2 c001      	RJMP _0x1ED
                 _0x1EC:
000eb3 c002      	RJMP _0x1EB
                 _0x1ED:
000eb4 940e 2074 	CALL SUBOPT_0x59
                 _0x1EB:
000eb6 99cc      	SBIC 0x19,4
000eb7 c00a      	RJMP _0x1EF
000eb8 99ce      	SBIC 0x19,6
000eb9 c008      	RJMP _0x1EF
000eba 99b0      	SBIC 0x16,0
000ebb c006      	RJMP _0x1EF
000ebc 9bb6      	SBIS 0x16,6
000ebd c004      	RJMP _0x1EF
000ebe 99b2      	SBIC 0x16,2
000ebf c002      	RJMP _0x1EF
000ec0 9bb4      	SBIS 0x16,4
000ec1 c001      	RJMP _0x1F0
                 _0x1EF:
000ec2 c002      	RJMP _0x1EE
                 _0x1F0:
000ec3 940e 207b 	CALL SUBOPT_0x5A
                 _0x1EE:
000ec5 99cc      	SBIC 0x19,4
000ec6 c00a      	RJMP _0x1F2
000ec7 99ce      	SBIC 0x19,6
000ec8 c008      	RJMP _0x1F2
000ec9 9bb0      	SBIS 0x16,0
000eca c006      	RJMP _0x1F2
000ecb 99b6      	SBIC 0x16,6
000ecc c004      	RJMP _0x1F2
000ecd 99b2      	SBIC 0x16,2
000ece c002      	RJMP _0x1F2
000ecf 9bb4      	SBIS 0x16,4
000ed0 c001      	RJMP _0x1F3
                 _0x1F2:
000ed1 c002      	RJMP _0x1F1
                 _0x1F3:
000ed2 940e 2082 	CALL SUBOPT_0x5B
                 _0x1F1:
000ed4 99cc      	SBIC 0x19,4
000ed5 c00a      	RJMP _0x1F5
000ed6 9bce      	SBIS 0x19,6
000ed7 c008      	RJMP _0x1F5
000ed8 99b0      	SBIC 0x16,0
000ed9 c006      	RJMP _0x1F5
000eda 99b6      	SBIC 0x16,6
000edb c004      	RJMP _0x1F5
000edc 99b2      	SBIC 0x16,2
000edd c002      	RJMP _0x1F5
000ede 9bb4      	SBIS 0x16,4
000edf c001      	RJMP _0x1F6
                 _0x1F5:
000ee0 c002      	RJMP _0x1F4
                 _0x1F6:
000ee1 940e 2089 	CALL SUBOPT_0x5C
                 _0x1F4:
000ee3 99cc      	SBIC 0x19,4
000ee4 c00a      	RJMP _0x1F8
000ee5 99ce      	SBIC 0x19,6
000ee6 c008      	RJMP _0x1F8
000ee7 99b0      	SBIC 0x16,0
000ee8 c006      	RJMP _0x1F8
000ee9 9bb6      	SBIS 0x16,6
000eea c004      	RJMP _0x1F8
000eeb 9bb2      	SBIS 0x16,2
000eec c002      	RJMP _0x1F8
000eed 9bb4      	SBIS 0x16,4
000eee c001      	RJMP _0x1F9
                 _0x1F8:
000eef c002      	RJMP _0x1F7
                 _0x1F9:
000ef0 940e 2090 	CALL SUBOPT_0x5D
                 _0x1F7:
000ef2 99cc      	SBIC 0x19,4
000ef3 c00a      	RJMP _0x1FB
000ef4 99ce      	SBIC 0x19,6
000ef5 c008      	RJMP _0x1FB
000ef6 9bb0      	SBIS 0x16,0
000ef7 c006      	RJMP _0x1FB
000ef8 9bb6      	SBIS 0x16,6
000ef9 c004      	RJMP _0x1FB
000efa 99b2      	SBIC 0x16,2
000efb c002      	RJMP _0x1FB
000efc 9bb4      	SBIS 0x16,4
000efd c001      	RJMP _0x1FC
                 _0x1FB:
000efe c002      	RJMP _0x1FA
                 _0x1FC:
000eff 940e 2097 	CALL SUBOPT_0x5E
                 _0x1FA:
000f01 99cc      	SBIC 0x19,4
000f02 c00a      	RJMP _0x1FE
000f03 9bce      	SBIS 0x19,6
000f04 c008      	RJMP _0x1FE
000f05 9bb0      	SBIS 0x16,0
000f06 c006      	RJMP _0x1FE
000f07 99b6      	SBIC 0x16,6
000f08 c004      	RJMP _0x1FE
000f09 99b2      	SBIC 0x16,2
000f0a c002      	RJMP _0x1FE
000f0b 9bb4      	SBIS 0x16,4
000f0c c001      	RJMP _0x1FF
                 _0x1FE:
000f0d c002      	RJMP _0x1FD
                 _0x1FF:
000f0e 940e 209e 	CALL SUBOPT_0x5F
                 _0x1FD:
000f10 99cc      	SBIC 0x19,4
000f11 c00a      	RJMP _0x201
000f12 9bce      	SBIS 0x19,6
000f13 c008      	RJMP _0x201
000f14 99b0      	SBIC 0x16,0
000f15 c006      	RJMP _0x201
000f16 9bb6      	SBIS 0x16,6
000f17 c004      	RJMP _0x201
000f18 99b2      	SBIC 0x16,2
000f19 c002      	RJMP _0x201
000f1a 99b4      	SBIC 0x16,4
000f1b c001      	RJMP _0x202
                 _0x201:
000f1c c002      	RJMP _0x200
                 _0x202:
000f1d 940e 20a5 	CALL SUBOPT_0x60
                 _0x200:
000f1f 9bcc      	SBIS 0x19,4
000f20 c00a      	RJMP _0x204
000f21 99ce      	SBIC 0x19,6
000f22 c008      	RJMP _0x204
000f23 9bb0      	SBIS 0x16,0
000f24 c006      	RJMP _0x204
000f25 99b6      	SBIC 0x16,6
000f26 c004      	RJMP _0x204
000f27 9bb2      	SBIS 0x16,2
000f28 c002      	RJMP _0x204
000f29 9bb4      	SBIS 0x16,4
000f2a c001      	RJMP _0x205
                 _0x204:
000f2b c002      	RJMP _0x203
                 _0x205:
000f2c 940e 20ac 	CALL SUBOPT_0x61
                 _0x203:
000f2e 99cc      	SBIC 0x19,4
000f2f c00a      	RJMP _0x207
000f30 9bce      	SBIS 0x19,6
000f31 c008      	RJMP _0x207
000f32 9bb0      	SBIS 0x16,0
000f33 c006      	RJMP _0x207
000f34 99b6      	SBIC 0x16,6
000f35 c004      	RJMP _0x207
000f36 99b2      	SBIC 0x16,2
000f37 c002      	RJMP _0x207
000f38 99b4      	SBIC 0x16,4
000f39 c001      	RJMP _0x208
                 _0x207:
000f3a c002      	RJMP _0x206
                 _0x208:
000f3b 940e 20b3 	CALL SUBOPT_0x62
                 _0x206:
000f3d 9bcc      	SBIS 0x19,4
000f3e c00a      	RJMP _0x20A
000f3f 99ce      	SBIC 0x19,6
000f40 c008      	RJMP _0x20A
000f41 99b0      	SBIC 0x16,0
000f42 c006      	RJMP _0x20A
000f43 9bb6      	SBIS 0x16,6
000f44 c004      	RJMP _0x20A
000f45 9bb2      	SBIS 0x16,2
000f46 c002      	RJMP _0x20A
000f47 9bb4      	SBIS 0x16,4
000f48 c001      	RJMP _0x20B
                 _0x20A:
000f49 c002      	RJMP _0x209
                 _0x20B:
000f4a 940e 20ba 	CALL SUBOPT_0x63
                 _0x209:
000f4c 99cc      	SBIC 0x19,4
000f4d c00a      	RJMP _0x20D
000f4e 99ce      	SBIC 0x19,6
000f4f c008      	RJMP _0x20D
000f50 9bb0      	SBIS 0x16,0
000f51 c006      	RJMP _0x20D
000f52 99b6      	SBIC 0x16,6
000f53 c004      	RJMP _0x20D
000f54 9bb2      	SBIS 0x16,2
000f55 c002      	RJMP _0x20D
000f56 9bb4      	SBIS 0x16,4
000f57 c001      	RJMP _0x20E
                 _0x20D:
000f58 c002      	RJMP _0x20C
                 _0x20E:
000f59 940e 20c1 	CALL SUBOPT_0x64
                 _0x20C:
000f5b 99cc      	SBIC 0x19,4
000f5c c00a      	RJMP _0x210
000f5d 99ce      	SBIC 0x19,6
000f5e c008      	RJMP _0x210
000f5f 9bb0      	SBIS 0x16,0
000f60 c006      	RJMP _0x210
000f61 99b6      	SBIC 0x16,6
000f62 c004      	RJMP _0x210
000f63 99b2      	SBIC 0x16,2
000f64 c002      	RJMP _0x210
000f65 99b4      	SBIC 0x16,4
000f66 c001      	RJMP _0x211
                 _0x210:
000f67 c002      	RJMP _0x20F
                 _0x211:
000f68 940e 20c8 	CALL SUBOPT_0x65
                 _0x20F:
000f6a 99cc      	SBIC 0x19,4
000f6b c00a      	RJMP _0x213
000f6c 9bce      	SBIS 0x19,6
000f6d c008      	RJMP _0x213
000f6e 99b0      	SBIC 0x16,0
000f6f c006      	RJMP _0x213
000f70 99b6      	SBIC 0x16,6
000f71 c004      	RJMP _0x213
000f72 9bb2      	SBIS 0x16,2
000f73 c002      	RJMP _0x213
000f74 9bb4      	SBIS 0x16,4
000f75 c001      	RJMP _0x214
                 _0x213:
000f76 c002      	RJMP _0x212
                 _0x214:
000f77 940e 20cf 	CALL SUBOPT_0x66
                 _0x212:
000f79 99cc      	SBIC 0x19,4
000f7a c00a      	RJMP _0x216
000f7b 9bce      	SBIS 0x19,6
000f7c c008      	RJMP _0x216
000f7d 99b0      	SBIC 0x16,0
000f7e c006      	RJMP _0x216
000f7f 99b6      	SBIC 0x16,6
000f80 c004      	RJMP _0x216
000f81 99b2      	SBIC 0x16,2
000f82 c002      	RJMP _0x216
000f83 99b4      	SBIC 0x16,4
000f84 c001      	RJMP _0x217
                 _0x216:
000f85 c002      	RJMP _0x215
                 _0x217:
000f86 940e 20d6 	CALL SUBOPT_0x67
                 _0x215:
000f88 9bcc      	SBIS 0x19,4
000f89 c00a      	RJMP _0x219
000f8a 99ce      	SBIC 0x19,6
000f8b c008      	RJMP _0x219
000f8c 99b0      	SBIC 0x16,0
000f8d c006      	RJMP _0x219
000f8e 99b6      	SBIC 0x16,6
000f8f c004      	RJMP _0x219
000f90 9bb2      	SBIS 0x16,2
000f91 c002      	RJMP _0x219
000f92 9bb4      	SBIS 0x16,4
000f93 c001      	RJMP _0x21A
                 _0x219:
000f94 c002      	RJMP _0x218
                 _0x21A:
000f95 940e 20dd 	CALL SUBOPT_0x68
                 _0x218:
000f97 9bcc      	SBIS 0x19,4
000f98 c00a      	RJMP _0x21C
000f99 99ce      	SBIC 0x19,6
000f9a c008      	RJMP _0x21C
000f9b 99b0      	SBIC 0x16,0
000f9c c006      	RJMP _0x21C
000f9d 9bb6      	SBIS 0x16,6
000f9e c004      	RJMP _0x21C
000f9f 99b2      	SBIC 0x16,2
000fa0 c002      	RJMP _0x21C
000fa1 9bb4      	SBIS 0x16,4
000fa2 c001      	RJMP _0x21D
                 _0x21C:
000fa3 c002      	RJMP _0x21B
                 _0x21D:
000fa4 940e 20e4 	CALL SUBOPT_0x69
                 _0x21B:
000fa6 99cc      	SBIC 0x19,4
000fa7 c00a      	RJMP _0x21F
000fa8 99ce      	SBIC 0x19,6
000fa9 c008      	RJMP _0x21F
000faa 9bb0      	SBIS 0x16,0
000fab c006      	RJMP _0x21F
000fac 9bb6      	SBIS 0x16,6
000fad c004      	RJMP _0x21F
000fae 99b2      	SBIC 0x16,2
000faf c002      	RJMP _0x21F
000fb0 99b4      	SBIC 0x16,4
000fb1 c001      	RJMP _0x220
                 _0x21F:
000fb2 c002      	RJMP _0x21E
                 _0x220:
000fb3 940e 20eb 	CALL SUBOPT_0x6A
                 _0x21E:
000fb5 9bcc      	SBIS 0x19,4
000fb6 c00a      	RJMP _0x222
000fb7 99ce      	SBIC 0x19,6
000fb8 c008      	RJMP _0x222
000fb9 99b0      	SBIC 0x16,0
000fba c006      	RJMP _0x222
000fbb 9bb6      	SBIS 0x16,6
000fbc c004      	RJMP _0x222
000fbd 9bb2      	SBIS 0x16,2
000fbe c002      	RJMP _0x222
000fbf 9bb4      	SBIS 0x16,4
000fc0 c001      	RJMP _0x223
                 _0x222:
000fc1 c002      	RJMP _0x221
                 _0x223:
000fc2 940e 20f2 	CALL SUBOPT_0x6B
                 _0x221:
000fc4 99cc      	SBIC 0x19,4
000fc5 c00a      	RJMP _0x225
000fc6 99ce      	SBIC 0x19,6
000fc7 c008      	RJMP _0x225
000fc8 9bb0      	SBIS 0x16,0
000fc9 c006      	RJMP _0x225
000fca 9bb6      	SBIS 0x16,6
000fcb c004      	RJMP _0x225
000fcc 99b2      	SBIC 0x16,2
000fcd c002      	RJMP _0x225
000fce 99b4      	SBIC 0x16,4
000fcf c001      	RJMP _0x226
                 _0x225:
000fd0 c002      	RJMP _0x224
                 _0x226:
000fd1 940e 20f9 	CALL SUBOPT_0x6C
                 _0x224:
000fd3 99cc      	SBIC 0x19,4
000fd4 c00a      	RJMP _0x228
000fd5 99ce      	SBIC 0x19,6
000fd6 c008      	RJMP _0x228
000fd7 9bb0      	SBIS 0x16,0
000fd8 c006      	RJMP _0x228
000fd9 99b6      	SBIC 0x16,6
000fda c004      	RJMP _0x228
000fdb 9bb2      	SBIS 0x16,2
000fdc c002      	RJMP _0x228
000fdd 99b4      	SBIC 0x16,4
000fde c001      	RJMP _0x229
                 _0x228:
000fdf c002      	RJMP _0x227
                 _0x229:
000fe0 940e 2100 	CALL SUBOPT_0x6D
                 _0x227:
000fe2 99cc      	SBIC 0x19,4
000fe3 c00a      	RJMP _0x22B
000fe4 99ce      	SBIC 0x19,6
000fe5 c008      	RJMP _0x22B
000fe6 99b0      	SBIC 0x16,0
000fe7 c006      	RJMP _0x22B
000fe8 9bb6      	SBIS 0x16,6
000fe9 c004      	RJMP _0x22B
000fea 99b2      	SBIC 0x16,2
000feb c002      	RJMP _0x22B
000fec 99b4      	SBIC 0x16,4
000fed c001      	RJMP _0x22C
                 _0x22B:
000fee c002      	RJMP _0x22A
                 _0x22C:
000fef 940e 2107 	CALL SUBOPT_0x6E
                 _0x22A:
000ff1 9bcc      	SBIS 0x19,4
000ff2 c00a      	RJMP _0x22E
000ff3 9bce      	SBIS 0x19,6
000ff4 c008      	RJMP _0x22E
000ff5 99b0      	SBIC 0x16,0
000ff6 c006      	RJMP _0x22E
000ff7 99b6      	SBIC 0x16,6
000ff8 c004      	RJMP _0x22E
000ff9 9bb2      	SBIS 0x16,2
000ffa c002      	RJMP _0x22E
000ffb 9bb4      	SBIS 0x16,4
000ffc c001      	RJMP _0x22F
                 _0x22E:
000ffd c002      	RJMP _0x22D
                 _0x22F:
000ffe 940e 210e 	CALL SUBOPT_0x6F
                 _0x22D:
001000 99cc      	SBIC 0x19,4
001001 c00a      	RJMP _0x231
001002 9bce      	SBIS 0x19,6
001003 c008      	RJMP _0x231
001004 9bb0      	SBIS 0x16,0
001005 c006      	RJMP _0x231
001006 9bb6      	SBIS 0x16,6
001007 c004      	RJMP _0x231
001008 99b2      	SBIC 0x16,2
001009 c002      	RJMP _0x231
00100a 9bb4      	SBIS 0x16,4
00100b c001      	RJMP _0x232
                 _0x231:
00100c c002      	RJMP _0x230
                 _0x232:
00100d 940e 2115 	CALL SUBOPT_0x70
                 _0x230:
00100f 99cc      	SBIC 0x19,4
001010 c00a      	RJMP _0x234
001011 9bce      	SBIS 0x19,6
001012 c008      	RJMP _0x234
001013 99b0      	SBIC 0x16,0
001014 c006      	RJMP _0x234
001015 9bb6      	SBIS 0x16,6
001016 c004      	RJMP _0x234
001017 99b2      	SBIC 0x16,2
001018 c002      	RJMP _0x234
001019 9bb4      	SBIS 0x16,4
00101a c001      	RJMP _0x235
                 _0x234:
00101b c002      	RJMP _0x233
                 _0x235:
00101c 940e 211c 	CALL SUBOPT_0x71
                 _0x233:
00101e 9bcc      	SBIS 0x19,4
00101f c00a      	RJMP _0x237
001020 9bce      	SBIS 0x19,6
001021 c008      	RJMP _0x237
001022 99b0      	SBIC 0x16,0
001023 c006      	RJMP _0x237
001024 9bb6      	SBIS 0x16,6
001025 c004      	RJMP _0x237
001026 99b2      	SBIC 0x16,2
001027 c002      	RJMP _0x237
001028 9bb4      	SBIS 0x16,4
001029 c001      	RJMP _0x238
                 _0x237:
00102a c002      	RJMP _0x236
                 _0x238:
00102b 940e 2123 	CALL SUBOPT_0x72
                 _0x236:
00102d 9bcc      	SBIS 0x19,4
00102e c00a      	RJMP _0x23A
00102f 99ce      	SBIC 0x19,6
001030 c008      	RJMP _0x23A
001031 9bb0      	SBIS 0x16,0
001032 c006      	RJMP _0x23A
001033 99b6      	SBIC 0x16,6
001034 c004      	RJMP _0x23A
001035 99b2      	SBIC 0x16,2
001036 c002      	RJMP _0x23A
001037 9bb4      	SBIS 0x16,4
001038 c001      	RJMP _0x23B
                 _0x23A:
001039 c002      	RJMP _0x239
                 _0x23B:
00103a 940e 212a 	CALL SUBOPT_0x73
                 _0x239:
00103c 9bcc      	SBIS 0x19,4
00103d c00a      	RJMP _0x23D
00103e 99ce      	SBIC 0x19,6
00103f c008      	RJMP _0x23D
001040 9bb0      	SBIS 0x16,0
001041 c006      	RJMP _0x23D
001042 9bb6      	SBIS 0x16,6
001043 c004      	RJMP _0x23D
001044 99b2      	SBIC 0x16,2
001045 c002      	RJMP _0x23D
001046 9bb4      	SBIS 0x16,4
001047 c001      	RJMP _0x23E
                 _0x23D:
001048 c002      	RJMP _0x23C
                 _0x23E:
001049 940e 2131 	CALL SUBOPT_0x74
                 _0x23C:
00104b 99cc      	SBIC 0x19,4
00104c c00a      	RJMP _0x240
00104d 9bce      	SBIS 0x19,6
00104e c008      	RJMP _0x240
00104f 99b0      	SBIC 0x16,0
001050 c006      	RJMP _0x240
001051 99b6      	SBIC 0x16,6
001052 c004      	RJMP _0x240
001053 9bb2      	SBIS 0x16,2
001054 c002      	RJMP _0x240
001055 99b4      	SBIC 0x16,4
001056 c001      	RJMP _0x241
                 _0x240:
001057 c002      	RJMP _0x23F
                 _0x241:
001058 940e 2138 	CALL SUBOPT_0x75
                 _0x23F:
00105a 940e 1f2a 	CALL SUBOPT_0x2E
00105c 01df      	MOVW R26,R30
00105d 01cb      	MOVW R24,R22
                +
00105e e0e0     +LDI R30 , LOW ( 0x41F00000 )
00105f e0f0     +LDI R31 , HIGH ( 0x41F00000 )
001060 ef60     +LDI R22 , BYTE3 ( 0x41F00000 )
001061 e471     +LDI R23 , BYTE4 ( 0x41F00000 )
                 	__GETD1N 0x41F00000
001062 940e 2393 	CALL __CMPF12
001064 f410      	BRSH _0x242
001065 940e 213f 	CALL SUBOPT_0x76
                 _0x242:
001067 940e 1e49 	CALL SUBOPT_0x13
001069 f049      	BREQ _0x244
00106a 940e 1e4f 	CALL SUBOPT_0x14
00106c f031      	BREQ _0x244
00106d 940e 1e55 	CALL SUBOPT_0x15
00106f f019      	BREQ _0x244
001070 940e 1e5b 	CALL SUBOPT_0x16
001072 f409      	BRNE _0x245
                 _0x244:
001073 c004      	RJMP _0x243
                 _0x245:
001074 e4e1      	LDI  R30,LOW(65)
001075 e0f0      	LDI  R31,HIGH(65)
001076 940e 2146 	CALL SUBOPT_0x77
                 _0x243:
001078 940e 1e49 	CALL SUBOPT_0x13
00107a f449      	BRNE _0x247
00107b 940e 1e4f 	CALL SUBOPT_0x14
00107d f431      	BRNE _0x247
00107e 940e 1e55 	CALL SUBOPT_0x15
001080 f419      	BRNE _0x247
001081 940e 1e5b 	CALL SUBOPT_0x16
001083 f009      	BREQ _0x248
                 _0x247:
001084 c004      	RJMP _0x246
                 _0x248:
001085 e4e2      	LDI  R30,LOW(66)
001086 e0f0      	LDI  R31,HIGH(66)
001087 940e 2146 	CALL SUBOPT_0x77
                 _0x246:
001089 940e 1e49 	CALL SUBOPT_0x13
00108b f449      	BRNE _0x24A
00108c 940e 1e4f 	CALL SUBOPT_0x14
00108e f031      	BREQ _0x24A
00108f 940e 1e55 	CALL SUBOPT_0x15
001091 f019      	BREQ _0x24A
001092 940e 1e5b 	CALL SUBOPT_0x16
001094 f409      	BRNE _0x24B
                 _0x24A:
001095 c004      	RJMP _0x249
                 _0x24B:
001096 e4e3      	LDI  R30,LOW(67)
001097 e0f0      	LDI  R31,HIGH(67)
001098 940e 2146 	CALL SUBOPT_0x77
                 _0x249:
00109a 940e 1e49 	CALL SUBOPT_0x13
00109c f049      	BREQ _0x24D
00109d 940e 1e4f 	CALL SUBOPT_0x14
00109f f031      	BREQ _0x24D
0010a0 940e 1e55 	CALL SUBOPT_0x15
0010a2 f019      	BREQ _0x24D
0010a3 940e 1e5b 	CALL SUBOPT_0x16
0010a5 f009      	BREQ _0x24E
                 _0x24D:
0010a6 c004      	RJMP _0x24C
                 _0x24E:
0010a7 e4e6      	LDI  R30,LOW(70)
0010a8 e0f0      	LDI  R31,HIGH(70)
0010a9 940e 2146 	CALL SUBOPT_0x77
                 _0x24C:
0010ab 940e 1e49 	CALL SUBOPT_0x13
0010ad f049      	BREQ _0x250
0010ae 940e 1e4f 	CALL SUBOPT_0x14
0010b0 f431      	BRNE _0x250
0010b1 940e 1e55 	CALL SUBOPT_0x15
0010b3 f419      	BRNE _0x250
0010b4 940e 1e5b 	CALL SUBOPT_0x16
0010b6 f409      	BRNE _0x251
                 _0x250:
0010b7 c004      	RJMP _0x24F
                 _0x251:
0010b8 e4ea      	LDI  R30,LOW(74)
0010b9 e0f0      	LDI  R31,HIGH(74)
0010ba 940e 2146 	CALL SUBOPT_0x77
                 _0x24F:
0010bc 940e 1e49 	CALL SUBOPT_0x13
0010be f449      	BRNE _0x253
0010bf 940e 1e4f 	CALL SUBOPT_0x14
0010c1 f431      	BRNE _0x253
0010c2 940e 1e55 	CALL SUBOPT_0x15
0010c4 f019      	BREQ _0x253
0010c5 940e 1e5b 	CALL SUBOPT_0x16
0010c7 f409      	BRNE _0x254
                 _0x253:
0010c8 c004      	RJMP _0x252
                 _0x254:
0010c9 e5e0      	LDI  R30,LOW(80)
0010ca e0f0      	LDI  R31,HIGH(80)
0010cb 940e 2146 	CALL SUBOPT_0x77
                 _0x252:
0010cd 940e 1e55 	CALL SUBOPT_0x15
0010cf f049      	BREQ _0x256
0010d0 940e 1e5b 	CALL SUBOPT_0x16
0010d2 f431      	BRNE _0x256
0010d3 940e 1e49 	CALL SUBOPT_0x13
0010d5 f019      	BREQ _0x256
0010d6 940e 1e4f 	CALL SUBOPT_0x14
0010d8 f409      	BRNE _0x257
                 _0x256:
0010d9 c004      	RJMP _0x255
                 _0x257:
0010da e5e1      	LDI  R30,LOW(81)
0010db e0f0      	LDI  R31,HIGH(81)
0010dc 940e 2146 	CALL SUBOPT_0x77
                 _0x255:
0010de 9508      	RET
                 ; .FEND
                 _detectorcase_line:
                 ; .FSTART _detectorcase_line
0010df 940e 1d1c 	CALL _lcd_clear
0010e1 91e0 07f8 	LDS  R30,_detector_value_line
0010e3 91f0 07f9 	LDS  R31,_detector_value_line+1
0010e5 30e1      	CPI  R30,LOW(0x1)
0010e6 e0a0      	LDI  R26,HIGH(0x1)
0010e7 07fa      	CPC  R31,R26
0010e8 f439      	BRNE _0x25B
0010e9 940e 1f5e 	CALL SUBOPT_0x33
0010eb 940e 214b 	CALL SUBOPT_0x78
0010ed 940e 1f63 	CALL SUBOPT_0x34
0010ef c2e5      	RJMP _0x25A
                 _0x25B:
0010f0 30e2      	CPI  R30,LOW(0x2)
0010f1 e0a0      	LDI  R26,HIGH(0x2)
0010f2 07fa      	CPC  R31,R26
0010f3 f439      	BRNE _0x25C
0010f4 940e 214b 	CALL SUBOPT_0x78
0010f6 940e 1f5e 	CALL SUBOPT_0x33
0010f8 940e 1f63 	CALL SUBOPT_0x34
0010fa c2da      	RJMP _0x25A
                 _0x25C:
0010fb 30e3      	CPI  R30,LOW(0x3)
0010fc e0a0      	LDI  R26,HIGH(0x3)
0010fd 07fa      	CPC  R31,R26
0010fe f439      	BRNE _0x25D
0010ff 940e 214b 	CALL SUBOPT_0x78
001101 940e 1f5e 	CALL SUBOPT_0x33
001103 940e 1f56 	CALL SUBOPT_0x32
001105 c2cf      	RJMP _0x25A
                 _0x25D:
001106 30e4      	CPI  R30,LOW(0x4)
001107 e0a0      	LDI  R26,HIGH(0x4)
001108 07fa      	CPC  R31,R26
001109 f439      	BRNE _0x25E
00110a 940e 1f5e 	CALL SUBOPT_0x33
00110c 940e 214b 	CALL SUBOPT_0x78
00110e 940e 1f56 	CALL SUBOPT_0x32
001110 c2c4      	RJMP _0x25A
                 _0x25E:
001111 30e5      	CPI  R30,LOW(0x5)
001112 e0a0      	LDI  R26,HIGH(0x5)
001113 07fa      	CPC  R31,R26
001114 f439      	BRNE _0x25F
001115 940e 1f5e 	CALL SUBOPT_0x33
001117 940e 214b 	CALL SUBOPT_0x78
001119 940e 1f63 	CALL SUBOPT_0x34
00111b c2b9      	RJMP _0x25A
                 _0x25F:
00111c 30e6      	CPI  R30,LOW(0x6)
00111d e0a0      	LDI  R26,HIGH(0x6)
00111e 07fa      	CPC  R31,R26
00111f f439      	BRNE _0x260
001120 940e 214b 	CALL SUBOPT_0x78
001122 e2e0      	LDI  R30,LOW(800)
001123 e0f3      	LDI  R31,HIGH(800)
001124 940e 2150 	CALL SUBOPT_0x79
001126 c2ae      	RJMP _0x25A
                 _0x260:
001127 30e7      	CPI  R30,LOW(0x7)
001128 e0a0      	LDI  R26,HIGH(0x7)
001129 07fa      	CPC  R31,R26
00112a f429      	BRNE _0x261
00112b 940e 2153 	CALL SUBOPT_0x7A
00112d 940e 1f63 	CALL SUBOPT_0x34
00112f c2a5      	RJMP _0x25A
                 _0x261:
001130 30e8      	CPI  R30,LOW(0x8)
001131 e0a0      	LDI  R26,HIGH(0x8)
001132 07fa      	CPC  R31,R26
001133 f429      	BRNE _0x262
001134 940e 1f51 	CALL SUBOPT_0x31
001136 940e 2158 	CALL SUBOPT_0x7B
001138 c29c      	RJMP _0x25A
                 _0x262:
001139 30e9      	CPI  R30,LOW(0x9)
00113a e0a0      	LDI  R26,HIGH(0x9)
00113b 07fa      	CPC  R31,R26
00113c f439      	BRNE _0x263
00113d 940e 1f5e 	CALL SUBOPT_0x33
00113f 940e 1f5e 	CALL SUBOPT_0x33
001141 940e 1f56 	CALL SUBOPT_0x32
001143 c291      	RJMP _0x25A
                 _0x263:
001144 30ea      	CPI  R30,LOW(0xA)
001145 e0a0      	LDI  R26,HIGH(0xA)
001146 07fa      	CPC  R31,R26
001147 f429      	BRNE _0x264
001148 940e 1f51 	CALL SUBOPT_0x31
00114a 940e 2158 	CALL SUBOPT_0x7B
00114c c288      	RJMP _0x25A
                 _0x264:
00114d 30eb      	CPI  R30,LOW(0xB)
00114e e0a0      	LDI  R26,HIGH(0xB)
00114f 07fa      	CPC  R31,R26
001150 f429      	BRNE _0x265
001151 940e 1f51 	CALL SUBOPT_0x31
001153 940e 2158 	CALL SUBOPT_0x7B
001155 c27f      	RJMP _0x25A
                 _0x265:
001156 30ec      	CPI  R30,LOW(0xC)
001157 e0a0      	LDI  R26,HIGH(0xC)
001158 07fa      	CPC  R31,R26
001159 f439      	BRNE _0x266
00115a 940e 1f51 	CALL SUBOPT_0x31
00115c e3e2      	LDI  R30,LOW(50)
00115d e0f0      	LDI  R31,HIGH(50)
00115e 940e 2150 	CALL SUBOPT_0x79
001160 c274      	RJMP _0x25A
                 _0x266:
001161 30ed      	CPI  R30,LOW(0xD)
001162 e0a0      	LDI  R26,HIGH(0xD)
001163 07fa      	CPC  R31,R26
001164 f429      	BRNE _0x267
001165 940e 2153 	CALL SUBOPT_0x7A
001167 940e 1f63 	CALL SUBOPT_0x34
001169 c26b      	RJMP _0x25A
                 _0x267:
00116a 30ee      	CPI  R30,LOW(0xE)
00116b e0a0      	LDI  R26,HIGH(0xE)
00116c 07fa      	CPC  R31,R26
00116d f439      	BRNE _0x268
00116e 940e 1f51 	CALL SUBOPT_0x31
001170 940e 1f5e 	CALL SUBOPT_0x33
001172 940e 1f63 	CALL SUBOPT_0x34
001174 c260      	RJMP _0x25A
                 _0x268:
001175 30ef      	CPI  R30,LOW(0xF)
001176 e0a0      	LDI  R26,HIGH(0xF)
001177 07fa      	CPC  R31,R26
001178 f439      	BRNE _0x269
001179 940e 1f5e 	CALL SUBOPT_0x33
00117b 940e 1f51 	CALL SUBOPT_0x31
00117d 940e 1f63 	CALL SUBOPT_0x34
00117f c255      	RJMP _0x25A
                 _0x269:
001180 31e0      	CPI  R30,LOW(0x10)
001181 e0a0      	LDI  R26,HIGH(0x10)
001182 07fa      	CPC  R31,R26
001183 f429      	BRNE _0x26A
001184 940e 215b 	CALL SUBOPT_0x7C
001186 940e 1f63 	CALL SUBOPT_0x34
001188 c24c      	RJMP _0x25A
                 _0x26A:
001189 31e1      	CPI  R30,LOW(0x11)
00118a e0a0      	LDI  R26,HIGH(0x11)
00118b 07fa      	CPC  R31,R26
00118c f429      	BRNE _0x26B
00118d 940e 215b 	CALL SUBOPT_0x7C
00118f 940e 1f63 	CALL SUBOPT_0x34
001191 c243      	RJMP _0x25A
                 _0x26B:
001192 31e2      	CPI  R30,LOW(0x12)
001193 e0a0      	LDI  R26,HIGH(0x12)
001194 07fa      	CPC  R31,R26
001195 f429      	BRNE _0x26C
001196 940e 215b 	CALL SUBOPT_0x7C
001198 940e 1f63 	CALL SUBOPT_0x34
00119a c23a      	RJMP _0x25A
                 _0x26C:
00119b 31e3      	CPI  R30,LOW(0x13)
00119c e0a0      	LDI  R26,HIGH(0x13)
00119d 07fa      	CPC  R31,R26
00119e f429      	BRNE _0x26D
00119f 940e 2160 	CALL SUBOPT_0x7D
0011a1 940e 1f63 	CALL SUBOPT_0x34
0011a3 c231      	RJMP _0x25A
                 _0x26D:
0011a4 31e4      	CPI  R30,LOW(0x14)
0011a5 e0a0      	LDI  R26,HIGH(0x14)
0011a6 07fa      	CPC  R31,R26
0011a7 f429      	BRNE _0x26E
0011a8 940e 2160 	CALL SUBOPT_0x7D
0011aa 940e 1f63 	CALL SUBOPT_0x34
0011ac c228      	RJMP _0x25A
                 _0x26E:
0011ad 31e5      	CPI  R30,LOW(0x15)
0011ae e0a0      	LDI  R26,HIGH(0x15)
0011af 07fa      	CPC  R31,R26
0011b0 f429      	BRNE _0x26F
0011b1 940e 2165 	CALL SUBOPT_0x7E
0011b3 940e 216a 	CALL SUBOPT_0x7F
0011b5 c21f      	RJMP _0x25A
                 _0x26F:
0011b6 31e6      	CPI  R30,LOW(0x16)
0011b7 e0a0      	LDI  R26,HIGH(0x16)
0011b8 07fa      	CPC  R31,R26
0011b9 f429      	BRNE _0x270
0011ba 940e 1f51 	CALL SUBOPT_0x31
0011bc 940e 2158 	CALL SUBOPT_0x7B
0011be c216      	RJMP _0x25A
                 _0x270:
0011bf 31e7      	CPI  R30,LOW(0x17)
0011c0 e0a0      	LDI  R26,HIGH(0x17)
0011c1 07fa      	CPC  R31,R26
0011c2 f429      	BRNE _0x271
0011c3 940e 216d 	CALL SUBOPT_0x80
0011c5 940e 1f63 	CALL SUBOPT_0x34
0011c7 c20d      	RJMP _0x25A
                 _0x271:
0011c8 31e8      	CPI  R30,LOW(0x18)
0011c9 e0a0      	LDI  R26,HIGH(0x18)
0011ca 07fa      	CPC  R31,R26
0011cb f429      	BRNE _0x272
0011cc 940e 1f51 	CALL SUBOPT_0x31
0011ce 940e 2158 	CALL SUBOPT_0x7B
0011d0 c204      	RJMP _0x25A
                 _0x272:
0011d1 31e9      	CPI  R30,LOW(0x19)
0011d2 e0a0      	LDI  R26,HIGH(0x19)
0011d3 07fa      	CPC  R31,R26
0011d4 f429      	BRNE _0x273
0011d5 940e 216d 	CALL SUBOPT_0x80
0011d7 940e 1f63 	CALL SUBOPT_0x34
0011d9 c1fb      	RJMP _0x25A
                 _0x273:
0011da 31ea      	CPI  R30,LOW(0x1A)
0011db e0a0      	LDI  R26,HIGH(0x1A)
0011dc 07fa      	CPC  R31,R26
0011dd f429      	BRNE _0x274
0011de 940e 1f51 	CALL SUBOPT_0x31
0011e0 940e 2158 	CALL SUBOPT_0x7B
0011e2 c1f2      	RJMP _0x25A
                 _0x274:
0011e3 31eb      	CPI  R30,LOW(0x1B)
0011e4 e0a0      	LDI  R26,HIGH(0x1B)
0011e5 07fa      	CPC  R31,R26
0011e6 f429      	BRNE _0x275
0011e7 940e 216d 	CALL SUBOPT_0x80
0011e9 940e 1f63 	CALL SUBOPT_0x34
0011eb c1e9      	RJMP _0x25A
                 _0x275:
0011ec 31ec      	CPI  R30,LOW(0x1C)
0011ed e0a0      	LDI  R26,HIGH(0x1C)
0011ee 07fa      	CPC  R31,R26
0011ef f429      	BRNE _0x276
0011f0 940e 1f51 	CALL SUBOPT_0x31
0011f2 940e 2158 	CALL SUBOPT_0x7B
0011f4 c1e0      	RJMP _0x25A
                 _0x276:
0011f5 31ed      	CPI  R30,LOW(0x1D)
0011f6 e0a0      	LDI  R26,HIGH(0x1D)
0011f7 07fa      	CPC  R31,R26
0011f8 f429      	BRNE _0x277
0011f9 940e 1f51 	CALL SUBOPT_0x31
0011fb 940e 2158 	CALL SUBOPT_0x7B
0011fd c1d7      	RJMP _0x25A
                 _0x277:
0011fe 31ee      	CPI  R30,LOW(0x1E)
0011ff e0a0      	LDI  R26,HIGH(0x1E)
001200 07fa      	CPC  R31,R26
001201 f429      	BRNE _0x278
001202 940e 216d 	CALL SUBOPT_0x80
001204 940e 1f63 	CALL SUBOPT_0x34
001206 c1ce      	RJMP _0x25A
                 _0x278:
001207 31ef      	CPI  R30,LOW(0x1F)
001208 e0a0      	LDI  R26,HIGH(0x1F)
001209 07fa      	CPC  R31,R26
00120a f429      	BRNE _0x279
00120b 940e 216d 	CALL SUBOPT_0x80
00120d 940e 1f63 	CALL SUBOPT_0x34
00120f c1c5      	RJMP _0x25A
                 _0x279:
001210 32e0      	CPI  R30,LOW(0x20)
001211 e0a0      	LDI  R26,HIGH(0x20)
001212 07fa      	CPC  R31,R26
001213 f429      	BRNE _0x27A
001214 940e 1f51 	CALL SUBOPT_0x31
001216 940e 216a 	CALL SUBOPT_0x7F
001218 c1bc      	RJMP _0x25A
                 _0x27A:
001219 32e1      	CPI  R30,LOW(0x21)
00121a e0a0      	LDI  R26,HIGH(0x21)
00121b 07fa      	CPC  R31,R26
00121c f429      	BRNE _0x27B
00121d 940e 2172 	CALL SUBOPT_0x81
00121f 940e 1f63 	CALL SUBOPT_0x34
001221 c1b3      	RJMP _0x25A
                 _0x27B:
001222 32e2      	CPI  R30,LOW(0x22)
001223 e0a0      	LDI  R26,HIGH(0x22)
001224 07fa      	CPC  R31,R26
001225 f429      	BRNE _0x27C
001226 940e 216d 	CALL SUBOPT_0x80
001228 940e 1f63 	CALL SUBOPT_0x34
00122a c1aa      	RJMP _0x25A
                 _0x27C:
00122b 32e3      	CPI  R30,LOW(0x23)
00122c e0a0      	LDI  R26,HIGH(0x23)
00122d 07fa      	CPC  R31,R26
00122e f429      	BRNE _0x27D
00122f 940e 2172 	CALL SUBOPT_0x81
001231 940e 1f63 	CALL SUBOPT_0x34
001233 c1a1      	RJMP _0x25A
                 _0x27D:
001234 32e4      	CPI  R30,LOW(0x24)
001235 e0a0      	LDI  R26,HIGH(0x24)
001236 07fa      	CPC  R31,R26
001237 f429      	BRNE _0x27E
001238 940e 1f51 	CALL SUBOPT_0x31
00123a 940e 2158 	CALL SUBOPT_0x7B
00123c c198      	RJMP _0x25A
                 _0x27E:
00123d 32e5      	CPI  R30,LOW(0x25)
00123e e0a0      	LDI  R26,HIGH(0x25)
00123f 07fa      	CPC  R31,R26
001240 f429      	BRNE _0x27F
001241 940e 216d 	CALL SUBOPT_0x80
001243 940e 1f63 	CALL SUBOPT_0x34
001245 c18f      	RJMP _0x25A
                 _0x27F:
001246 32e6      	CPI  R30,LOW(0x26)
001247 e0a0      	LDI  R26,HIGH(0x26)
001248 07fa      	CPC  R31,R26
001249 f429      	BRNE _0x280
00124a 940e 1f51 	CALL SUBOPT_0x31
00124c 940e 2158 	CALL SUBOPT_0x7B
00124e c186      	RJMP _0x25A
                 _0x280:
00124f 32e7      	CPI  R30,LOW(0x27)
001250 e0a0      	LDI  R26,HIGH(0x27)
001251 07fa      	CPC  R31,R26
001252 f429      	BRNE _0x281
001253 940e 216d 	CALL SUBOPT_0x80
001255 940e 1f63 	CALL SUBOPT_0x34
001257 c17d      	RJMP _0x25A
                 _0x281:
001258 32e8      	CPI  R30,LOW(0x28)
001259 e0a0      	LDI  R26,HIGH(0x28)
00125a 07fa      	CPC  R31,R26
00125b f429      	BRNE _0x282
00125c 940e 1f51 	CALL SUBOPT_0x31
00125e 940e 2158 	CALL SUBOPT_0x7B
001260 c174      	RJMP _0x25A
                 _0x282:
001261 32e9      	CPI  R30,LOW(0x29)
001262 e0a0      	LDI  R26,HIGH(0x29)
001263 07fa      	CPC  R31,R26
001264 f429      	BRNE _0x283
001265 940e 216d 	CALL SUBOPT_0x80
001267 940e 1f63 	CALL SUBOPT_0x34
001269 c16b      	RJMP _0x25A
                 _0x283:
00126a 32ea      	CPI  R30,LOW(0x2A)
00126b e0a0      	LDI  R26,HIGH(0x2A)
00126c 07fa      	CPC  R31,R26
00126d f429      	BRNE _0x284
00126e 940e 216d 	CALL SUBOPT_0x80
001270 940e 1f63 	CALL SUBOPT_0x34
001272 c162      	RJMP _0x25A
                 _0x284:
001273 32eb      	CPI  R30,LOW(0x2B)
001274 e0a0      	LDI  R26,HIGH(0x2B)
001275 07fa      	CPC  R31,R26
001276 f429      	BRNE _0x285
001277 940e 1f51 	CALL SUBOPT_0x31
001279 940e 2158 	CALL SUBOPT_0x7B
00127b c159      	RJMP _0x25A
                 _0x285:
00127c 32ec      	CPI  R30,LOW(0x2C)
00127d e0a0      	LDI  R26,HIGH(0x2C)
00127e 07fa      	CPC  R31,R26
00127f f439      	BRNE _0x286
001280 e4e1      	LDI  R30,LOW(65)
001281 e0f0      	LDI  R31,HIGH(65)
001282 940e 2177 	CALL SUBOPT_0x82
001284 940e 1f63 	CALL SUBOPT_0x34
001286 c14e      	RJMP _0x25A
                 _0x286:
001287 32ed      	CPI  R30,LOW(0x2D)
001288 e0a0      	LDI  R26,HIGH(0x2D)
001289 07fa      	CPC  R31,R26
00128a f429      	BRNE _0x287
00128b 940e 1f5e 	CALL SUBOPT_0x33
00128d 940e 217a 	CALL SUBOPT_0x83
00128f c145      	RJMP _0x25A
                 _0x287:
001290 32ee      	CPI  R30,LOW(0x2E)
001291 e0a0      	LDI  R26,HIGH(0x2E)
001292 07fa      	CPC  R31,R26
001293 f429      	BRNE _0x288
001294 940e 1f5e 	CALL SUBOPT_0x33
001296 940e 217a 	CALL SUBOPT_0x83
001298 c13c      	RJMP _0x25A
                 _0x288:
001299 32ef      	CPI  R30,LOW(0x2F)
00129a e0a0      	LDI  R26,HIGH(0x2F)
00129b 07fa      	CPC  R31,R26
00129c f439      	BRNE _0x289
00129d 940e 2165 	CALL SUBOPT_0x7E
00129f 940e 1f5e 	CALL SUBOPT_0x33
0012a1 940e 1f63 	CALL SUBOPT_0x34
0012a3 c131      	RJMP _0x25A
                 _0x289:
0012a4 33e0      	CPI  R30,LOW(0x30)
0012a5 e0a0      	LDI  R26,HIGH(0x30)
0012a6 07fa      	CPC  R31,R26
0012a7 f439      	BRNE _0x28A
0012a8 940e 2165 	CALL SUBOPT_0x7E
0012aa 940e 1f5e 	CALL SUBOPT_0x33
0012ac 940e 1f63 	CALL SUBOPT_0x34
0012ae c126      	RJMP _0x25A
                 _0x28A:
0012af 33e1      	CPI  R30,LOW(0x31)
0012b0 e0a0      	LDI  R26,HIGH(0x31)
0012b1 07fa      	CPC  R31,R26
0012b2 f439      	BRNE _0x28B
0012b3 e4eb      	LDI  R30,LOW(75)
0012b4 e0f0      	LDI  R31,HIGH(75)
0012b5 940e 2177 	CALL SUBOPT_0x82
0012b7 940e 1f63 	CALL SUBOPT_0x34
0012b9 c11b      	RJMP _0x25A
                 _0x28B:
0012ba 33e2      	CPI  R30,LOW(0x32)
0012bb e0a0      	LDI  R26,HIGH(0x32)
0012bc 07fa      	CPC  R31,R26
0012bd f429      	BRNE _0x28C
0012be 940e 1f5e 	CALL SUBOPT_0x33
0012c0 940e 2158 	CALL SUBOPT_0x7B
0012c2 c112      	RJMP _0x25A
                 _0x28C:
0012c3 33e3      	CPI  R30,LOW(0x33)
0012c4 e0a0      	LDI  R26,HIGH(0x33)
0012c5 07fa      	CPC  R31,R26
0012c6 f429      	BRNE _0x28D
0012c7 940e 1f51 	CALL SUBOPT_0x31
0012c9 940e 217a 	CALL SUBOPT_0x83
0012cb c109      	RJMP _0x25A
                 _0x28D:
0012cc 33e4      	CPI  R30,LOW(0x34)
0012cd e0a0      	LDI  R26,HIGH(0x34)
0012ce 07fa      	CPC  R31,R26
0012cf f429      	BRNE _0x28E
0012d0 940e 1f51 	CALL SUBOPT_0x31
0012d2 940e 2158 	CALL SUBOPT_0x7B
0012d4 c100      	RJMP _0x25A
                 _0x28E:
0012d5 33e5      	CPI  R30,LOW(0x35)
0012d6 e0a0      	LDI  R26,HIGH(0x35)
0012d7 07fa      	CPC  R31,R26
0012d8 f439      	BRNE _0x28F
0012d9 e4eb      	LDI  R30,LOW(75)
0012da e0f0      	LDI  R31,HIGH(75)
0012db 940e 2177 	CALL SUBOPT_0x82
0012dd 940e 1f63 	CALL SUBOPT_0x34
0012df c0f5      	RJMP _0x25A
                 _0x28F:
0012e0 33e6      	CPI  R30,LOW(0x36)
0012e1 e0a0      	LDI  R26,HIGH(0x36)
0012e2 07fa      	CPC  R31,R26
0012e3 f439      	BRNE _0x290
0012e4 940e 1f5e 	CALL SUBOPT_0x33
0012e6 e4e1      	LDI  R30,LOW(65)
0012e7 e0f0      	LDI  R31,HIGH(65)
0012e8 940e 2150 	CALL SUBOPT_0x79
0012ea c0ea      	RJMP _0x25A
                 _0x290:
0012eb 33e7      	CPI  R30,LOW(0x37)
0012ec e0a0      	LDI  R26,HIGH(0x37)
0012ed 07fa      	CPC  R31,R26
0012ee f439      	BRNE _0x291
0012ef 940e 1f5e 	CALL SUBOPT_0x33
0012f1 940e 1f51 	CALL SUBOPT_0x31
0012f3 940e 1f63 	CALL SUBOPT_0x34
0012f5 c0df      	RJMP _0x25A
                 _0x291:
0012f6 33e8      	CPI  R30,LOW(0x38)
0012f7 e0a0      	LDI  R26,HIGH(0x38)
0012f8 07fa      	CPC  R31,R26
0012f9 f439      	BRNE _0x292
0012fa 940e 1f5e 	CALL SUBOPT_0x33
0012fc 940e 1f51 	CALL SUBOPT_0x31
0012fe 940e 1f63 	CALL SUBOPT_0x34
001300 c0d4      	RJMP _0x25A
                 _0x292:
001301 33e9      	CPI  R30,LOW(0x39)
001302 e0a0      	LDI  R26,HIGH(0x39)
001303 07fa      	CPC  R31,R26
001304 f439      	BRNE _0x293
001305 940e 1f5e 	CALL SUBOPT_0x33
001307 940e 1f51 	CALL SUBOPT_0x31
001309 940e 1f63 	CALL SUBOPT_0x34
00130b c0c9      	RJMP _0x25A
                 _0x293:
00130c 33ea      	CPI  R30,LOW(0x3A)
00130d e0a0      	LDI  R26,HIGH(0x3A)
00130e 07fa      	CPC  R31,R26
00130f f439      	BRNE _0x294
001310 940e 1f51 	CALL SUBOPT_0x31
001312 940e 1f5e 	CALL SUBOPT_0x33
001314 940e 1f63 	CALL SUBOPT_0x34
001316 c0be      	RJMP _0x25A
                 _0x294:
001317 33eb      	CPI  R30,LOW(0x3B)
001318 e0a0      	LDI  R26,HIGH(0x3B)
001319 07fa      	CPC  R31,R26
00131a f429      	BRNE _0x295
00131b 940e 1f51 	CALL SUBOPT_0x31
00131d 940e 216a 	CALL SUBOPT_0x7F
00131f c0b5      	RJMP _0x25A
                 _0x295:
001320 33ec      	CPI  R30,LOW(0x3C)
001321 e0a0      	LDI  R26,HIGH(0x3C)
001322 07fa      	CPC  R31,R26
001323 f429      	BRNE _0x296
001324 940e 1f5e 	CALL SUBOPT_0x33
001326 940e 2158 	CALL SUBOPT_0x7B
001328 c0ac      	RJMP _0x25A
                 _0x296:
001329 34e0      	CPI  R30,LOW(0x40)
00132a e0a0      	LDI  R26,HIGH(0x40)
00132b 07fa      	CPC  R31,R26
00132c f429      	BRNE _0x297
00132d 940e 216d 	CALL SUBOPT_0x80
00132f 940e 1f63 	CALL SUBOPT_0x34
001331 c0a3      	RJMP _0x25A
                 _0x297:
001332 34e1      	CPI  R30,LOW(0x41)
001333 e0a0      	LDI  R26,HIGH(0x41)
001334 07fa      	CPC  R31,R26
001335 f459      	BRNE _0x298
001336 940e 217d 	CALL SUBOPT_0x84
001338 940e 217d 	CALL SUBOPT_0x84
00133a 940e 1f6b 	CALL SUBOPT_0x35
00133c 940e 2182 	CALL SUBOPT_0x85
                +
00133e e0ae     +LDI R26 , LOW ( _0x299 + ( 0 ) )
00133f e0b6     +LDI R27 , HIGH ( _0x299 + ( 0 ) )
                 	__POINTW2MN _0x299,0
001340 c092      	RJMP _0x386
                 _0x298:
001341 34e2      	CPI  R30,LOW(0x42)
001342 e0a0      	LDI  R26,HIGH(0x42)
001343 07fa      	CPC  R31,R26
001344 f449      	BRNE _0x29A
001345 91e0 07f4 	LDS  R30,_val_L_linesearch
001347 91f0 07f5 	LDS  R31,_val_L_linesearch+1
001349 940e 2186 	CALL SUBOPT_0x86
                +
00134b e1a2     +LDI R26 , LOW ( _0x299 + ( 4 ) )
00134c e0b6     +LDI R27 , HIGH ( _0x299 + ( 4 ) )
                 	__POINTW2MN _0x299,4
00134d c085      	RJMP _0x386
                 _0x29A:
00134e 34e3      	CPI  R30,LOW(0x43)
00134f e0a0      	LDI  R26,HIGH(0x43)
001350 07fa      	CPC  R31,R26
001351 f449      	BRNE _0x29B
001352 940e 1f6b 	CALL SUBOPT_0x35
001354 940e 218d 	CALL SUBOPT_0x87
001356 940e 2192 	CALL SUBOPT_0x88
                +
001358 e1aa     +LDI R26 , LOW ( _0x299 + ( 12 ) )
001359 e0b6     +LDI R27 , HIGH ( _0x299 + ( 12 ) )
                 	__POINTW2MN _0x299,12
00135a c078      	RJMP _0x386
                 _0x29B:
00135b 34e4      	CPI  R30,LOW(0x44)
00135c e0a0      	LDI  R26,HIGH(0x44)
00135d 07fa      	CPC  R31,R26
00135e f439      	BRNE _0x29C
00135f 940e 219b 	CALL SUBOPT_0x89
                +
001361 e1ad     +LDI R26 , LOW ( _0x299 + ( 15 ) )
001362 e0b6     +LDI R27 , HIGH ( _0x299 + ( 15 ) )
                 	__POINTW2MN _0x299,15
001363 940e 21a0 	CALL SUBOPT_0x8A
001365 c06f      	RJMP _0x25A
                 _0x29C:
001366 34e5      	CPI  R30,LOW(0x45)
001367 e0a0      	LDI  R26,HIGH(0x45)
001368 07fa      	CPC  R31,R26
001369 f439      	BRNE _0x29D
00136a e1e4      	LDI  R30,LOW(20)
00136b e0f0      	LDI  R31,HIGH(20)
00136c 940e 2186 	CALL SUBOPT_0x86
                +
00136e e2a0     +LDI R26 , LOW ( _0x299 + ( 18 ) )
00136f e0b6     +LDI R27 , HIGH ( _0x299 + ( 18 ) )
                 	__POINTW2MN _0x299,18
001370 c062      	RJMP _0x386
                 _0x29D:
001371 34e6      	CPI  R30,LOW(0x46)
001372 e0a0      	LDI  R26,HIGH(0x46)
001373 07fa      	CPC  R31,R26
001374 f459      	BRNE _0x29E
001375 940e 21a3 	CALL SUBOPT_0x8B
001377 940e 1f6b 	CALL SUBOPT_0x35
001379 940e 21a8 	CALL SUBOPT_0x8C
                +
00137b e2a3     +LDI R26 , LOW ( _0x299 + ( 21 ) )
00137c e0b6     +LDI R27 , HIGH ( _0x299 + ( 21 ) )
                 	__POINTW2MN _0x299,21
00137d 940e 21a0 	CALL SUBOPT_0x8A
00137f c055      	RJMP _0x25A
                 _0x29E:
001380 34e7      	CPI  R30,LOW(0x47)
001381 e0a0      	LDI  R26,HIGH(0x47)
001382 07fa      	CPC  R31,R26
001383 f449      	BRNE _0x29F
001384 e2e8      	LDI  R30,LOW(40)
001385 e0f0      	LDI  R31,HIGH(40)
001386 940e 2186 	CALL SUBOPT_0x86
                +
001388 e2a6     +LDI R26 , LOW ( _0x299 + ( 24 ) )
001389 e0b6     +LDI R27 , HIGH ( _0x299 + ( 24 ) )
                 	__POINTW2MN _0x299,24
00138a 940e 21a0 	CALL SUBOPT_0x8A
00138c c048      	RJMP _0x25A
                 _0x29F:
00138d 34e8      	CPI  R30,LOW(0x48)
00138e e0a0      	LDI  R26,HIGH(0x48)
00138f 07fa      	CPC  R31,R26
001390 f429      	BRNE _0x2A0
001391 940e 219b 	CALL SUBOPT_0x89
                +
001393 e2a9     +LDI R26 , LOW ( _0x299 + ( 27 ) )
001394 e0b6     +LDI R27 , HIGH ( _0x299 + ( 27 ) )
                 	__POINTW2MN _0x299,27
001395 c03d      	RJMP _0x386
                 _0x2A0:
001396 34e9      	CPI  R30,LOW(0x49)
001397 e0a0      	LDI  R26,HIGH(0x49)
001398 07fa      	CPC  R31,R26
001399 f439      	BRNE _0x2A1
00139a 940e 219b 	CALL SUBOPT_0x89
                +
00139c e2ac     +LDI R26 , LOW ( _0x299 + ( 30 ) )
00139d e0b6     +LDI R27 , HIGH ( _0x299 + ( 30 ) )
                 	__POINTW2MN _0x299,30
00139e 940e 21a0 	CALL SUBOPT_0x8A
0013a0 c034      	RJMP _0x25A
                 _0x2A1:
0013a1 34ea      	CPI  R30,LOW(0x4A)
0013a2 e0a0      	LDI  R26,HIGH(0x4A)
0013a3 07fa      	CPC  R31,R26
0013a4 f479      	BRNE _0x2A2
0013a5 940e 217d 	CALL SUBOPT_0x84
0013a7 940e 217d 	CALL SUBOPT_0x84
0013a9 940e 1f56 	CALL SUBOPT_0x32
                +
0013ab e2af     +LDI R26 , LOW ( _0x299 + ( 33 ) )
0013ac e0b6     +LDI R27 , HIGH ( _0x299 + ( 33 ) )
                 	__POINTW2MN _0x299,33
0013ad 940e 1d58 	CALL _lcd_puts
0013af 940e 1f26 	CALL SUBOPT_0x2D
0013b1 940e 21ac 	CALL SUBOPT_0x8D
0013b3 c021      	RJMP _0x25A
                 _0x2A2:
0013b4 35e0      	CPI  R30,LOW(0x50)
0013b5 e0a0      	LDI  R26,HIGH(0x50)
0013b6 07fa      	CPC  R31,R26
0013b7 f479      	BRNE _0x2A3
0013b8 940e 21a3 	CALL SUBOPT_0x8B
0013ba 940e 1f6b 	CALL SUBOPT_0x35
0013bc 940e 21a8 	CALL SUBOPT_0x8C
0013be e3a2      	LDI  R26,LOW(50)
0013bf e0b0      	LDI  R27,0
0013c0 940e 22b0 	CALL _delay_ms
0013c2 940e 21ac 	CALL SUBOPT_0x8D
                +
0013c4 e3a2     +LDI R26 , LOW ( _0x299 + ( 36 ) )
0013c5 e0b6     +LDI R27 , HIGH ( _0x299 + ( 36 ) )
                 	__POINTW2MN _0x299,36
0013c6 c00c      	RJMP _0x386
                 _0x2A3:
0013c7 35e1      	CPI  R30,LOW(0x51)
0013c8 e0a0      	LDI  R26,HIGH(0x51)
0013c9 07fa      	CPC  R31,R26
0013ca f451      	BRNE _0x25A
0013cb 940e 1f6b 	CALL SUBOPT_0x35
0013cd 940e 218d 	CALL SUBOPT_0x87
0013cf 940e 2192 	CALL SUBOPT_0x88
                +
0013d1 e3a5     +LDI R26 , LOW ( _0x299 + ( 39 ) )
0013d2 e0b6     +LDI R27 , HIGH ( _0x299 + ( 39 ) )
                 	__POINTW2MN _0x299,39
                 _0x386:
0013d3 940e 1d58 	CALL _lcd_puts
                 _0x25A:
0013d5 9508      	RET
                 ; .FEND
                 
                 	.DSEG
                 _0x299:
00060e           	.BYTE 0x2A
                 
                 	.CSEG
                 _detectorcase:
                 ; .FSTART _detectorcase
0013d6 91e0 07f6 	LDS  R30,_detector_value
0013d8 91f0 07f7 	LDS  R31,_detector_value+1
0013da 9730      	SBIW R30,0
0013db f441      	BRNE _0x2A8
0013dc 940e 21b1 	CALL SUBOPT_0x8E
0013de 940e 21b1 	CALL SUBOPT_0x8E
0013e0 940e 1f6b 	CALL SUBOPT_0x35
0013e2 e0a0      	LDI  R26,LOW(0)
0013e3 c1f6      	RJMP _0x387
                 _0x2A8:
0013e4 30e1      	CPI  R30,LOW(0x1)
0013e5 e0a0      	LDI  R26,HIGH(0x1)
0013e6 07fa      	CPC  R31,R26
0013e7 f429      	BRNE _0x2A9
0013e8 940e 21b6 	CALL SUBOPT_0x8F
0013ea e1ee      	LDI  R30,LOW(30)
0013eb e0f0      	LDI  R31,HIGH(30)
0013ec c1e6      	RJMP _0x388
                 _0x2A9:
0013ed 30e2      	CPI  R30,LOW(0x2)
0013ee e0a0      	LDI  R26,HIGH(0x2)
0013ef 07fa      	CPC  R31,R26
0013f0 f429      	BRNE _0x2AA
0013f1 940e 21b1 	CALL SUBOPT_0x8E
0013f3 e3e2      	LDI  R30,LOW(50)
0013f4 e0f0      	LDI  R31,HIGH(50)
0013f5 c1dd      	RJMP _0x388
                 _0x2AA:
0013f6 30e3      	CPI  R30,LOW(0x3)
0013f7 e0a0      	LDI  R26,HIGH(0x3)
0013f8 07fa      	CPC  R31,R26
0013f9 f441      	BRNE _0x2AB
0013fa 940e 21b1 	CALL SUBOPT_0x8E
0013fc 940e 21b6 	CALL SUBOPT_0x8F
0013fe 940e 1f6b 	CALL SUBOPT_0x35
001400 e0a0      	LDI  R26,LOW(0)
001401 c1d8      	RJMP _0x387
                 _0x2AB:
001402 30e4      	CPI  R30,LOW(0x4)
001403 e0a0      	LDI  R26,HIGH(0x4)
001404 07fa      	CPC  R31,R26
001405 f441      	BRNE _0x2AC
001406 940e 21b6 	CALL SUBOPT_0x8F
001408 940e 21b1 	CALL SUBOPT_0x8E
00140a 940e 1f6b 	CALL SUBOPT_0x35
00140c e0a0      	LDI  R26,LOW(0)
00140d c1cc      	RJMP _0x387
                 _0x2AC:
00140e 30e5      	CPI  R30,LOW(0x5)
00140f e0a0      	LDI  R26,HIGH(0x5)
001410 07fa      	CPC  R31,R26
001411 f449      	BRNE _0x2AD
001412 940e 1f51 	CALL SUBOPT_0x31
001414 e3e2      	LDI  R30,LOW(50)
001415 e0f0      	LDI  R31,HIGH(50)
001416 940e 2150 	CALL SUBOPT_0x79
001418 940e 21bb 	CALL SUBOPT_0x90
00141a c1c2      	RJMP _0x2A7
                 _0x2AD:
00141b 30e6      	CPI  R30,LOW(0x6)
00141c e0a0      	LDI  R26,HIGH(0x6)
00141d 07fa      	CPC  R31,R26
00141e f439      	BRNE _0x2AE
00141f 940e 2153 	CALL SUBOPT_0x7A
001421 940e 1f63 	CALL SUBOPT_0x34
001423 940e 21bb 	CALL SUBOPT_0x90
001425 c1b7      	RJMP _0x2A7
                 _0x2AE:
001426 30e7      	CPI  R30,LOW(0x7)
001427 e0a0      	LDI  R26,HIGH(0x7)
001428 07fa      	CPC  R31,R26
001429 f419      	BRNE _0x2AF
00142a e3e2      	LDI  R30,LOW(50)
00142b e0f0      	LDI  R31,HIGH(50)
00142c c1a2      	RJMP _0x389
                 _0x2AF:
00142d 30e8      	CPI  R30,LOW(0x8)
00142e e0a0      	LDI  R26,HIGH(0x8)
00142f 07fa      	CPC  R31,R26
001430 f429      	BRNE _0x2B0
001431 940e 1f51 	CALL SUBOPT_0x31
001433 e4e6      	LDI  R30,LOW(70)
001434 e0f0      	LDI  R31,HIGH(70)
001435 c19d      	RJMP _0x388
                 _0x2B0:
001436 30e9      	CPI  R30,LOW(0x9)
001437 e0a0      	LDI  R26,HIGH(0x9)
001438 07fa      	CPC  R31,R26
001439 f441      	BRNE _0x2B1
00143a 940e 1f5e 	CALL SUBOPT_0x33
00143c 940e 1f5e 	CALL SUBOPT_0x33
00143e 940e 1f6b 	CALL SUBOPT_0x35
001440 e0a0      	LDI  R26,LOW(0)
001441 c198      	RJMP _0x387
                 _0x2B1:
001442 30ea      	CPI  R30,LOW(0xA)
001443 e0a0      	LDI  R26,HIGH(0xA)
001444 07fa      	CPC  R31,R26
001445 f429      	BRNE _0x2B2
001446 940e 1f51 	CALL SUBOPT_0x31
001448 e4e6      	LDI  R30,LOW(70)
001449 e0f0      	LDI  R31,HIGH(70)
00144a c188      	RJMP _0x388
                 _0x2B2:
00144b 30eb      	CPI  R30,LOW(0xB)
00144c e0a0      	LDI  R26,HIGH(0xB)
00144d 07fa      	CPC  R31,R26
00144e f439      	BRNE _0x2B3
00144f 940e 1f51 	CALL SUBOPT_0x31
001451 940e 2158 	CALL SUBOPT_0x7B
001453 940e 21bb 	CALL SUBOPT_0x90
001455 c187      	RJMP _0x2A7
                 _0x2B3:
001456 30ec      	CPI  R30,LOW(0xC)
001457 e0a0      	LDI  R26,HIGH(0xC)
001458 07fa      	CPC  R31,R26
001459 f429      	BRNE _0x2B4
00145a 940e 1f51 	CALL SUBOPT_0x31
00145c e3e2      	LDI  R30,LOW(50)
00145d e0f0      	LDI  R31,HIGH(50)
00145e c174      	RJMP _0x388
                 _0x2B4:
00145f 30ed      	CPI  R30,LOW(0xD)
001460 e0a0      	LDI  R26,HIGH(0xD)
001461 07fa      	CPC  R31,R26
001462 f419      	BRNE _0x2B5
001463 e3e2      	LDI  R30,LOW(50)
001464 e0f0      	LDI  R31,HIGH(50)
001465 c169      	RJMP _0x389
                 _0x2B5:
001466 30ee      	CPI  R30,LOW(0xE)
001467 e0a0      	LDI  R26,HIGH(0xE)
001468 07fa      	CPC  R31,R26
001469 f429      	BRNE _0x2B6
00146a 940e 1f51 	CALL SUBOPT_0x31
00146c e5e0      	LDI  R30,LOW(80)
00146d e0f0      	LDI  R31,HIGH(80)
00146e c164      	RJMP _0x388
                 _0x2B6:
00146f 30ef      	CPI  R30,LOW(0xF)
001470 e0a0      	LDI  R26,HIGH(0xF)
001471 07fa      	CPC  R31,R26
001472 f419      	BRNE _0x2B7
001473 e5e0      	LDI  R30,LOW(80)
001474 e0f0      	LDI  R31,HIGH(80)
001475 c159      	RJMP _0x389
                 _0x2B7:
001476 31e0      	CPI  R30,LOW(0x10)
001477 e0a0      	LDI  R26,HIGH(0x10)
001478 07fa      	CPC  R31,R26
001479 f419      	BRNE _0x2B8
00147a e5ea      	LDI  R30,LOW(90)
00147b e0f0      	LDI  R31,HIGH(90)
00147c c152      	RJMP _0x389
                 _0x2B8:
00147d 31e1      	CPI  R30,LOW(0x11)
00147e e0a0      	LDI  R26,HIGH(0x11)
00147f 07fa      	CPC  R31,R26
001480 f419      	BRNE _0x2B9
001481 e5ea      	LDI  R30,LOW(90)
001482 e0f0      	LDI  R31,HIGH(90)
001483 c14b      	RJMP _0x389
                 _0x2B9:
001484 31e2      	CPI  R30,LOW(0x12)
001485 e0a0      	LDI  R26,HIGH(0x12)
001486 07fa      	CPC  R31,R26
001487 f419      	BRNE _0x2BA
001488 e5ea      	LDI  R30,LOW(90)
001489 e0f0      	LDI  R31,HIGH(90)
00148a c144      	RJMP _0x389
                 _0x2BA:
00148b 31e3      	CPI  R30,LOW(0x13)
00148c e0a0      	LDI  R26,HIGH(0x13)
00148d 07fa      	CPC  R31,R26
00148e f419      	BRNE _0x2BB
00148f 940e 21bf 	CALL SUBOPT_0x91
001491 c141      	RJMP _0x388
                 _0x2BB:
001492 31e4      	CPI  R30,LOW(0x14)
001493 e0a0      	LDI  R26,HIGH(0x14)
001494 07fa      	CPC  R31,R26
001495 f419      	BRNE _0x2BC
001496 940e 21bf 	CALL SUBOPT_0x91
001498 c13a      	RJMP _0x388
                 _0x2BC:
001499 31e5      	CPI  R30,LOW(0x15)
00149a e0a0      	LDI  R26,HIGH(0x15)
00149b 07fa      	CPC  R31,R26
00149c f429      	BRNE _0x2BD
00149d 940e 2165 	CALL SUBOPT_0x7E
00149f e5e5      	LDI  R30,LOW(85)
0014a0 e0f0      	LDI  R31,HIGH(85)
0014a1 c131      	RJMP _0x388
                 _0x2BD:
0014a2 31e6      	CPI  R30,LOW(0x16)
0014a3 e0a0      	LDI  R26,HIGH(0x16)
0014a4 07fa      	CPC  R31,R26
0014a5 f429      	BRNE _0x2BE
0014a6 940e 1f51 	CALL SUBOPT_0x31
0014a8 e4e6      	LDI  R30,LOW(70)
0014a9 e0f0      	LDI  R31,HIGH(70)
0014aa c128      	RJMP _0x388
                 _0x2BE:
0014ab 31e7      	CPI  R30,LOW(0x17)
0014ac e0a0      	LDI  R26,HIGH(0x17)
0014ad 07fa      	CPC  R31,R26
0014ae f409      	BRNE _0x2BF
0014af c11d      	RJMP _0x38A
                 _0x2BF:
0014b0 31e8      	CPI  R30,LOW(0x18)
0014b1 e0a0      	LDI  R26,HIGH(0x18)
0014b2 07fa      	CPC  R31,R26
0014b3 f429      	BRNE _0x2C0
0014b4 940e 1f51 	CALL SUBOPT_0x31
0014b6 e4e6      	LDI  R30,LOW(70)
0014b7 e0f0      	LDI  R31,HIGH(70)
0014b8 c11a      	RJMP _0x388
                 _0x2C0:
0014b9 31e9      	CPI  R30,LOW(0x19)
0014ba e0a0      	LDI  R26,HIGH(0x19)
0014bb 07fa      	CPC  R31,R26
0014bc f409      	BRNE _0x2C1
0014bd c10f      	RJMP _0x38A
                 _0x2C1:
0014be 31ea      	CPI  R30,LOW(0x1A)
0014bf e0a0      	LDI  R26,HIGH(0x1A)
0014c0 07fa      	CPC  R31,R26
0014c1 f429      	BRNE _0x2C2
0014c2 940e 1f51 	CALL SUBOPT_0x31
0014c4 e4e6      	LDI  R30,LOW(70)
0014c5 e0f0      	LDI  R31,HIGH(70)
0014c6 c10c      	RJMP _0x388
                 _0x2C2:
0014c7 31eb      	CPI  R30,LOW(0x1B)
0014c8 e0a0      	LDI  R26,HIGH(0x1B)
0014c9 07fa      	CPC  R31,R26
0014ca f409      	BRNE _0x2C3
0014cb c101      	RJMP _0x38A
                 _0x2C3:
0014cc 31ec      	CPI  R30,LOW(0x1C)
0014cd e0a0      	LDI  R26,HIGH(0x1C)
0014ce 07fa      	CPC  R31,R26
0014cf f429      	BRNE _0x2C4
0014d0 940e 1f51 	CALL SUBOPT_0x31
0014d2 e4e6      	LDI  R30,LOW(70)
0014d3 e0f0      	LDI  R31,HIGH(70)
0014d4 c0fe      	RJMP _0x388
                 _0x2C4:
0014d5 31ed      	CPI  R30,LOW(0x1D)
0014d6 e0a0      	LDI  R26,HIGH(0x1D)
0014d7 07fa      	CPC  R31,R26
0014d8 f429      	BRNE _0x2C5
0014d9 940e 1f51 	CALL SUBOPT_0x31
0014db e4e6      	LDI  R30,LOW(70)
0014dc e0f0      	LDI  R31,HIGH(70)
0014dd c0f5      	RJMP _0x388
                 _0x2C5:
0014de 31ee      	CPI  R30,LOW(0x1E)
0014df e0a0      	LDI  R26,HIGH(0x1E)
0014e0 07fa      	CPC  R31,R26
0014e1 f409      	BRNE _0x2C6
0014e2 c0ea      	RJMP _0x38A
                 _0x2C6:
0014e3 31ef      	CPI  R30,LOW(0x1F)
0014e4 e0a0      	LDI  R26,HIGH(0x1F)
0014e5 07fa      	CPC  R31,R26
0014e6 f409      	BRNE _0x2C7
0014e7 c0e5      	RJMP _0x38A
                 _0x2C7:
0014e8 32e0      	CPI  R30,LOW(0x20)
0014e9 e0a0      	LDI  R26,HIGH(0x20)
0014ea 07fa      	CPC  R31,R26
0014eb f429      	BRNE _0x2C8
0014ec 940e 1f51 	CALL SUBOPT_0x31
0014ee e5e5      	LDI  R30,LOW(85)
0014ef e0f0      	LDI  R31,HIGH(85)
0014f0 c0e2      	RJMP _0x388
                 _0x2C8:
0014f1 32e1      	CPI  R30,LOW(0x21)
0014f2 e0a0      	LDI  R26,HIGH(0x21)
0014f3 07fa      	CPC  R31,R26
0014f4 f419      	BRNE _0x2C9
0014f5 e5e5      	LDI  R30,LOW(85)
0014f6 e0f0      	LDI  R31,HIGH(85)
0014f7 c0d7      	RJMP _0x389
                 _0x2C9:
0014f8 32e2      	CPI  R30,LOW(0x22)
0014f9 e0a0      	LDI  R26,HIGH(0x22)
0014fa 07fa      	CPC  R31,R26
0014fb f409      	BRNE _0x2CA
0014fc c0d0      	RJMP _0x38A
                 _0x2CA:
0014fd 32e3      	CPI  R30,LOW(0x23)
0014fe e0a0      	LDI  R26,HIGH(0x23)
0014ff 07fa      	CPC  R31,R26
001500 f419      	BRNE _0x2CB
001501 e5e5      	LDI  R30,LOW(85)
001502 e0f0      	LDI  R31,HIGH(85)
001503 c0cb      	RJMP _0x389
                 _0x2CB:
001504 32e4      	CPI  R30,LOW(0x24)
001505 e0a0      	LDI  R26,HIGH(0x24)
001506 07fa      	CPC  R31,R26
001507 f429      	BRNE _0x2CC
001508 940e 1f51 	CALL SUBOPT_0x31
00150a e4e6      	LDI  R30,LOW(70)
00150b e0f0      	LDI  R31,HIGH(70)
00150c c0c6      	RJMP _0x388
                 _0x2CC:
00150d 32e5      	CPI  R30,LOW(0x25)
00150e e0a0      	LDI  R26,HIGH(0x25)
00150f 07fa      	CPC  R31,R26
001510 f409      	BRNE _0x2CD
001511 c0bb      	RJMP _0x38A
                 _0x2CD:
001512 32e6      	CPI  R30,LOW(0x26)
001513 e0a0      	LDI  R26,HIGH(0x26)
001514 07fa      	CPC  R31,R26
001515 f429      	BRNE _0x2CE
001516 940e 1f51 	CALL SUBOPT_0x31
001518 e4e6      	LDI  R30,LOW(70)
001519 e0f0      	LDI  R31,HIGH(70)
00151a c0b8      	RJMP _0x388
                 _0x2CE:
00151b 32e7      	CPI  R30,LOW(0x27)
00151c e0a0      	LDI  R26,HIGH(0x27)
00151d 07fa      	CPC  R31,R26
00151e f409      	BRNE _0x2CF
00151f c0ad      	RJMP _0x38A
                 _0x2CF:
001520 32e8      	CPI  R30,LOW(0x28)
001521 e0a0      	LDI  R26,HIGH(0x28)
001522 07fa      	CPC  R31,R26
001523 f429      	BRNE _0x2D0
001524 940e 1f51 	CALL SUBOPT_0x31
001526 e4e6      	LDI  R30,LOW(70)
001527 e0f0      	LDI  R31,HIGH(70)
001528 c0aa      	RJMP _0x388
                 _0x2D0:
001529 32e9      	CPI  R30,LOW(0x29)
00152a e0a0      	LDI  R26,HIGH(0x29)
00152b 07fa      	CPC  R31,R26
00152c f409      	BRNE _0x2D1
00152d c09f      	RJMP _0x38A
                 _0x2D1:
00152e 32ea      	CPI  R30,LOW(0x2A)
00152f e0a0      	LDI  R26,HIGH(0x2A)
001530 07fa      	CPC  R31,R26
001531 f409      	BRNE _0x2D2
001532 c09a      	RJMP _0x38A
                 _0x2D2:
001533 32eb      	CPI  R30,LOW(0x2B)
001534 e0a0      	LDI  R26,HIGH(0x2B)
001535 07fa      	CPC  R31,R26
001536 f429      	BRNE _0x2D3
001537 940e 1f51 	CALL SUBOPT_0x31
001539 e4e6      	LDI  R30,LOW(70)
00153a e0f0      	LDI  R31,HIGH(70)
00153b c097      	RJMP _0x388
                 _0x2D3:
00153c 32ec      	CPI  R30,LOW(0x2C)
00153d e0a0      	LDI  R26,HIGH(0x2C)
00153e 07fa      	CPC  R31,R26
00153f f419      	BRNE _0x2D4
001540 e4e1      	LDI  R30,LOW(65)
001541 e0f0      	LDI  R31,HIGH(65)
001542 c08c      	RJMP _0x389
                 _0x2D4:
001543 32ed      	CPI  R30,LOW(0x2D)
001544 e0a0      	LDI  R26,HIGH(0x2D)
001545 07fa      	CPC  R31,R26
001546 f429      	BRNE _0x2D5
001547 940e 1f5e 	CALL SUBOPT_0x33
001549 e5ea      	LDI  R30,LOW(90)
00154a e0f0      	LDI  R31,HIGH(90)
00154b c087      	RJMP _0x388
                 _0x2D5:
00154c 32ee      	CPI  R30,LOW(0x2E)
00154d e0a0      	LDI  R26,HIGH(0x2E)
00154e 07fa      	CPC  R31,R26
00154f f429      	BRNE _0x2D6
001550 940e 1f5e 	CALL SUBOPT_0x33
001552 e5ea      	LDI  R30,LOW(90)
001553 e0f0      	LDI  R31,HIGH(90)
001554 c07e      	RJMP _0x388
                 _0x2D6:
001555 32ef      	CPI  R30,LOW(0x2F)
001556 e0a0      	LDI  R26,HIGH(0x2F)
001557 07fa      	CPC  R31,R26
001558 f429      	BRNE _0x2D7
001559 940e 2165 	CALL SUBOPT_0x7E
00155b e5e0      	LDI  R30,LOW(80)
00155c e0f0      	LDI  R31,HIGH(80)
00155d c075      	RJMP _0x388
                 _0x2D7:
00155e 33e0      	CPI  R30,LOW(0x30)
00155f e0a0      	LDI  R26,HIGH(0x30)
001560 07fa      	CPC  R31,R26
001561 f429      	BRNE _0x2D8
001562 940e 2165 	CALL SUBOPT_0x7E
001564 e5e0      	LDI  R30,LOW(80)
001565 e0f0      	LDI  R31,HIGH(80)
001566 c06c      	RJMP _0x388
                 _0x2D8:
001567 33e1      	CPI  R30,LOW(0x31)
001568 e0a0      	LDI  R26,HIGH(0x31)
001569 07fa      	CPC  R31,R26
00156a f419      	BRNE _0x2D9
00156b e4eb      	LDI  R30,LOW(75)
00156c e0f0      	LDI  R31,HIGH(75)
00156d c061      	RJMP _0x389
                 _0x2D9:
00156e 33e2      	CPI  R30,LOW(0x32)
00156f e0a0      	LDI  R26,HIGH(0x32)
001570 07fa      	CPC  R31,R26
001571 f429      	BRNE _0x2DA
001572 940e 1f5e 	CALL SUBOPT_0x33
001574 e4e6      	LDI  R30,LOW(70)
001575 e0f0      	LDI  R31,HIGH(70)
001576 c05c      	RJMP _0x388
                 _0x2DA:
001577 33e3      	CPI  R30,LOW(0x33)
001578 e0a0      	LDI  R26,HIGH(0x33)
001579 07fa      	CPC  R31,R26
00157a f429      	BRNE _0x2DB
00157b 940e 1f51 	CALL SUBOPT_0x31
00157d e5ea      	LDI  R30,LOW(90)
00157e e0f0      	LDI  R31,HIGH(90)
00157f c053      	RJMP _0x388
                 _0x2DB:
001580 33e4      	CPI  R30,LOW(0x34)
001581 e0a0      	LDI  R26,HIGH(0x34)
001582 07fa      	CPC  R31,R26
001583 f429      	BRNE _0x2DC
001584 940e 1f51 	CALL SUBOPT_0x31
001586 e4e6      	LDI  R30,LOW(70)
001587 e0f0      	LDI  R31,HIGH(70)
001588 c04a      	RJMP _0x388
                 _0x2DC:
001589 33e5      	CPI  R30,LOW(0x35)
00158a e0a0      	LDI  R26,HIGH(0x35)
00158b 07fa      	CPC  R31,R26
00158c f419      	BRNE _0x2DD
00158d e4eb      	LDI  R30,LOW(75)
00158e e0f0      	LDI  R31,HIGH(75)
00158f c03f      	RJMP _0x389
                 _0x2DD:
001590 33e6      	CPI  R30,LOW(0x36)
001591 e0a0      	LDI  R26,HIGH(0x36)
001592 07fa      	CPC  R31,R26
001593 f429      	BRNE _0x2DE
001594 940e 1f5e 	CALL SUBOPT_0x33
001596 e4e1      	LDI  R30,LOW(65)
001597 e0f0      	LDI  R31,HIGH(65)
001598 c03a      	RJMP _0x388
                 _0x2DE:
001599 33e7      	CPI  R30,LOW(0x37)
00159a e0a0      	LDI  R26,HIGH(0x37)
00159b 07fa      	CPC  R31,R26
00159c f419      	BRNE _0x2DF
00159d e5e0      	LDI  R30,LOW(80)
00159e e0f0      	LDI  R31,HIGH(80)
00159f c02f      	RJMP _0x389
                 _0x2DF:
0015a0 33e8      	CPI  R30,LOW(0x38)
0015a1 e0a0      	LDI  R26,HIGH(0x38)
0015a2 07fa      	CPC  R31,R26
0015a3 f419      	BRNE _0x2E0
0015a4 e5e0      	LDI  R30,LOW(80)
0015a5 e0f0      	LDI  R31,HIGH(80)
0015a6 c028      	RJMP _0x389
                 _0x2E0:
0015a7 33e9      	CPI  R30,LOW(0x39)
0015a8 e0a0      	LDI  R26,HIGH(0x39)
0015a9 07fa      	CPC  R31,R26
0015aa f419      	BRNE _0x2E1
0015ab e5e0      	LDI  R30,LOW(80)
0015ac e0f0      	LDI  R31,HIGH(80)
0015ad c021      	RJMP _0x389
                 _0x2E1:
0015ae 33ea      	CPI  R30,LOW(0x3A)
0015af e0a0      	LDI  R26,HIGH(0x3A)
0015b0 07fa      	CPC  R31,R26
0015b1 f429      	BRNE _0x2E2
0015b2 940e 1f51 	CALL SUBOPT_0x31
0015b4 e5e0      	LDI  R30,LOW(80)
0015b5 e0f0      	LDI  R31,HIGH(80)
0015b6 c01c      	RJMP _0x388
                 _0x2E2:
0015b7 33eb      	CPI  R30,LOW(0x3B)
0015b8 e0a0      	LDI  R26,HIGH(0x3B)
0015b9 07fa      	CPC  R31,R26
0015ba f429      	BRNE _0x2E3
0015bb 940e 1f51 	CALL SUBOPT_0x31
0015bd e5e5      	LDI  R30,LOW(85)
0015be e0f0      	LDI  R31,HIGH(85)
0015bf c013      	RJMP _0x388
                 _0x2E3:
0015c0 33ec      	CPI  R30,LOW(0x3C)
0015c1 e0a0      	LDI  R26,HIGH(0x3C)
0015c2 07fa      	CPC  R31,R26
0015c3 f429      	BRNE _0x2E4
0015c4 940e 1f5e 	CALL SUBOPT_0x33
0015c6 e4e6      	LDI  R30,LOW(70)
0015c7 e0f0      	LDI  R31,HIGH(70)
0015c8 c00a      	RJMP _0x388
                 _0x2E4:
0015c9 34e0      	CPI  R30,LOW(0x40)
0015ca e0a0      	LDI  R26,HIGH(0x40)
0015cb 07fa      	CPC  R31,R26
0015cc f481      	BRNE _0x2A7
                 _0x38A:
0015cd e4e6      	LDI  R30,LOW(70)
0015ce e0f0      	LDI  R31,HIGH(70)
                 _0x389:
0015cf 93fa      	ST   -Y,R31
0015d0 93ea      	ST   -Y,R30
0015d1 e6e4      	LDI  R30,LOW(100)
0015d2 e0f0      	LDI  R31,HIGH(100)
                 _0x388:
0015d3 93fa      	ST   -Y,R31
0015d4 93ea      	ST   -Y,R30
0015d5 e0e1      	LDI  R30,LOW(1)
0015d6 e0f0      	LDI  R31,HIGH(1)
0015d7 93fa      	ST   -Y,R31
0015d8 93ea      	ST   -Y,R30
0015d9 e0a1      	LDI  R26,LOW(1)
                 _0x387:
0015da e0b0      	LDI  R27,0
0015db 940e 03ec 	CALL _movement
                 _0x2A7:
0015dd 9508      	RET
                 ; .FEND
                 _STATE_1:
                 ; .FSTART _STATE_1
                 _0x2E7:
0015de e6e4      	LDI  R30,LOW(100)
0015df e0f0      	LDI  R31,HIGH(100)
0015e0 940e 1e13 	CALL SUBOPT_0xA
0015e2 e6e4      	LDI  R30,LOW(100)
0015e3 e0f0      	LDI  R31,HIGH(100)
0015e4 940e 1e18 	CALL SUBOPT_0xB
0015e6 9adf      	SBI  0x1B,7
0015e7 98dd      	CBI  0x1B,5
0015e8 940e 1f70 	CALL SUBOPT_0x36
                +
0015ea e3a8     +LDI R26 , LOW ( _0x2ED + ( 0 ) )
0015eb e0b6     +LDI R27 , HIGH ( _0x2ED + ( 0 ) )
                 	__POINTW2MN _0x2ED,0
0015ec 940e 1f73 	CALL SUBOPT_0x37
                +
0015ee e3ab     +LDI R26 , LOW ( _0x2ED + ( 3 ) )
0015ef e0b6     +LDI R27 , HIGH ( _0x2ED + ( 3 ) )
                 	__POINTW2MN _0x2ED,3
0015f0 940e 1f83 	CALL SUBOPT_0x38
0015f2 940e 1df5 	CALL SUBOPT_0x6
0015f4 940e 21c6 	CALL SUBOPT_0x92
0015f6 f42c      	BRGE _0x2EE
0015f7 940e 1dcb 	CALL SUBOPT_0x1
0015f9 940e 21c6 	CALL SUBOPT_0x92
0015fb f00c      	BRLT _0x2EF
                 _0x2EE:
0015fc c001      	RJMP _0x2E8
                 _0x2EF:
0015fd cfe0      	RJMP _0x2E7
                 _0x2E8:
0015fe 9508      	RET
                 ; .FEND
                 
                 	.DSEG
                 _0x2ED:
000638           	.BYTE 0x7
                 
                 	.CSEG
                 _STATE_2:
                 ; .FSTART _STATE_2
                +
0015ff e0e4     +LDI R30 , LOW ( 0x4 )
001600 e0f0     +LDI R31 , HIGH ( 0x4 )
001601 e060     +LDI R22 , BYTE3 ( 0x4 )
001602 e070     +LDI R23 , BYTE4 ( 0x4 )
                 	__GETD1N 0x4
001603 93e0 07e2 	STS  _wheelEncoderCounter_left,R30
001605 93f0 07e3 	STS  _wheelEncoderCounter_left+1,R31
001607 9360 07e4 	STS  _wheelEncoderCounter_left+2,R22
001609 9370 07e5 	STS  _wheelEncoderCounter_left+3,R23
                +
00160b e0e5     +LDI R30 , LOW ( 0x5 )
00160c e0f0     +LDI R31 , HIGH ( 0x5 )
00160d e060     +LDI R22 , BYTE3 ( 0x5 )
00160e e070     +LDI R23 , BYTE4 ( 0x5 )
                 	__GETD1N 0x5
00160f 93e0 07e6 	STS  _wheelEncoderCounter_right,R30
001611 93f0 07e7 	STS  _wheelEncoderCounter_right+1,R31
001613 9360 07e8 	STS  _wheelEncoderCounter_right+2,R22
001615 9370 07e9 	STS  _wheelEncoderCounter_right+3,R23
001617 940e 21ce 	CALL SUBOPT_0x93
                +
001619 e3af     +LDI R26 , LOW ( _0x2F0 + ( 0 ) )
00161a e0b6     +LDI R27 , HIGH ( _0x2F0 + ( 0 ) )
                 	__POINTW2MN _0x2F0,0
00161b 940e 1d58 	CALL _lcd_puts
                +
00161d e4a7     +LDI R26 , LOW ( _0x2F0 + ( 8 ) )
00161e e0b6     +LDI R27 , HIGH ( _0x2F0 + ( 8 ) )
                 	__POINTW2MN _0x2F0,8
00161f 940e 1d58 	CALL _lcd_puts
                 _0x2F2:
001621 940e 1f48 	CALL SUBOPT_0x30
001623 940e 2434 	CALL __CPD12
001625 f431      	BRNE _0x2F4
001626 940e 214b 	CALL SUBOPT_0x78
001628 940e 214b 	CALL SUBOPT_0x78
00162a 940e 1f56 	CALL SUBOPT_0x32
                 _0x2F4:
00162c 940e 1f48 	CALL SUBOPT_0x30
00162e 940e 2439 	CALL __CPD21
001630 f434      	BRGE _0x2F5
001631 940e 21d5 	CALL SUBOPT_0x94
001633 940e 214b 	CALL SUBOPT_0x78
001635 940e 1f56 	CALL SUBOPT_0x32
                 _0x2F5:
001637 940e 1f48 	CALL SUBOPT_0x30
001639 940e 2434 	CALL __CPD12
00163b f434      	BRGE _0x2F6
00163c 940e 214b 	CALL SUBOPT_0x78
00163e 940e 21d5 	CALL SUBOPT_0x94
001640 940e 1f56 	CALL SUBOPT_0x32
                 _0x2F6:
001642 940e 1e8e 	CALL SUBOPT_0x1D
                +
001644 e4aa     +LDI R26 , LOW ( _0x2F0 + ( 11 ) )
001645 e0b6     +LDI R27 , HIGH ( _0x2F0 + ( 11 ) )
                 	__POINTW2MN _0x2F0,11
001646 940e 1f73 	CALL SUBOPT_0x37
                +
001648 e4ad     +LDI R26 , LOW ( _0x2F0 + ( 14 ) )
001649 e0b6     +LDI R27 , HIGH ( _0x2F0 + ( 14 ) )
                 	__POINTW2MN _0x2F0,14
00164a 940e 1f83 	CALL SUBOPT_0x38
00164c 940e 1dcb 	CALL SUBOPT_0x1
                +
00164e eced     +LDI R30 , LOW ( 0xCD )
00164f e0f0     +LDI R31 , HIGH ( 0xCD )
001650 e060     +LDI R22 , BYTE3 ( 0xCD )
001651 e070     +LDI R23 , BYTE4 ( 0xCD )
                 	__GETD1N 0xCD
001652 940e 23f2 	CALL __LTD12
001654 2e0e      	MOV  R0,R30
001655 940e 1dcb 	CALL SUBOPT_0x1
                +
001657 efef     +LDI R30 , LOW ( 0xFFFFFFFF )
001658 efff     +LDI R31 , HIGH ( 0xFFFFFFFF )
001659 ef6f     +LDI R22 , BYTE3 ( 0xFFFFFFFF )
00165a ef7f     +LDI R23 , BYTE4 ( 0xFFFFFFFF )
                 	__GETD1N 0xFFFFFFFF
00165b 940e 23fa 	CALL __GTD12
00165d 21e0      	AND  R30,R0
00165e f611      	BRNE _0x2F2
00165f 940e 1f6b 	CALL SUBOPT_0x35
001661 940e 1f6b 	CALL SUBOPT_0x35
001663 940e 1f56 	CALL SUBOPT_0x32
001665 940e 21da 	CALL SUBOPT_0x95
                +
001667 e5a1     +LDI R26 , LOW ( _0x2F0 + ( 18 ) )
001668 e0b6     +LDI R27 , HIGH ( _0x2F0 + ( 18 ) )
                 	__POINTW2MN _0x2F0,18
001669 940e 1d58 	CALL _lcd_puts
                +
00166b e5a9     +LDI R26 , LOW ( _0x2F0 + ( 26 ) )
00166c e0b6     +LDI R27 , HIGH ( _0x2F0 + ( 26 ) )
                 	__POINTW2MN _0x2F0,26
00166d 940e 1d58 	CALL _lcd_puts
                 _0x2F8:
00166f 940e 21b6 	CALL SUBOPT_0x8F
001671 940e 21b6 	CALL SUBOPT_0x8F
001673 940e 1f6b 	CALL SUBOPT_0x35
001675 940e 2182 	CALL SUBOPT_0x85
001677 940e 1e8e 	CALL SUBOPT_0x1D
                +
001679 e5ac     +LDI R26 , LOW ( _0x2F0 + ( 29 ) )
00167a e0b6     +LDI R27 , HIGH ( _0x2F0 + ( 29 ) )
                 	__POINTW2MN _0x2F0,29
00167b 940e 1f73 	CALL SUBOPT_0x37
                +
00167d e5af     +LDI R26 , LOW ( _0x2F0 + ( 32 ) )
00167e e0b6     +LDI R27 , HIGH ( _0x2F0 + ( 32 ) )
                 	__POINTW2MN _0x2F0,32
00167f 940e 1f83 	CALL SUBOPT_0x38
001681 940e 21e7 	CALL SUBOPT_0x96
001683 963d      	ADIW R30,13
001684 940e 21ec 	CALL SUBOPT_0x97
001686 f344      	BRLT _0x2F8
001687 940e 1f6b 	CALL SUBOPT_0x35
001689 940e 1f6b 	CALL SUBOPT_0x35
00168b 940e 1f56 	CALL SUBOPT_0x32
00168d 940e 21da 	CALL SUBOPT_0x95
                +
00168f e6a3     +LDI R26 , LOW ( _0x2F0 + ( 36 ) )
001690 e0b6     +LDI R27 , HIGH ( _0x2F0 + ( 36 ) )
                 	__POINTW2MN _0x2F0,36
001691 940e 1d58 	CALL _lcd_puts
                +
001693 e6ab     +LDI R26 , LOW ( _0x2F0 + ( 44 ) )
001694 e0b6     +LDI R27 , HIGH ( _0x2F0 + ( 44 ) )
                 	__POINTW2MN _0x2F0,44
001695 940e 1d58 	CALL _lcd_puts
                 _0x2FB:
001697 940e 1f48 	CALL SUBOPT_0x30
001699 940e 2434 	CALL __CPD12
00169b f431      	BRNE _0x2FD
00169c 940e 214b 	CALL SUBOPT_0x78
00169e 940e 214b 	CALL SUBOPT_0x78
0016a0 940e 1f56 	CALL SUBOPT_0x32
                 _0x2FD:
0016a2 940e 1f48 	CALL SUBOPT_0x30
0016a4 940e 2439 	CALL __CPD21
0016a6 f434      	BRGE _0x2FE
0016a7 940e 21d5 	CALL SUBOPT_0x94
0016a9 940e 214b 	CALL SUBOPT_0x78
0016ab 940e 1f56 	CALL SUBOPT_0x32
                 _0x2FE:
0016ad 940e 1f48 	CALL SUBOPT_0x30
0016af 940e 2434 	CALL __CPD12
0016b1 f434      	BRGE _0x2FF
0016b2 940e 214b 	CALL SUBOPT_0x78
0016b4 940e 21d5 	CALL SUBOPT_0x94
0016b6 940e 1f56 	CALL SUBOPT_0x32
                 _0x2FF:
0016b8 940e 1e8e 	CALL SUBOPT_0x1D
                +
0016ba e6ae     +LDI R26 , LOW ( _0x2F0 + ( 47 ) )
0016bb e0b6     +LDI R27 , HIGH ( _0x2F0 + ( 47 ) )
                 	__POINTW2MN _0x2F0,47
0016bc 940e 1f73 	CALL SUBOPT_0x37
                +
0016be e7a1     +LDI R26 , LOW ( _0x2F0 + ( 50 ) )
0016bf e0b6     +LDI R27 , HIGH ( _0x2F0 + ( 50 ) )
                 	__POINTW2MN _0x2F0,50
0016c0 940e 1f83 	CALL SUBOPT_0x38
0016c2 940e 21f2 	CALL SUBOPT_0x98
0016c4 f294      	BRLT _0x2FB
0016c5 940e 1f6b 	CALL SUBOPT_0x35
0016c7 940e 1f6b 	CALL SUBOPT_0x35
0016c9 940e 1f56 	CALL SUBOPT_0x32
0016cb 940e 21da 	CALL SUBOPT_0x95
                +
0016cd e7a5     +LDI R26 , LOW ( _0x2F0 + ( 54 ) )
0016ce e0b6     +LDI R27 , HIGH ( _0x2F0 + ( 54 ) )
                 	__POINTW2MN _0x2F0,54
0016cf 940e 1d58 	CALL _lcd_puts
                +
0016d1 e7ad     +LDI R26 , LOW ( _0x2F0 + ( 62 ) )
0016d2 e0b6     +LDI R27 , HIGH ( _0x2F0 + ( 62 ) )
                 	__POINTW2MN _0x2F0,62
0016d3 940e 1d58 	CALL _lcd_puts
                 _0x301:
0016d5 940e 21b6 	CALL SUBOPT_0x8F
0016d7 940e 21b6 	CALL SUBOPT_0x8F
0016d9 940e 1f6b 	CALL SUBOPT_0x35
0016db 940e 2182 	CALL SUBOPT_0x85
0016dd 940e 1e8e 	CALL SUBOPT_0x1D
                +
0016df e8a0     +LDI R26 , LOW ( _0x2F0 + ( 65 ) )
0016e0 e0b6     +LDI R27 , HIGH ( _0x2F0 + ( 65 ) )
                 	__POINTW2MN _0x2F0,65
0016e1 940e 1f73 	CALL SUBOPT_0x37
                +
0016e3 e8a3     +LDI R26 , LOW ( _0x2F0 + ( 68 ) )
0016e4 e0b6     +LDI R27 , HIGH ( _0x2F0 + ( 68 ) )
                 	__POINTW2MN _0x2F0,68
0016e5 940e 1f83 	CALL SUBOPT_0x38
0016e7 940e 21e7 	CALL SUBOPT_0x96
0016e9 967e      	ADIW R30,30
0016ea 940e 21ec 	CALL SUBOPT_0x97
0016ec f344      	BRLT _0x301
0016ed 940e 1f6b 	CALL SUBOPT_0x35
0016ef 940e 1f6b 	CALL SUBOPT_0x35
0016f1 940e 1f56 	CALL SUBOPT_0x32
0016f3 940e 21da 	CALL SUBOPT_0x95
                +
0016f5 e8a7     +LDI R26 , LOW ( _0x2F0 + ( 72 ) )
0016f6 e0b6     +LDI R27 , HIGH ( _0x2F0 + ( 72 ) )
                 	__POINTW2MN _0x2F0,72
0016f7 940e 1d58 	CALL _lcd_puts
                +
0016f9 e8af     +LDI R26 , LOW ( _0x2F0 + ( 80 ) )
0016fa e0b6     +LDI R27 , HIGH ( _0x2F0 + ( 80 ) )
                 	__POINTW2MN _0x2F0,80
0016fb 940e 1d58 	CALL _lcd_puts
                 _0x304:
0016fd 940e 1f48 	CALL SUBOPT_0x30
0016ff 940e 2434 	CALL __CPD12
001701 f431      	BRNE _0x306
001702 940e 214b 	CALL SUBOPT_0x78
001704 940e 214b 	CALL SUBOPT_0x78
001706 940e 1f56 	CALL SUBOPT_0x32
                 _0x306:
001708 940e 1f48 	CALL SUBOPT_0x30
00170a 940e 2439 	CALL __CPD21
00170c f434      	BRGE _0x307
00170d 940e 21d5 	CALL SUBOPT_0x94
00170f 940e 214b 	CALL SUBOPT_0x78
001711 940e 1f56 	CALL SUBOPT_0x32
                 _0x307:
001713 940e 1f48 	CALL SUBOPT_0x30
001715 940e 2434 	CALL __CPD12
001717 f434      	BRGE _0x308
001718 940e 214b 	CALL SUBOPT_0x78
00171a 940e 21d5 	CALL SUBOPT_0x94
00171c 940e 1f56 	CALL SUBOPT_0x32
                 _0x308:
00171e 940e 1e8e 	CALL SUBOPT_0x1D
                +
001720 e9a2     +LDI R26 , LOW ( _0x2F0 + ( 83 ) )
001721 e0b6     +LDI R27 , HIGH ( _0x2F0 + ( 83 ) )
                 	__POINTW2MN _0x2F0,83
001722 940e 1f73 	CALL SUBOPT_0x37
                +
001724 e9a5     +LDI R26 , LOW ( _0x2F0 + ( 86 ) )
001725 e0b6     +LDI R27 , HIGH ( _0x2F0 + ( 86 ) )
                 	__POINTW2MN _0x2F0,86
001726 940e 1f83 	CALL SUBOPT_0x38
001728 940e 21f2 	CALL SUBOPT_0x98
00172a f294      	BRLT _0x304
00172b 940e 1f6b 	CALL SUBOPT_0x35
00172d 940e 1f6b 	CALL SUBOPT_0x35
00172f 940e 1f56 	CALL SUBOPT_0x32
001731 940e 21da 	CALL SUBOPT_0x95
                +
001733 e9a9     +LDI R26 , LOW ( _0x2F0 + ( 90 ) )
001734 e0b6     +LDI R27 , HIGH ( _0x2F0 + ( 90 ) )
                 	__POINTW2MN _0x2F0,90
001735 940e 1d58 	CALL _lcd_puts
                +
001737 eaa1     +LDI R26 , LOW ( _0x2F0 + ( 98 ) )
001738 e0b6     +LDI R27 , HIGH ( _0x2F0 + ( 98 ) )
                 	__POINTW2MN _0x2F0,98
001739 940e 1d58 	CALL _lcd_puts
                 _0x30A:
00173b 940e 21b6 	CALL SUBOPT_0x8F
00173d 940e 21b6 	CALL SUBOPT_0x8F
00173f e0e1      	LDI  R30,LOW(1)
001740 e0f0      	LDI  R31,HIGH(1)
001741 93fa      	ST   -Y,R31
001742 93ea      	ST   -Y,R30
001743 940e 21a8 	CALL SUBOPT_0x8C
001745 940e 1e8e 	CALL SUBOPT_0x1D
                +
001747 eaa4     +LDI R26 , LOW ( _0x2F0 + ( 101 ) )
001748 e0b6     +LDI R27 , HIGH ( _0x2F0 + ( 101 ) )
                 	__POINTW2MN _0x2F0,101
001749 940e 1f73 	CALL SUBOPT_0x37
                +
00174b eaa7     +LDI R26 , LOW ( _0x2F0 + ( 104 ) )
00174c e0b6     +LDI R27 , HIGH ( _0x2F0 + ( 104 ) )
                 	__POINTW2MN _0x2F0,104
00174d 940e 1f83 	CALL SUBOPT_0x38
00174f 940e 21e7 	CALL SUBOPT_0x96
001751 973d      	SBIW R30,13
001752 940e 1dcb 	CALL SUBOPT_0x1
001754 940e 23da 	CALL __CWD1
001756 940e 2434 	CALL __CPD12
001758 f314      	BRLT _0x30A
001759 940e 1f6b 	CALL SUBOPT_0x35
00175b 940e 1f6b 	CALL SUBOPT_0x35
00175d 940e 1f56 	CALL SUBOPT_0x32
00175f 940e 21da 	CALL SUBOPT_0x95
                +
001761 eaab     +LDI R26 , LOW ( _0x2F0 + ( 108 ) )
001762 e0b6     +LDI R27 , HIGH ( _0x2F0 + ( 108 ) )
                 	__POINTW2MN _0x2F0,108
001763 940e 1d58 	CALL _lcd_puts
                +
001765 eba3     +LDI R26 , LOW ( _0x2F0 + ( 116 ) )
001766 e0b6     +LDI R27 , HIGH ( _0x2F0 + ( 116 ) )
                 	__POINTW2MN _0x2F0,116
001767 940e 1d58 	CALL _lcd_puts
                 _0x30D:
001769 940e 1f48 	CALL SUBOPT_0x30
00176b 940e 2434 	CALL __CPD12
00176d f431      	BRNE _0x30F
00176e 940e 214b 	CALL SUBOPT_0x78
001770 940e 214b 	CALL SUBOPT_0x78
001772 940e 1f56 	CALL SUBOPT_0x32
                 _0x30F:
001774 940e 1f48 	CALL SUBOPT_0x30
001776 940e 2439 	CALL __CPD21
001778 f434      	BRGE _0x310
001779 940e 21d5 	CALL SUBOPT_0x94
00177b 940e 214b 	CALL SUBOPT_0x78
00177d 940e 1f56 	CALL SUBOPT_0x32
                 _0x310:
00177f 940e 1f48 	CALL SUBOPT_0x30
001781 940e 2434 	CALL __CPD12
001783 f434      	BRGE _0x311
001784 940e 214b 	CALL SUBOPT_0x78
001786 940e 21d5 	CALL SUBOPT_0x94
001788 940e 1f56 	CALL SUBOPT_0x32
                 _0x311:
00178a 940e 1e8e 	CALL SUBOPT_0x1D
                +
00178c eba6     +LDI R26 , LOW ( _0x2F0 + ( 119 ) )
00178d e0b6     +LDI R27 , HIGH ( _0x2F0 + ( 119 ) )
                 	__POINTW2MN _0x2F0,119
00178e 940e 1f73 	CALL SUBOPT_0x37
                +
001790 eba9     +LDI R26 , LOW ( _0x2F0 + ( 122 ) )
001791 e0b6     +LDI R27 , HIGH ( _0x2F0 + ( 122 ) )
                 	__POINTW2MN _0x2F0,122
001792 940e 1f83 	CALL SUBOPT_0x38
001794 940e 21f2 	CALL SUBOPT_0x98
001796 f294      	BRLT _0x30D
001797 940e 1f6b 	CALL SUBOPT_0x35
001799 940e 1f6b 	CALL SUBOPT_0x35
00179b 940e 1f56 	CALL SUBOPT_0x32
00179d 940e 1dfe 	CALL SUBOPT_0x7
00179f 940e 1deb 	CALL SUBOPT_0x5
0017a1 edac      	LDI  R26,LOW(1500)
0017a2 e0b5      	LDI  R27,HIGH(1500)
0017a3 c24c      	RJMP _0x20E0003
                 ; .FEND
                 
                 	.DSEG
                 _0x2F0:
00063f           	.BYTE 0x7E
                 
                 	.CSEG
                 _STATE_3:
                 ; .FSTART _STATE_3
0017a4 940e 0932 	CALL _detector
0017a6 dc2f      	RCALL _detectorcase
0017a7 9508      	RET
                 ; .FEND
                 _STATE_4:
                 ; .FSTART _STATE_4
0017a8 940e 21f6 	CALL SUBOPT_0x99
0017aa 9730      	SBIW R30,0
0017ab f481      	BRNE _0x312
0017ac 940e 21fb 	CALL SUBOPT_0x9A
0017ae 940e 1ecf 	CALL SUBOPT_0x22
0017b0 17ae      	CP   R26,R30
0017b1 07bf      	CPC  R27,R31
0017b2 f418      	BRSH _0x313
0017b3 940e 1ed4 	CALL SUBOPT_0x23
0017b5 c002      	RJMP _0x38B
                 _0x313:
0017b6 940e 1ecf 	CALL SUBOPT_0x22
                 _0x38B:
0017b8 93e0 07fc 	STS  _min_light,R30
0017ba 93f0 07fd 	STS  _min_light+1,R31
                 _0x312:
0017bc 940e 1d1c 	CALL _lcd_clear
                +
0017be ebad     +LDI R26 , LOW ( _0x315 + ( 0 ) )
0017bf e0b6     +LDI R27 , HIGH ( _0x315 + ( 0 ) )
                 	__POINTW2MN _0x315,0
0017c0 940e 1e29 	CALL SUBOPT_0xE
0017c2 940e 2200 	CALL SUBOPT_0x9B
0017c4 940e 2207 	CALL SUBOPT_0x9C
                +
0017c6 eca1     +LDI R26 , LOW ( _0x315 + ( 4 ) )
0017c7 e0b6     +LDI R27 , HIGH ( _0x315 + ( 4 ) )
                 	__POINTW2MN _0x315,4
0017c8 940e 220f 	CALL SUBOPT_0x9D
0017ca 940e 21fb 	CALL SUBOPT_0x9A
0017cc 940e 2218 	CALL SUBOPT_0x9E
0017ce 940e 221e 	CALL SUBOPT_0x9F
0017d0 29e0      	OR   R30,R0
0017d1 f0e1      	BREQ _0x316
0017d2 940e 21fb 	CALL SUBOPT_0x9A
0017d4 940e 1ecf 	CALL SUBOPT_0x22
0017d6 17ea      	CP   R30,R26
0017d7 07fb      	CPC  R31,R27
0017d8 f430      	BRSH _0x317
                +
0017d9 e6e4     +LDI R30 , LOW ( 0x64 )
0017da e0f0     +LDI R31 , HIGH ( 0x64 )
0017db e060     +LDI R22 , BYTE3 ( 0x64 )
0017dc e070     +LDI R23 , BYTE4 ( 0x64 )
                 	__GETD1N 0x64
0017dd 940e 2224 	CALL SUBOPT_0xA0
                 _0x317:
0017df 940e 21fb 	CALL SUBOPT_0x9A
0017e1 940e 1ecf 	CALL SUBOPT_0x22
0017e3 17ae      	CP   R26,R30
0017e4 07bf      	CPC  R27,R31
0017e5 f440      	BRSH _0x318
0017e6 940e 2236 	CALL SUBOPT_0xA1
                +
0017e8 e6e4     +LDI R30 , LOW ( 0x64 )
0017e9 e0f0     +LDI R31 , HIGH ( 0x64 )
0017ea e060     +LDI R22 , BYTE3 ( 0x64 )
0017eb e070     +LDI R23 , BYTE4 ( 0x64 )
                 	__GETD1N 0x64
0017ec 940e 2240 	CALL SUBOPT_0xA2
                 _0x318:
                 _0x316:
0017ee 940e 2200 	CALL SUBOPT_0x9B
0017f0 91e0 07ea 	LDS  R30,_newvalL
0017f2 91f0 07eb 	LDS  R31,_newvalL+1
0017f4 940e 2150 	CALL SUBOPT_0x79
0017f6 940e 2236 	CALL SUBOPT_0xA1
0017f8 e0e0      	LDI  R30,LOW(0)
0017f9 93e0 07ee 	STS  _newvalR,R30
0017fb 93e0 07ef 	STS  _newvalR+1,R30
0017fd 93e0 07f0 	STS  _newvalR+2,R30
0017ff 93e0 07f1 	STS  _newvalR+3,R30
001801 9508      	RET
                 ; .FEND
                 
                 	.DSEG
                 _0x315:
0006bd           	.BYTE 0x6
                 
                 	.CSEG
                 _STATE_5:
                 ; .FSTART _STATE_5
001802 940e 21f6 	CALL SUBOPT_0x99
001804 9730      	SBIW R30,0
001805 f481      	BRNE _0x319
001806 940e 21fb 	CALL SUBOPT_0x9A
001808 940e 1ecf 	CALL SUBOPT_0x22
00180a 17ae      	CP   R26,R30
00180b 07bf      	CPC  R27,R31
00180c f418      	BRSH _0x31A
00180d 940e 1ed4 	CALL SUBOPT_0x23
00180f c002      	RJMP _0x38C
                 _0x31A:
001810 940e 1ecf 	CALL SUBOPT_0x22
                 _0x38C:
001812 93e0 07fc 	STS  _min_light,R30
001814 93f0 07fd 	STS  _min_light+1,R31
                 _0x319:
001816 940e 1d1c 	CALL _lcd_clear
                +
001818 eca3     +LDI R26 , LOW ( _0x31C + ( 0 ) )
001819 e0b6     +LDI R27 , HIGH ( _0x31C + ( 0 ) )
                 	__POINTW2MN _0x31C,0
00181a 940e 1e29 	CALL SUBOPT_0xE
00181c 940e 2200 	CALL SUBOPT_0x9B
00181e 940e 2207 	CALL SUBOPT_0x9C
                +
001820 eca8     +LDI R26 , LOW ( _0x31C + ( 5 ) )
001821 e0b6     +LDI R27 , HIGH ( _0x31C + ( 5 ) )
                 	__POINTW2MN _0x31C,5
001822 940e 220f 	CALL SUBOPT_0x9D
001824 940e 21fb 	CALL SUBOPT_0x9A
001826 940e 2218 	CALL SUBOPT_0x9E
001828 940e 221e 	CALL SUBOPT_0x9F
00182a 29e0      	OR   R30,R0
00182b f0e1      	BREQ _0x31D
00182c 940e 21fb 	CALL SUBOPT_0x9A
00182e 940e 1ecf 	CALL SUBOPT_0x22
001830 17ea      	CP   R30,R26
001831 07fb      	CPC  R31,R27
001832 f430      	BRSH _0x31E
                +
001833 e3e2     +LDI R30 , LOW ( 0x32 )
001834 e0f0     +LDI R31 , HIGH ( 0x32 )
001835 e060     +LDI R22 , BYTE3 ( 0x32 )
001836 e070     +LDI R23 , BYTE4 ( 0x32 )
                 	__GETD1N 0x32
001837 940e 2224 	CALL SUBOPT_0xA0
                 _0x31E:
001839 940e 21fb 	CALL SUBOPT_0x9A
00183b 940e 1ecf 	CALL SUBOPT_0x22
00183d 17ae      	CP   R26,R30
00183e 07bf      	CPC  R27,R31
00183f f440      	BRSH _0x31F
001840 940e 2236 	CALL SUBOPT_0xA1
                +
001842 e3e2     +LDI R30 , LOW ( 0x32 )
001843 e0f0     +LDI R31 , HIGH ( 0x32 )
001844 e060     +LDI R22 , BYTE3 ( 0x32 )
001845 e070     +LDI R23 , BYTE4 ( 0x32 )
                 	__GETD1N 0x32
001846 940e 2240 	CALL SUBOPT_0xA2
                 _0x31F:
                 _0x31D:
001848 940e 2200 	CALL SUBOPT_0x9B
00184a 91e0 07ea 	LDS  R30,_newvalL
00184c 91f0 07eb 	LDS  R31,_newvalL+1
00184e 93fa      	ST   -Y,R31
00184f 93ea      	ST   -Y,R30
001850 940e 1f56 	CALL SUBOPT_0x32
001852 9508      	RET
                 ; .FEND
                 
                 	.DSEG
                 _0x31C:
0006c3           	.BYTE 0x7
                 
                 	.CSEG
                 _STATE_6:
                 ; .FSTART _STATE_6
001853 940e 0cd6 	CALL _line_detector
001855 d889      	RCALL _detectorcase_line
001856 9508      	RET
                 ; .FEND
                 _STATE_7:
                 ; .FSTART _STATE_7
001857 940e 1ee0 	CALL SUBOPT_0x25
                 ;	iWII -> R17
001859 940e 1d1c 	CALL _lcd_clear
                +
00185b ecaa     +LDI R26 , LOW ( _0x320 + ( 0 ) )
00185c e0b6     +LDI R27 , HIGH ( _0x320 + ( 0 ) )
                 	__POINTW2MN _0x320,0
00185d 940e 1d58 	CALL _lcd_puts
00185f e010      	LDI  R17,LOW(0)
                 _0x322:
001860 3012      	CPI  R17,2
001861 f008      	BRLO PC+2
001862 c03f      	RJMP _0x323
001863 3012      	CPI  R17,2
001864 f5d8      	BRSH _0x324
001865 940e 1ee6 	CALL SUBOPT_0x26
001867 3fef      	CPI  R30,LOW(0x3FF)
001868 e0a3      	LDI  R26,HIGH(0x3FF)
001869 07fa      	CPC  R31,R26
00186a f031      	BREQ _0x326
00186b 940e 1ef1 	CALL SUBOPT_0x27
00186d 3fef      	CPI  R30,LOW(0x3FF)
00186e e0a3      	LDI  R26,HIGH(0x3FF)
00186f 07fa      	CPC  R31,R26
001870 f409      	BRNE _0x325
                 _0x326:
001871 c02e      	RJMP _0x328
                 _0x325:
001872 940e 1ee6 	CALL SUBOPT_0x26
001874 50e0      	SUBI R30,LOW(512)
001875 40f2      	SBCI R31,HIGH(512)
001876 3fef      	CPI  R30,LOW(0x3FF)
001877 e0a3      	LDI  R26,HIGH(0x3FF)
001878 07fa      	CPC  R31,R26
001879 f438      	BRSH _0x329
00187a e3ec      	LDI  R30,LOW(60)
00187b e0f0      	LDI  R31,HIGH(60)
00187c 93e0 0735 	STS  _Wiipwmright,R30
00187e 93f0 0736 	STS  _Wiipwmright+1,R31
001880 c006      	RJMP _0x32A
                 _0x329:
001881 e3ec      	LDI  R30,LOW(60)
001882 e0f0      	LDI  R31,HIGH(60)
001883 93e0 0733 	STS  _Wiipwmleft,R30
001885 93f0 0734 	STS  _Wiipwmleft+1,R31
                 _0x32A:
001887 940e 1ee6 	CALL SUBOPT_0x26
001889 50e0      	SUBI R30,LOW(512)
00188a 40f2      	SBCI R31,HIGH(512)
00188b 93e0 06fe 	STS  _wiicamobject1,R30
00188d 93f0 06ff 	STS  _wiicamobject1+1,R31
00188f 91e0 0750 	LDS  R30,_i
001891 ebad      	LDI  R26,LOW(_y)
001892 e0b7      	LDI  R27,HIGH(_y)
001893 e0f0      	LDI  R31,0
001894 0fee      	LSL  R30
001895 1fff      	ROL  R31
001896 0fae      	ADD  R26,R30
001897 1fbf      	ADC  R27,R31
001898 940e 2422 	CALL __GETW1P
00189a 57e6      	SUBI R30,LOW(374)
00189b 40f1      	SBCI R31,HIGH(374)
00189c 93e0 0700 	STS  _wiicamobject2,R30
00189e 93f0 0701 	STS  _wiicamobject2+1,R31
                 _0x328:
                 _0x324:
0018a0 5f1f      	SUBI R17,-1
0018a1 cfbe      	RJMP _0x322
                 _0x323:
0018a2 940e 1f2a 	CALL SUBOPT_0x2E
0018a4 01df      	MOVW R26,R30
0018a5 01cb      	MOVW R24,R22
                +
0018a6 e0e0     +LDI R30 , LOW ( 0x42200000 )
0018a7 e0f0     +LDI R31 , HIGH ( 0x42200000 )
0018a8 e260     +LDI R22 , BYTE3 ( 0x42200000 )
0018a9 e472     +LDI R23 , BYTE4 ( 0x42200000 )
                 	__GETD1N 0x42200000
0018aa 940e 2393 	CALL __CMPF12
0018ac f009      	BREQ PC+2
0018ad f408      	BRCC PC+2
0018ae c00e      	RJMP _0x32B
0018af 91e0 0733 	LDS  R30,_Wiipwmleft
0018b1 91f0 0734 	LDS  R31,_Wiipwmleft+1
0018b3 93fa      	ST   -Y,R31
0018b4 93ea      	ST   -Y,R30
0018b5 91e0 0735 	LDS  R30,_Wiipwmright
0018b7 91f0 0736 	LDS  R31,_Wiipwmright+1
0018b9 93fa      	ST   -Y,R31
0018ba 93ea      	ST   -Y,R30
0018bb 940e 1f56 	CALL SUBOPT_0x32
                 _0x32B:
0018bd 940e 1f26 	CALL SUBOPT_0x2D
0018bf 9bc3      	SBIS 0x18,3
0018c0 c002      	RJMP _0x32C
0018c1 98c3      	CBI  0x18,3
0018c2 c001      	RJMP _0x32D
                 _0x32C:
0018c3 9ac3      	SBI  0x18,3
                 _0x32D:
0018c4 9119      	LD   R17,Y+
0018c5 9508      	RET
                 ; .FEND
                 
                 	.DSEG
                 _0x320:
0006ca           	.BYTE 0x7
                 
                 	.CSEG
                 _STATE_8:
                 ; .FSTART _STATE_8
0018c6 940e 1d1c 	CALL _lcd_clear
                +
0018c8 eda1     +LDI R26 , LOW ( _0x32E + ( 0 ) )
0018c9 e0b6     +LDI R27 , HIGH ( _0x32E + ( 0 ) )
                 	__POINTW2MN _0x32E,0
0018ca 940e 1d58 	CALL _lcd_puts
0018cc 9508      	RET
                 ; .FEND
                 
                 	.DSEG
                 _0x32E:
0006d1           	.BYTE 0x11
                 
                 	.CSEG
                 _STATE_MACHINE:
                 ; .FSTART _STATE_MACHINE
0018cd e0e0      	LDI  R30,LOW(0)
0018ce 93e0 072d 	STS  _ipwmcompareleft,R30
0018d0 93e0 072e 	STS  _ipwmcompareleft+1,R30
0018d2 93e0 072f 	STS  _ipwmcompareright,R30
0018d4 93e0 0730 	STS  _ipwmcompareright+1,R30
0018d6 91e0 0715 	LDS  R30,_state
0018d8 91f0 0716 	LDS  R31,_state+1
0018da 9730      	SBIW R30,0
0018db f441      	BRNE _0x332
0018dc 940e 2249 	CALL SUBOPT_0xA3
0018de f411      	BRNE _0x333
0018df 940e 224f 	CALL SUBOPT_0xA4
                 _0x333:
0018e1 940e 073f 	CALL _STATE_LINE_SENSOR
0018e3 c10a      	RJMP _0x331
                 _0x332:
0018e4 30e1      	CPI  R30,LOW(0x1)
0018e5 e0a0      	LDI  R26,HIGH(0x1)
0018e6 07fa      	CPC  R31,R26
0018e7 f441      	BRNE _0x334
0018e8 940e 2249 	CALL SUBOPT_0xA3
0018ea f411      	BRNE _0x335
0018eb 940e 224f 	CALL SUBOPT_0xA4
                 _0x335:
0018ed 940e 076c 	CALL _STATE_ENGINE
0018ef c0fe      	RJMP _0x331
                 _0x334:
0018f0 30e2      	CPI  R30,LOW(0x2)
0018f1 e0a0      	LDI  R26,HIGH(0x2)
0018f2 07fa      	CPC  R31,R26
0018f3 f441      	BRNE _0x336
0018f4 940e 2249 	CALL SUBOPT_0xA3
0018f6 f411      	BRNE _0x337
0018f7 940e 224f 	CALL SUBOPT_0xA4
                 _0x337:
0018f9 940e 078d 	CALL _STATE_ENGINE_DIR
0018fb c0f2      	RJMP _0x331
                 _0x336:
0018fc 30e3      	CPI  R30,LOW(0x3)
0018fd e0a0      	LDI  R26,HIGH(0x3)
0018fe 07fa      	CPC  R31,R26
0018ff f441      	BRNE _0x338
001900 940e 2249 	CALL SUBOPT_0xA3
001902 f411      	BRNE _0x339
001903 940e 224f 	CALL SUBOPT_0xA4
                 _0x339:
001905 940e 07ae 	CALL _STATE_DISTANCE_SENSOR
001907 c0e6      	RJMP _0x331
                 _0x338:
001908 30e4      	CPI  R30,LOW(0x4)
001909 e0a0      	LDI  R26,HIGH(0x4)
00190a 07fa      	CPC  R31,R26
00190b f441      	BRNE _0x33A
00190c 940e 2249 	CALL SUBOPT_0xA3
00190e f411      	BRNE _0x33B
00190f 940e 224f 	CALL SUBOPT_0xA4
                 _0x33B:
001911 940e 07d7 	CALL _STATE_LIGHTSENSOR
001913 c0da      	RJMP _0x331
                 _0x33A:
001914 30e5      	CPI  R30,LOW(0x5)
001915 e0a0      	LDI  R26,HIGH(0x5)
001916 07fa      	CPC  R31,R26
001917 f441      	BRNE _0x33C
001918 940e 2249 	CALL SUBOPT_0xA3
00191a f411      	BRNE _0x33D
00191b 940e 224f 	CALL SUBOPT_0xA4
                 _0x33D:
00191d 940e 07fa 	CALL _STATE_WIICAM
00191f c0ce      	RJMP _0x331
                 _0x33C:
001920 30e6      	CPI  R30,LOW(0x6)
001921 e0a0      	LDI  R26,HIGH(0x6)
001922 07fa      	CPC  R31,R26
001923 f441      	BRNE _0x33E
001924 940e 2249 	CALL SUBOPT_0xA3
001926 f411      	BRNE _0x33F
001927 940e 224f 	CALL SUBOPT_0xA4
                 _0x33F:
001929 940e 0868 	CALL _STATE_IRTOWER
00192b c0c2      	RJMP _0x331
                 _0x33E:
00192c 30e7      	CPI  R30,LOW(0x7)
00192d e0a0      	LDI  R26,HIGH(0x7)
00192e 07fa      	CPC  R31,R26
00192f f441      	BRNE _0x340
001930 940e 2249 	CALL SUBOPT_0xA3
001932 f411      	BRNE _0x341
001933 940e 224f 	CALL SUBOPT_0xA4
                 _0x341:
001935 940e 086a 	CALL _STATE_SERVO
001937 c0b6      	RJMP _0x331
                 _0x340:
001938 30e8      	CPI  R30,LOW(0x8)
001939 e0a0      	LDI  R26,HIGH(0x8)
00193a 07fa      	CPC  R31,R26
00193b f441      	BRNE _0x342
00193c 940e 2249 	CALL SUBOPT_0xA3
00193e f411      	BRNE _0x343
00193f 940e 224f 	CALL SUBOPT_0xA4
                 _0x343:
001941 940e 0872 	CALL _STATE_ULTRASONIC
001943 c0aa      	RJMP _0x331
                 _0x342:
001944 30e9      	CPI  R30,LOW(0x9)
001945 e0a0      	LDI  R26,HIGH(0x9)
001946 07fa      	CPC  R31,R26
001947 f441      	BRNE _0x344
001948 940e 2249 	CALL SUBOPT_0xA3
00194a f411      	BRNE _0x345
00194b 940e 224f 	CALL SUBOPT_0xA4
                 _0x345:
00194d 940e 089e 	CALL _STATE_VOR
00194f c09e      	RJMP _0x331
                 _0x344:
001950 30ea      	CPI  R30,LOW(0xA)
001951 e0a0      	LDI  R26,HIGH(0xA)
001952 07fa      	CPC  R31,R26
001953 f441      	BRNE _0x346
001954 940e 2249 	CALL SUBOPT_0xA3
001956 f411      	BRNE _0x347
001957 940e 224f 	CALL SUBOPT_0xA4
                 _0x347:
001959 940e 08c2 	CALL _STATE_ZUR
00195b c092      	RJMP _0x331
                 _0x346:
00195c 30eb      	CPI  R30,LOW(0xB)
00195d e0a0      	LDI  R26,HIGH(0xB)
00195e 07fa      	CPC  R31,R26
00195f f441      	BRNE _0x348
001960 940e 2249 	CALL SUBOPT_0xA3
001962 f411      	BRNE _0x349
001963 940e 224f 	CALL SUBOPT_0xA4
                 _0x349:
001965 940e 08e6 	CALL _STATE_LINKS
001967 c086      	RJMP _0x331
                 _0x348:
001968 30ec      	CPI  R30,LOW(0xC)
001969 e0a0      	LDI  R26,HIGH(0xC)
00196a 07fa      	CPC  R31,R26
00196b f441      	BRNE _0x34A
00196c 940e 2249 	CALL SUBOPT_0xA3
00196e f411      	BRNE _0x34B
00196f 940e 224f 	CALL SUBOPT_0xA4
                 _0x34B:
001971 940e 08eb 	CALL _STATE_RECHTS
001973 c07a      	RJMP _0x331
                 _0x34A:
001974 31e6      	CPI  R30,LOW(0x16)
001975 e0a0      	LDI  R26,HIGH(0x16)
001976 07fa      	CPC  R31,R26
001977 f441      	BRNE _0x34C
001978 940e 2249 	CALL SUBOPT_0xA3
00197a f411      	BRNE _0x34D
00197b 940e 224f 	CALL SUBOPT_0xA4
                 _0x34D:
00197d 940e 0913 	CALL _STATE_90LINKS
00197f c06e      	RJMP _0x331
                 _0x34C:
001980 31e7      	CPI  R30,LOW(0x17)
001981 e0a0      	LDI  R26,HIGH(0x17)
001982 07fa      	CPC  R31,R26
001983 f441      	BRNE _0x34E
001984 940e 2249 	CALL SUBOPT_0xA3
001986 f411      	BRNE _0x34F
001987 940e 224f 	CALL SUBOPT_0xA4
                 _0x34F:
001989 940e 08f4 	CALL _STATE_90RECHTS
00198b c062      	RJMP _0x331
                 _0x34E:
00198c 30ed      	CPI  R30,LOW(0xD)
00198d e0a0      	LDI  R26,HIGH(0xD)
00198e 07fa      	CPC  R31,R26
00198f f439      	BRNE _0x350
001990 940e 2249 	CALL SUBOPT_0xA3
001992 f411      	BRNE _0x351
001993 940e 224f 	CALL SUBOPT_0xA4
                 _0x351:
001995 dc48      	RCALL _STATE_1
001996 c057      	RJMP _0x331
                 _0x350:
001997 30ee      	CPI  R30,LOW(0xE)
001998 e0a0      	LDI  R26,HIGH(0xE)
001999 07fa      	CPC  R31,R26
00199a f439      	BRNE _0x352
00199b 940e 2249 	CALL SUBOPT_0xA3
00199d f411      	BRNE _0x353
00199e 940e 224f 	CALL SUBOPT_0xA4
                 _0x353:
0019a0 dc5e      	RCALL _STATE_2
0019a1 c04c      	RJMP _0x331
                 _0x352:
0019a2 30ef      	CPI  R30,LOW(0xF)
0019a3 e0a0      	LDI  R26,HIGH(0xF)
0019a4 07fa      	CPC  R31,R26
0019a5 f439      	BRNE _0x354
0019a6 940e 2249 	CALL SUBOPT_0xA3
0019a8 f411      	BRNE _0x355
0019a9 940e 224f 	CALL SUBOPT_0xA4
                 _0x355:
0019ab ddf8      	RCALL _STATE_3
0019ac c041      	RJMP _0x331
                 _0x354:
0019ad 31e0      	CPI  R30,LOW(0x10)
0019ae e0a0      	LDI  R26,HIGH(0x10)
0019af 07fa      	CPC  R31,R26
0019b0 f439      	BRNE _0x356
0019b1 940e 2249 	CALL SUBOPT_0xA3
0019b3 f411      	BRNE _0x357
0019b4 940e 224f 	CALL SUBOPT_0xA4
                 _0x357:
0019b6 ddf1      	RCALL _STATE_4
0019b7 c036      	RJMP _0x331
                 _0x356:
0019b8 31e1      	CPI  R30,LOW(0x11)
0019b9 e0a0      	LDI  R26,HIGH(0x11)
0019ba 07fa      	CPC  R31,R26
0019bb f439      	BRNE _0x358
0019bc 940e 2249 	CALL SUBOPT_0xA3
0019be f411      	BRNE _0x359
0019bf 940e 224f 	CALL SUBOPT_0xA4
                 _0x359:
0019c1 de40      	RCALL _STATE_5
0019c2 c02b      	RJMP _0x331
                 _0x358:
0019c3 31e2      	CPI  R30,LOW(0x12)
0019c4 e0a0      	LDI  R26,HIGH(0x12)
0019c5 07fa      	CPC  R31,R26
0019c6 f439      	BRNE _0x35A
0019c7 940e 2249 	CALL SUBOPT_0xA3
0019c9 f411      	BRNE _0x35B
0019ca 940e 224f 	CALL SUBOPT_0xA4
                 _0x35B:
0019cc de86      	RCALL _STATE_6
0019cd c020      	RJMP _0x331
                 _0x35A:
0019ce 31e3      	CPI  R30,LOW(0x13)
0019cf e0a0      	LDI  R26,HIGH(0x13)
0019d0 07fa      	CPC  R31,R26
0019d1 f439      	BRNE _0x35C
0019d2 940e 2249 	CALL SUBOPT_0xA3
0019d4 f411      	BRNE _0x35D
0019d5 940e 224f 	CALL SUBOPT_0xA4
                 _0x35D:
0019d7 de7f      	RCALL _STATE_7
0019d8 c015      	RJMP _0x331
                 _0x35C:
0019d9 31e4      	CPI  R30,LOW(0x14)
0019da e0a0      	LDI  R26,HIGH(0x14)
0019db 07fa      	CPC  R31,R26
0019dc f439      	BRNE _0x360
0019dd 940e 2249 	CALL SUBOPT_0xA3
0019df f411      	BRNE _0x35F
0019e0 940e 224f 	CALL SUBOPT_0xA4
                 _0x35F:
0019e2 dee3      	RCALL _STATE_8
0019e3 c00a      	RJMP _0x331
                 _0x360:
0019e4 940e 1d1c 	CALL _lcd_clear
0019e6 91e0 07d3 	LDS  R30,_adc_data
0019e8 91f0 07d4 	LDS  R31,_adc_data+1
0019ea 93fa      	ST   -Y,R31
0019eb 93ea      	ST   -Y,R30
0019ec 940e 2207 	CALL SUBOPT_0x9C
                 _0x331:
0019ee e3a2      	LDI  R26,LOW(50)
0019ef e0b0      	LDI  R27,0
                 _0x20E0003:
0019f0 940e 22b0 	CALL _delay_ms
0019f2 9508      	RET
                 ; .FEND
                 ;#include "modules/esp.h"
                 _slave_rx_handler:
                 ; .FSTART _slave_rx_handler
0019f3 93aa      	ST   -Y,R26
                 ;	rx_complete -> Y+0
0019f4 91e0 06e4 	LDS  R30,_twi_result
0019f6 30e0      	CPI  R30,0
0019f7 f419      	BRNE _0x361
0019f8 9468      	SET
0019f9 f821      	BLD  R2,1
0019fa c005      	RJMP _0x362
                 _0x361:
0019fb 94e8      	CLT
0019fc f821      	BLD  R2,1
0019fd e0e0      	LDI  R30,LOW(0)
0019fe 940c 1dbd 	JMP  _0x20E0001
                 _0x362:
001a00 81e8      	LD   R30,Y
001a01 30e0      	CPI  R30,0
001a02 f019      	BREQ _0x363
001a03 e0e0      	LDI  R30,LOW(0)
001a04 940c 1dbd 	JMP  _0x20E0001
                 _0x363:
001a06 91a0 06e3 	LDS  R26,_twi_rx_index
001a08 e1e2      	LDI  R30,LOW(18)
001a09 940e 23df 	CALL __LTB12U
001a0b 940c 1dbd 	JMP  _0x20E0001
                 ; .FEND
                 _slave_tx_handler:
                 ; .FSTART _slave_tx_handler
001a0d 93aa      	ST   -Y,R26
                 ;	tx_complete -> Y+0
001a0e 81e8      	LD   R30,Y
001a0f 30e0      	CPI  R30,0
001a10 f009      	BREQ PC+2
001a11 c04b      	RJMP _0x364
001a12 91e0 0727 	LDS  R30,_linesensorvaluetemp
001a14 93e0 0765 	STS  _tx_buffer,R30
001a16 91e0 0729 	LDS  R30,_distanzsensorvaluetemp
                +
001a18 93e0 0766+STS _tx_buffer + ( 1 ) , R30
                 	__PUTB1MN _tx_buffer,1
001a1a 940e 1ed4 	CALL SUBOPT_0x23
                +
001a1c 93e0 0767+STS _tx_buffer + ( 2 ) , R30
001a1e 93f0 0768+STS _tx_buffer + ( 2 ) + 1 , R31
                 	__PUTW1MN _tx_buffer,2
001a20 940e 1ecf 	CALL SUBOPT_0x22
                +
001a22 93e0 0769+STS _tx_buffer + ( 4 ) , R30
001a24 93f0 076a+STS _tx_buffer + ( 4 ) + 1 , R31
                 	__PUTW1MN _tx_buffer,4
001a26 91e0 07e2 	LDS  R30,_wheelEncoderCounter_left
001a28 91f0 07e3 	LDS  R31,_wheelEncoderCounter_left+1
                +
001a2a 93e0 076b+STS _tx_buffer + ( 6 ) , R30
001a2c 93f0 076c+STS _tx_buffer + ( 6 ) + 1 , R31
                 	__PUTW1MN _tx_buffer,6
001a2e 91e0 07e6 	LDS  R30,_wheelEncoderCounter_right
001a30 91f0 07e7 	LDS  R31,_wheelEncoderCounter_right+1
                +
001a32 93e0 076d+STS _tx_buffer + ( 8 ) , R30
001a34 93f0 076e+STS _tx_buffer + ( 8 ) + 1 , R31
                 	__PUTW1MN _tx_buffer,8
001a36 91e0 06fe 	LDS  R30,_wiicamobject1
001a38 91f0 06ff 	LDS  R31,_wiicamobject1+1
                +
001a3a 93e0 076f+STS _tx_buffer + ( 10 ) , R30
001a3c 93f0 0770+STS _tx_buffer + ( 10 ) + 1 , R31
                 	__PUTW1MN _tx_buffer,10
001a3e 91e0 0700 	LDS  R30,_wiicamobject2
001a40 91f0 0701 	LDS  R31,_wiicamobject2+1
                +
001a42 93e0 0771+STS _tx_buffer + ( 12 ) , R30
001a44 93f0 0772+STS _tx_buffer + ( 12 ) + 1 , R31
                 	__PUTW1MN _tx_buffer,12
001a46 91e0 073e 	LDS  R30,_ucData
                +
001a48 93e0 0773+STS _tx_buffer + ( 14 ) , R30
                 	__PUTB1MN _tx_buffer,14
001a4a 91e0 06f6 	LDS  R30,_servo_value_cur
001a4c 5aea      	SUBI R30,LOW(170)
                +
001a4d 93e0 0774+STS _tx_buffer + ( 15 ) , R30
                 	__PUTB1MN _tx_buffer,15
001a4f 940e 1f2a 	CALL SUBOPT_0x2E
                +
001a51 e7a5     +LDI R26 , LOW ( _tx_buffer + ( 16 ) )
001a52 e0b7     +LDI R27 , HIGH ( _tx_buffer + ( 16 ) )
                 	__POINTW2MN _tx_buffer,16
001a53 940e 22e7 	CALL __CFD1U
001a55 93ec      	ST   X,R30
001a56 91e0 0751 	LDS  R30,_iTemp
                +
001a58 93e0 0776+STS _tx_buffer + ( 17 ) , R30
                 	__PUTB1MN _tx_buffer,17
001a5a e1e2      	LDI  R30,LOW(18)
001a5b 940c 1dbd 	JMP  _0x20E0001
                 _0x364:
001a5d fe21      	SBRS R2,1
001a5e c007      	RJMP _0x365
                +
001a5f 91e0 0764+LDS R30 , _rx_buffer + ( 17 )
                 	__GETB1MN _rx_buffer,17
001a61 e0f0      	LDI  R31,0
001a62 93e0 0713 	STS  _currstate,R30
001a64 93f0 0714 	STS  _currstate+1,R31
                 _0x365:
001a66 e0e0      	LDI  R30,LOW(0)
001a67 940c 1dbd 	JMP  _0x20E0001
                 ; .FEND
                 _twiinit:
                 ; .FSTART _twiinit
001a69 e0e0      	LDI  R30,LOW(0)
001a6a 93ea      	ST   -Y,R30
001a6b e5e0      	LDI  R30,LOW(80)
001a6c 93ea      	ST   -Y,R30
001a6d e5e3      	LDI  R30,LOW(_rx_buffer)
001a6e e0f7      	LDI  R31,HIGH(_rx_buffer)
001a6f 93fa      	ST   -Y,R31
001a70 93ea      	ST   -Y,R30
001a71 e1e2      	LDI  R30,LOW(18)
001a72 93ea      	ST   -Y,R30
001a73 e6e5      	LDI  R30,LOW(_tx_buffer)
001a74 e0f7      	LDI  R31,HIGH(_tx_buffer)
001a75 93fa      	ST   -Y,R31
001a76 93ea      	ST   -Y,R30
001a77 efe3      	LDI  R30,LOW(_slave_rx_handler)
001a78 e1f9      	LDI  R31,HIGH(_slave_rx_handler)
001a79 93fa      	ST   -Y,R31
001a7a 93ea      	ST   -Y,R30
001a7b e0ad      	LDI  R26,LOW(_slave_tx_handler)
001a7c e1ba      	LDI  R27,HIGH(_slave_tx_handler)
001a7d 940e 1b10 	CALL _twi_slave_init
001a7f 9508      	RET
                 ; .FEND
                 ;
                 ;
                 ;
                 ;
                 ;
                 ;
                 ;
                 ;
                 ;
                 ;void main(void)
                 ; 0000 0053 {
                 _main:
                 ; .FSTART _main
                 ; 0000 0054 // Ports initialisieren
                 ; 0000 0055 port_init();
001a80 940e 02ed 	CALL _port_init
                 ; 0000 0056 //Other inits
                 ; 0000 0057 i2c_init();
001a82 940e 225f 	CALL _i2c_init
                 ; 0000 0058 wii_cam_init();
001a84 940e 063a 	CALL _wii_cam_init
                 ; 0000 0059 twiinit();
001a86 dfe2      	RCALL _twiinit
                 ; 0000 005A 
                 ; 0000 005B 
                 ; 0000 005C 
                 ; 0000 005D while (1)
                 _0x366:
                 ; 0000 005E       {
                 ; 0000 005F if(LINE_DETECTOR_LEFT_ADC>500){LINE_DETECTOR_LEFT=1;}else{LINE_DETECTOR_LEFT=0;};
001a87 91a0 07d3 	LDS  R26,_adc_data
001a89 91b0 07d4 	LDS  R27,_adc_data+1
001a8b 3fa5      	CPI  R26,LOW(0x1F5)
001a8c e0e1      	LDI  R30,HIGH(0x1F5)
001a8d 07be      	CPC  R27,R30
001a8e f038      	BRLO _0x369
001a8f e0e1      	LDI  R30,LOW(1)
001a90 e0f0      	LDI  R31,HIGH(1)
001a91 93e0 07cb 	STS  _LINE_DETECTOR_LEFT,R30
001a93 93f0 07cc 	STS  _LINE_DETECTOR_LEFT+1,R31
001a95 c005      	RJMP _0x36A
                 _0x369:
001a96 e0e0      	LDI  R30,LOW(0)
001a97 93e0 07cb 	STS  _LINE_DETECTOR_LEFT,R30
001a99 93e0 07cc 	STS  _LINE_DETECTOR_LEFT+1,R30
                 _0x36A:
                 ; 0000 0060 if(LINE_DETECTOR_MID_LEFT_ADC>500){LINE_DETECTOR_MID_LEFT=1;}else{LINE_DETECTOR_MID_LEFT=0;};
                +
001a9b 91a0 07d7+LDS R26 , _adc_data + ( 4 )
001a9d 91b0 07d8+LDS R27 , _adc_data + ( 4 ) + 1
                 	__GETW2MN _adc_data,4
001a9f 3fa5      	CPI  R26,LOW(0x1F5)
001aa0 e0e1      	LDI  R30,HIGH(0x1F5)
001aa1 07be      	CPC  R27,R30
001aa2 f038      	BRLO _0x36B
001aa3 e0e1      	LDI  R30,LOW(1)
001aa4 e0f0      	LDI  R31,HIGH(1)
001aa5 93e0 07cf 	STS  _LINE_DETECTOR_MID_LEFT,R30
001aa7 93f0 07d0 	STS  _LINE_DETECTOR_MID_LEFT+1,R31
001aa9 c005      	RJMP _0x36C
                 _0x36B:
001aaa e0e0      	LDI  R30,LOW(0)
001aab 93e0 07cf 	STS  _LINE_DETECTOR_MID_LEFT,R30
001aad 93e0 07d0 	STS  _LINE_DETECTOR_MID_LEFT+1,R30
                 _0x36C:
                 ; 0000 0061 if(LINE_DETECTOR_MID_RIGHT_ADC>500){LINE_DETECTOR_MID_RIGHT=1;}else{LINE_DETECTOR_MID_RIGHT=0;};
                +
001aaf 91a0 07db+LDS R26 , _adc_data + ( 8 )
001ab1 91b0 07dc+LDS R27 , _adc_data + ( 8 ) + 1
                 	__GETW2MN _adc_data,8
001ab3 3fa5      	CPI  R26,LOW(0x1F5)
001ab4 e0e1      	LDI  R30,HIGH(0x1F5)
001ab5 07be      	CPC  R27,R30
001ab6 f038      	BRLO _0x36D
001ab7 e0e1      	LDI  R30,LOW(1)
001ab8 e0f0      	LDI  R31,HIGH(1)
001ab9 93e0 07d1 	STS  _LINE_DETECTOR_MID_RIGHT,R30
001abb 93f0 07d2 	STS  _LINE_DETECTOR_MID_RIGHT+1,R31
001abd c005      	RJMP _0x36E
                 _0x36D:
001abe e0e0      	LDI  R30,LOW(0)
001abf 93e0 07d1 	STS  _LINE_DETECTOR_MID_RIGHT,R30
001ac1 93e0 07d2 	STS  _LINE_DETECTOR_MID_RIGHT+1,R30
                 _0x36E:
                 ; 0000 0062 if(LINE_DETECTOR_RIGHT_ADC>500){LINE_DETECTOR_RIGHT=1;}else{LINE_DETECTOR_RIGHT=0;};
                +
001ac3 91a0 07df+LDS R26 , _adc_data + ( 12 )
001ac5 91b0 07e0+LDS R27 , _adc_data + ( 12 ) + 1
                 	__GETW2MN _adc_data,12
001ac7 3fa5      	CPI  R26,LOW(0x1F5)
001ac8 e0e1      	LDI  R30,HIGH(0x1F5)
001ac9 07be      	CPC  R27,R30
001aca f038      	BRLO _0x36F
001acb e0e1      	LDI  R30,LOW(1)
001acc e0f0      	LDI  R31,HIGH(1)
001acd 93e0 07cd 	STS  _LINE_DETECTOR_RIGHT,R30
001acf 93f0 07ce 	STS  _LINE_DETECTOR_RIGHT+1,R31
001ad1 c005      	RJMP _0x370
                 _0x36F:
001ad2 e0e0      	LDI  R30,LOW(0)
001ad3 93e0 07cd 	STS  _LINE_DETECTOR_RIGHT,R30
001ad5 93e0 07ce 	STS  _LINE_DETECTOR_RIGHT+1,R30
                 _0x370:
                 ; 0000 0063 
                 ; 0000 0064 
                 ; 0000 0065       fnServo();
001ad7 940e 0565 	CALL _fnServo
                 ; 0000 0066       STATE_MACHINE();      //DEFAULT_STATE_MACHINE
001ad9 ddf3      	RCALL _STATE_MACHINE
                 ; 0000 0067       esp_states();         //ESP_STATE_MACHINE
001ada 940e 058c 	CALL _esp_states
                 ; 0000 0068       esp_mainfunctions();  //ESP_MAIN_FUNCTIONS
001adc 940e 059f 	CALL _esp_mainfunctions
                 ; 0000 0069       ondata();             //IR_DATA_FUNCTION
001ade 940e 04b0 	CALL _ondata
                 ; 0000 006A 
                 ; 0000 006B    }
001ae0 cfa6      	RJMP _0x366
                 ; 0000 006C }
                 _0x371:
001ae1 cfff      	RJMP _0x371
                 ; .FEND
                 
                 	.CSEG
                 _itoa:
                 ; .FSTART _itoa
001ae2 93ba      	ST   -Y,R27
001ae3 93aa      	ST   -Y,R26
001ae4 91a9          ld   r26,y+
001ae5 91b9          ld   r27,y+
001ae6 91e9          ld   r30,y+
001ae7 91f9          ld   r31,y+
001ae8 9630          adiw r30,0
001ae9 f42a          brpl __itoa0
001aea 95e0          com  r30
001aeb 95f0          com  r31
001aec 9631          adiw r30,1
001aed e26d          ldi  r22,'-'
001aee 936d          st   x+,r22
                 __itoa0:
001aef 94e8          clt
001af0 e180          ldi  r24,low(10000)
001af1 e297          ldi  r25,high(10000)
001af2 d00d          rcall __itoa1
001af3 ee88          ldi  r24,low(1000)
001af4 e093          ldi  r25,high(1000)
001af5 d00a          rcall __itoa1
001af6 e684          ldi  r24,100
001af7 2799          clr  r25
001af8 d007          rcall __itoa1
001af9 e08a          ldi  r24,10
001afa d005          rcall __itoa1
001afb 2f6e          mov  r22,r30
001afc d010          rcall __itoa5
001afd 2766          clr  r22
001afe 936c          st   x,r22
001aff 9508          ret
                 
                 __itoa1:
001b00 2766          clr	 r22
                 __itoa2:
001b01 17e8          cp   r30,r24
001b02 07f9          cpc  r31,r25
001b03 f020          brlo __itoa3
001b04 9563          inc  r22
001b05 1be8          sub  r30,r24
001b06 0bf9          sbc  r31,r25
001b07 f7c9          brne __itoa2
                 __itoa3:
001b08 2366          tst  r22
001b09 f411          brne __itoa4
001b0a f016          brts __itoa5
001b0b 9508          ret
                 __itoa4:
001b0c 9468          set
                 __itoa5:
001b0d 5d60          subi r22,-0x30
001b0e 936d          st   x+,r22
001b0f 9508          ret
                 ; .FEND
                 
                 	.DSEG
                 
                 	.CSEG
                 
                 	.CSEG
                 	#ifndef __SLEEP_DEFINED__
                 	#endif
                 
                 	.CSEG
                 	#ifndef __SLEEP_DEFINED__
                 	#endif
                 
                 	.DSEG
                 
                 	.CSEG
                 _twi_slave_init:
                 ; .FSTART _twi_slave_init
001b10 93ba      	ST   -Y,R27
001b11 93aa      	ST   -Y,R26
001b12 9468      	SET
001b13 f824      	BLD  R2,4
001b14 e0e7      	LDI  R30,LOW(7)
001b15 93e0 06e4 	STS  _twi_result,R30
001b17 81ef      	LDD  R30,Y+7
001b18 85f8      	LDD  R31,Y+7+1
001b19 93e0 0806 	STS  _twi_rx_buffer_G103,R30
001b1b 93f0 0807 	STS  _twi_rx_buffer_G103+1,R31
001b1d 81ee      	LDD  R30,Y+6
001b1e 93e0 0809 	STS  _twi_rx_buffer_size_G103,R30
001b20 81ec      	LDD  R30,Y+4
001b21 81fd      	LDD  R31,Y+4+1
001b22 93e0 0803 	STS  _twi_tx_buffer_G103,R30
001b24 93f0 0804 	STS  _twi_tx_buffer_G103+1,R31
001b26 81ea      	LDD  R30,Y+2
001b27 81fb      	LDD  R31,Y+2+1
001b28 93e0 080a 	STS  _twi_slave_rx_handler_G103,R30
001b2a 93f0 080b 	STS  _twi_slave_rx_handler_G103+1,R31
001b2c 81e8      	LD   R30,Y
001b2d 81f9      	LDD  R31,Y+1
001b2e 93e0 080c 	STS  _twi_slave_tx_handler_G103,R30
001b30 93f0 080d 	STS  _twi_slave_tx_handler_G103+1,R31
001b32 9a91      	SBI  0x12,1
001b33 9a90      	SBI  0x12,0
001b34 85ea      	LDD  R30,Y+10
001b35 30e0      	CPI  R30,0
001b36 f011      	BREQ _0x2060012
001b37 e0e1      	LDI  R30,LOW(1)
001b38 c002      	RJMP _0x2060066
                 _0x2060012:
001b39 85e9      	LDD  R30,Y+9
001b3a 0fee      	LSL  R30
                 _0x2060066:
001b3b 93e0 0072 	STS  114,R30
001b3d 91e0 0074 	LDS  R30,116
001b3f 78e0      	ANDI R30,LOW(0x80)
001b40 64e5      	ORI  R30,LOW(0x45)
001b41 93e0 0074 	STS  116,R30
001b43 962b      	ADIW R28,11
001b44 9508      	RET
                 ; .FEND
                 _twi_int_handler:
                 ; .FSTART _twi_int_handler
001b45 920a      	ST   -Y,R0
001b46 921a      	ST   -Y,R1
001b47 92fa      	ST   -Y,R15
001b48 936a      	ST   -Y,R22
001b49 937a      	ST   -Y,R23
001b4a 938a      	ST   -Y,R24
001b4b 939a      	ST   -Y,R25
001b4c 93aa      	ST   -Y,R26
001b4d 93ba      	ST   -Y,R27
001b4e 93ea      	ST   -Y,R30
001b4f 93fa      	ST   -Y,R31
001b50 b7ef      	IN   R30,SREG
001b51 93ea      	ST   -Y,R30
001b52 940e 243e 	CALL __SAVELOCR6
001b54 9110 06e3 	LDS  R17,_twi_rx_index
001b56 9100 06e2 	LDS  R16,_twi_tx_index
001b58 9130 0805 	LDS  R19,_bytes_to_tx_G103
001b5a 9120 06e4 	LDS  R18,_twi_result
001b5c 2fe1      	MOV  R30,R17
001b5d 91a0 0806 	LDS  R26,_twi_rx_buffer_G103
001b5f 91b0 0807 	LDS  R27,_twi_rx_buffer_G103+1
001b61 e0f0      	LDI  R31,0
001b62 0fea      	ADD  R30,R26
001b63 1ffb      	ADC  R31,R27
001b64 01af      	MOVW R20,R30
001b65 91e0 0071 	LDS  R30,113
001b67 7fe8      	ANDI R30,LOW(0xF8)
001b68 30e8      	CPI  R30,LOW(0x8)
001b69 f411      	BRNE _0x2060017
001b6a e020      	LDI  R18,LOW(0)
001b6b c002      	RJMP _0x2060018
                 _0x2060017:
001b6c 31e0      	CPI  R30,LOW(0x10)
001b6d f419      	BRNE _0x2060019
                 _0x2060018:
001b6e 91e0 0802 	LDS  R30,_slave_address_G103
001b70 c010      	RJMP _0x2060067
                 _0x2060019:
001b71 31e8      	CPI  R30,LOW(0x18)
001b72 f011      	BREQ _0x206001D
001b73 32e8      	CPI  R30,LOW(0x28)
001b74 f549      	BRNE _0x206001E
                 _0x206001D:
001b75 1703      	CP   R16,R19
001b76 f498      	BRSH _0x206001F
001b77 2fe0      	MOV  R30,R16
001b78 5f0f      	SUBI R16,-1
001b79 91a0 0803 	LDS  R26,_twi_tx_buffer_G103
001b7b 91b0 0804 	LDS  R27,_twi_tx_buffer_G103+1
001b7d e0f0      	LDI  R31,0
001b7e 0fae      	ADD  R26,R30
001b7f 1fbf      	ADC  R27,R31
001b80 91ec      	LD   R30,X
                 _0x2060067:
001b81 93e0 0073 	STS  115,R30
001b83 91e0 0074 	LDS  R30,116
001b85 70ef      	ANDI R30,LOW(0xF)
001b86 68e0      	ORI  R30,0x80
001b87 93e0 0074 	STS  116,R30
001b89 c013      	RJMP _0x2060020
                 _0x206001F:
001b8a 91e0 0808 	LDS  R30,_bytes_to_rx_G103
001b8c 171e      	CP   R17,R30
001b8d f470      	BRSH _0x2060021
001b8e 91e0 0802 	LDS  R30,_slave_address_G103
001b90 60e1      	ORI  R30,1
001b91 93e0 0802 	STS  _slave_address_G103,R30
001b93 94e8      	CLT
001b94 f823      	BLD  R2,3
001b95 91e0 0074 	LDS  R30,116
001b97 70ef      	ANDI R30,LOW(0xF)
001b98 6ae0      	ORI  R30,LOW(0xA0)
001b99 93e0 0074 	STS  116,R30
001b9b c113      	RJMP _0x2060016
                 _0x2060021:
001b9c c038      	RJMP _0x2060022
                 _0x2060020:
001b9d c111      	RJMP _0x2060016
                 _0x206001E:
001b9e 35e0      	CPI  R30,LOW(0x50)
001b9f f431      	BRNE _0x2060023
001ba0 91e0 0073 	LDS  R30,115
001ba2 01da      	MOVW R26,R20
001ba3 93ec      	ST   X,R30
001ba4 5f1f      	SUBI R17,-LOW(1)
001ba5 c002      	RJMP _0x2060024
                 _0x2060023:
001ba6 34e0      	CPI  R30,LOW(0x40)
001ba7 f489      	BRNE _0x2060025
                 _0x2060024:
001ba8 91e0 0808 	LDS  R30,_bytes_to_rx_G103
001baa 50e1      	SUBI R30,LOW(1)
001bab 171e      	CP   R17,R30
001bac f028      	BRLO _0x2060026
001bad 91e0 0074 	LDS  R30,116
001baf 70ef      	ANDI R30,LOW(0xF)
001bb0 68e0      	ORI  R30,0x80
001bb1 c004      	RJMP _0x2060068
                 _0x2060026:
001bb2 91e0 0074 	LDS  R30,116
001bb4 70ef      	ANDI R30,LOW(0xF)
001bb5 6ce0      	ORI  R30,LOW(0xC0)
                 _0x2060068:
001bb6 93e0 0074 	STS  116,R30
001bb8 c0f6      	RJMP _0x2060016
                 _0x2060025:
001bb9 35e8      	CPI  R30,LOW(0x58)
001bba f431      	BRNE _0x2060028
001bbb 91e0 0073 	LDS  R30,115
001bbd 01da      	MOVW R26,R20
001bbe 93ec      	ST   X,R30
001bbf 5f1f      	SUBI R17,-LOW(1)
001bc0 c002      	RJMP _0x2060029
                 _0x2060028:
001bc1 32e0      	CPI  R30,LOW(0x20)
001bc2 f409      	BRNE _0x206002A
                 _0x2060029:
001bc3 c002      	RJMP _0x206002B
                 _0x206002A:
001bc4 33e0      	CPI  R30,LOW(0x30)
001bc5 f409      	BRNE _0x206002C
                 _0x206002B:
001bc6 c002      	RJMP _0x206002D
                 _0x206002C:
001bc7 34e8      	CPI  R30,LOW(0x48)
001bc8 f469      	BRNE _0x206002E
                 _0x206002D:
001bc9 3020      	CPI  R18,0
001bca f451      	BRNE _0x206002F
001bcb fe23      	SBRS R2,3
001bcc c003      	RJMP _0x2060030
001bcd 1703      	CP   R16,R19
001bce f028      	BRLO _0x2060032
001bcf c005      	RJMP _0x2060033
                 _0x2060030:
001bd0 91e0 0808 	LDS  R30,_bytes_to_rx_G103
001bd2 171e      	CP   R17,R30
001bd3 f408      	BRSH _0x2060034
                 _0x2060032:
001bd4 e024      	LDI  R18,LOW(4)
                 _0x2060034:
                 _0x2060033:
                 _0x206002F:
                 _0x2060022:
001bd5 c0d1      	RJMP _0x2060069
                 _0x206002E:
001bd6 33e8      	CPI  R30,LOW(0x38)
001bd7 f431      	BRNE _0x2060037
001bd8 e022      	LDI  R18,LOW(2)
001bd9 91e0 0074 	LDS  R30,116
001bdb 70ef      	ANDI R30,LOW(0xF)
001bdc 68e0      	ORI  R30,0x80
001bdd c0cd      	RJMP _0x206006A
                 _0x2060037:
001bde 36e8      	CPI  R30,LOW(0x68)
001bdf f011      	BREQ _0x206003A
001be0 37e8      	CPI  R30,LOW(0x78)
001be1 f411      	BRNE _0x206003B
                 _0x206003A:
001be2 e022      	LDI  R18,LOW(2)
001be3 c005      	RJMP _0x206003C
                 _0x206003B:
001be4 36e0      	CPI  R30,LOW(0x60)
001be5 f011      	BREQ _0x206003F
001be6 37e0      	CPI  R30,LOW(0x70)
001be7 f4a9      	BRNE _0x2060040
                 _0x206003F:
001be8 e020      	LDI  R18,LOW(0)
                 _0x206003C:
001be9 e010      	LDI  R17,LOW(0)
001bea 94e8      	CLT
001beb f823      	BLD  R2,3
001bec 91e0 0809 	LDS  R30,_twi_rx_buffer_size_G103
001bee 30e0      	CPI  R30,0
001bef f431      	BRNE _0x2060041
001bf0 e021      	LDI  R18,LOW(1)
001bf1 91e0 0074 	LDS  R30,116
001bf3 70ef      	ANDI R30,LOW(0xF)
001bf4 68e0      	ORI  R30,0x80
001bf5 c004      	RJMP _0x206006B
                 _0x2060041:
001bf6 91e0 0074 	LDS  R30,116
001bf8 70ef      	ANDI R30,LOW(0xF)
001bf9 6ce0      	ORI  R30,LOW(0xC0)
                 _0x206006B:
001bfa 93e0 0074 	STS  116,R30
001bfc c0b2      	RJMP _0x2060016
                 _0x2060040:
001bfd 38e0      	CPI  R30,LOW(0x80)
001bfe f011      	BREQ _0x2060044
001bff 39e0      	CPI  R30,LOW(0x90)
001c00 f541      	BRNE _0x2060045
                 _0x2060044:
001c01 fe23      	SBRS R2,3
001c02 c002      	RJMP _0x2060046
001c03 e021      	LDI  R18,LOW(1)
001c04 c0a2      	RJMP _0x2060047
                 _0x2060046:
001c05 91e0 0073 	LDS  R30,115
001c07 01da      	MOVW R26,R20
001c08 93ec      	ST   X,R30
001c09 5f1f      	SUBI R17,-LOW(1)
001c0a 91e0 0809 	LDS  R30,_twi_rx_buffer_size_G103
001c0c 171e      	CP   R17,R30
001c0d f4c0      	BRSH _0x2060048
001c0e 91e0 080a 	LDS  R30,_twi_slave_rx_handler_G103
001c10 91f0 080b 	LDS  R31,_twi_slave_rx_handler_G103+1
001c12 9730      	SBIW R30,0
001c13 f411      	BRNE _0x2060049
001c14 e026      	LDI  R18,LOW(6)
001c15 c091      	RJMP _0x2060047
                 _0x2060049:
001c16 e0a0      	LDI  R26,LOW(0)
                +
001c17 91e0 080a+LDS R30 , _twi_slave_rx_handler_G103 + ( 0 )
001c19 91f0 080b+LDS R31 , _twi_slave_rx_handler_G103 + ( 0 ) + 1
001c1b 9509     +ICALL
                 	__CALL1MN _twi_slave_rx_handler_G103,0
001c1c 30e0      	CPI  R30,0
001c1d f039      	BREQ _0x206004A
001c1e 91e0 0074 	LDS  R30,116
001c20 70ef      	ANDI R30,LOW(0xF)
001c21 6ce0      	ORI  R30,LOW(0xC0)
001c22 93e0 0074 	STS  116,R30
001c24 c08a      	RJMP _0x2060016
                 _0x206004A:
001c25 c002      	RJMP _0x206004B
                 _0x2060048:
001c26 9468      	SET
001c27 f823      	BLD  R2,3
                 _0x206004B:
001c28 c002      	RJMP _0x206004C
                 _0x2060045:
001c29 38e8      	CPI  R30,LOW(0x88)
001c2a f409      	BRNE _0x206004D
                 _0x206004C:
001c2b c002      	RJMP _0x206004E
                 _0x206004D:
001c2c 39e8      	CPI  R30,LOW(0x98)
001c2d f439      	BRNE _0x206004F
                 _0x206004E:
001c2e 91e0 0074 	LDS  R30,116
001c30 70ef      	ANDI R30,LOW(0xF)
001c31 68e0      	ORI  R30,0x80
001c32 93e0 0074 	STS  116,R30
001c34 c07a      	RJMP _0x2060016
                 _0x206004F:
001c35 3ae0      	CPI  R30,LOW(0xA0)
001c36 f4b9      	BRNE _0x2060050
001c37 91e0 0074 	LDS  R30,116
001c39 70ef      	ANDI R30,LOW(0xF)
001c3a 6ce0      	ORI  R30,LOW(0xC0)
001c3b 93e0 0074 	STS  116,R30
001c3d 9468      	SET
001c3e f824      	BLD  R2,4
001c3f 91e0 080a 	LDS  R30,_twi_slave_rx_handler_G103
001c41 91f0 080b 	LDS  R31,_twi_slave_rx_handler_G103+1
001c43 9730      	SBIW R30,0
001c44 f039      	BREQ _0x2060051
001c45 e0a1      	LDI  R26,LOW(1)
                +
001c46 91e0 080a+LDS R30 , _twi_slave_rx_handler_G103 + ( 0 )
001c48 91f0 080b+LDS R31 , _twi_slave_rx_handler_G103 + ( 0 ) + 1
001c4a 9509     +ICALL
                 	__CALL1MN _twi_slave_rx_handler_G103,0
001c4b c001      	RJMP _0x2060052
                 _0x2060051:
001c4c e026      	LDI  R18,LOW(6)
                 _0x2060052:
001c4d c061      	RJMP _0x2060016
                 _0x2060050:
001c4e 3be0      	CPI  R30,LOW(0xB0)
001c4f f411      	BRNE _0x2060053
001c50 e022      	LDI  R18,LOW(2)
001c51 c002      	RJMP _0x2060054
                 _0x2060053:
001c52 3ae8      	CPI  R30,LOW(0xA8)
001c53 f4b9      	BRNE _0x2060055
                 _0x2060054:
001c54 91e0 080c 	LDS  R30,_twi_slave_tx_handler_G103
001c56 91f0 080d 	LDS  R31,_twi_slave_tx_handler_G103+1
001c58 9730      	SBIW R30,0
001c59 f059      	BREQ _0x2060056
001c5a e0a0      	LDI  R26,LOW(0)
                +
001c5b 91e0 080c+LDS R30 , _twi_slave_tx_handler_G103 + ( 0 )
001c5d 91f0 080d+LDS R31 , _twi_slave_tx_handler_G103 + ( 0 ) + 1
001c5f 9509     +ICALL
                 	__CALL1MN _twi_slave_tx_handler_G103,0
001c60 2f3e      	MOV  R19,R30
001c61 30e0      	CPI  R30,0
001c62 f011      	BREQ _0x2060058
001c63 e020      	LDI  R18,LOW(0)
001c64 c002      	RJMP _0x2060059
                 _0x2060056:
                 _0x2060058:
001c65 e026      	LDI  R18,LOW(6)
001c66 c040      	RJMP _0x2060047
                 _0x2060059:
001c67 e000      	LDI  R16,LOW(0)
001c68 94e8      	CLT
001c69 f823      	BLD  R2,3
001c6a c002      	RJMP _0x206005A
                 _0x2060055:
001c6b 3be8      	CPI  R30,LOW(0xB8)
001c6c f501      	BRNE _0x206005B
                 _0x206005A:
001c6d fe23      	SBRS R2,3
001c6e c002      	RJMP _0x206005C
001c6f e021      	LDI  R18,LOW(1)
001c70 c036      	RJMP _0x2060047
                 _0x206005C:
001c71 2fe0      	MOV  R30,R16
001c72 5f0f      	SUBI R16,-1
001c73 91a0 0803 	LDS  R26,_twi_tx_buffer_G103
001c75 91b0 0804 	LDS  R27,_twi_tx_buffer_G103+1
001c77 e0f0      	LDI  R31,0
001c78 0fae      	ADD  R26,R30
001c79 1fbf      	ADC  R27,R31
001c7a 91ec      	LD   R30,X
001c7b 93e0 0073 	STS  115,R30
001c7d 1703      	CP   R16,R19
001c7e f428      	BRSH _0x206005D
001c7f 91e0 0074 	LDS  R30,116
001c81 70ef      	ANDI R30,LOW(0xF)
001c82 6ce0      	ORI  R30,LOW(0xC0)
001c83 c006      	RJMP _0x206006C
                 _0x206005D:
001c84 9468      	SET
001c85 f823      	BLD  R2,3
001c86 91e0 0074 	LDS  R30,116
001c88 70ef      	ANDI R30,LOW(0xF)
001c89 68e0      	ORI  R30,0x80
                 _0x206006C:
001c8a 93e0 0074 	STS  116,R30
001c8c c022      	RJMP _0x2060016
                 _0x206005B:
001c8d 3ce0      	CPI  R30,LOW(0xC0)
001c8e f011      	BREQ _0x2060060
001c8f 3ce8      	CPI  R30,LOW(0xC8)
001c90 f499      	BRNE _0x2060061
                 _0x2060060:
001c91 91e0 0074 	LDS  R30,116
001c93 70ef      	ANDI R30,LOW(0xF)
001c94 6ce0      	ORI  R30,LOW(0xC0)
001c95 93e0 0074 	STS  116,R30
001c97 91e0 080c 	LDS  R30,_twi_slave_tx_handler_G103
001c99 91f0 080d 	LDS  R31,_twi_slave_tx_handler_G103+1
001c9b 9730      	SBIW R30,0
001c9c f031      	BREQ _0x2060062
001c9d e0a1      	LDI  R26,LOW(1)
                +
001c9e 91e0 080c+LDS R30 , _twi_slave_tx_handler_G103 + ( 0 )
001ca0 91f0 080d+LDS R31 , _twi_slave_tx_handler_G103 + ( 0 ) + 1
001ca2 9509     +ICALL
                 	__CALL1MN _twi_slave_tx_handler_G103,0
                 _0x2060062:
001ca3 c009      	RJMP _0x2060035
                 _0x2060061:
001ca4 30e0      	CPI  R30,0
001ca5 f449      	BRNE _0x2060016
001ca6 e023      	LDI  R18,LOW(3)
                 _0x2060047:
                 _0x2060069:
001ca7 91e0 0074 	LDS  R30,116
001ca9 70ef      	ANDI R30,LOW(0xF)
001caa 6de0      	ORI  R30,LOW(0xD0)
                 _0x206006A:
001cab 93e0 0074 	STS  116,R30
                 _0x2060035:
001cad 9468      	SET
001cae f824      	BLD  R2,4
                 _0x2060016:
001caf 9310 06e3 	STS  _twi_rx_index,R17
001cb1 9300 06e2 	STS  _twi_tx_index,R16
001cb3 9320 06e4 	STS  _twi_result,R18
001cb5 9330 0805 	STS  _bytes_to_tx_G103,R19
001cb7 940e 2445 	CALL __LOADLOCR6
001cb9 9626      	ADIW R28,6
001cba 91e9      	LD   R30,Y+
001cbb bfef      	OUT  SREG,R30
001cbc 91f9      	LD   R31,Y+
001cbd 91e9      	LD   R30,Y+
001cbe 91b9      	LD   R27,Y+
001cbf 91a9      	LD   R26,Y+
001cc0 9199      	LD   R25,Y+
001cc1 9189      	LD   R24,Y+
001cc2 9179      	LD   R23,Y+
001cc3 9169      	LD   R22,Y+
001cc4 90f9      	LD   R15,Y+
001cc5 9019      	LD   R1,Y+
001cc6 9009      	LD   R0,Y+
001cc7 9518      	RETI
                 ; .FEND
                     .equ __lcd_direction=__lcd_port-1
                     .equ __lcd_pin=__lcd_port-2
                     .equ __lcd_rs=0
                     .equ __lcd_rd=1
                     .equ __lcd_enable=2
                     .equ __lcd_busy_flag=7
                 
                 	.DSEG
                 
                 	.CSEG
                 __lcd_delay_G104:
                 ; .FSTART __lcd_delay_G104
001cc8 e0ff          ldi   r31,15
                 __lcd_delay0:
001cc9 95fa          dec   r31
001cca f7f1          brne  __lcd_delay0
001ccb 9508      	RET
                 ; .FEND
                 __lcd_ready:
                 ; .FSTART __lcd_ready
001ccc b3a4          in    r26,__lcd_direction
001ccd 70af          andi  r26,0xf                 ;set as input
001cce bba4          out   __lcd_direction,r26
001ccf 9aa9          sbi   __lcd_port,__lcd_rd     ;RD=1
001cd0 98a8          cbi   __lcd_port,__lcd_rs     ;RS=0
                 __lcd_busy:
001cd1 dff6      	RCALL __lcd_delay_G104
001cd2 9aaa          sbi   __lcd_port,__lcd_enable ;EN=1
001cd3 dff4      	RCALL __lcd_delay_G104
001cd4 b3a3          in    r26,__lcd_pin
001cd5 98aa          cbi   __lcd_port,__lcd_enable ;EN=0
001cd6 dff1      	RCALL __lcd_delay_G104
001cd7 9aaa          sbi   __lcd_port,__lcd_enable ;EN=1
001cd8 dfef      	RCALL __lcd_delay_G104
001cd9 98aa          cbi   __lcd_port,__lcd_enable ;EN=0
001cda fda7          sbrc  r26,__lcd_busy_flag
001cdb cff5          rjmp  __lcd_busy
001cdc 9508      	RET
                 ; .FEND
                 __lcd_write_nibble_G104:
                 ; .FSTART __lcd_write_nibble_G104
001cdd 7fa0          andi  r26,0xf0
001cde 2bab          or    r26,r27
001cdf bba5          out   __lcd_port,r26          ;write
001ce0 9aaa          sbi   __lcd_port,__lcd_enable ;EN=1
001ce1 940e 1cc8 	CALL __lcd_delay_G104
001ce3 98aa          cbi   __lcd_port,__lcd_enable ;EN=0
001ce4 940e 1cc8 	CALL __lcd_delay_G104
001ce6 9508      	RET
                 ; .FEND
                 __lcd_write_data:
                 ; .FSTART __lcd_write_data
001ce7 93aa      	ST   -Y,R26
001ce8 98a9          cbi  __lcd_port,__lcd_rd 	  ;RD=0
001ce9 b3a4          in    r26,__lcd_direction
001cea 6fa7          ori   r26,0xf0 | (1<<__lcd_rs) | (1<<__lcd_rd) | (1<<__lcd_enable) ;set as output
001ceb bba4          out   __lcd_direction,r26
001cec b3b5          in    r27,__lcd_port
001ced 70bf          andi  r27,0xf
001cee 81a8          ld    r26,y
001cef dfed      	RCALL __lcd_write_nibble_G104
001cf0 81a8          ld    r26,y
001cf1 95a2          swap  r26
001cf2 dfea      	RCALL __lcd_write_nibble_G104
001cf3 9aa9          sbi   __lcd_port,__lcd_rd     ;RD=1
001cf4 940c 1dbd 	JMP  _0x20E0001
                 ; .FEND
                 __lcd_read_nibble_G104:
                 ; .FSTART __lcd_read_nibble_G104
001cf6 9aaa          sbi   __lcd_port,__lcd_enable ;EN=1
001cf7 940e 1cc8 	CALL __lcd_delay_G104
001cf9 b3e3          in    r30,__lcd_pin           ;read
001cfa 98aa          cbi   __lcd_port,__lcd_enable ;EN=0
001cfb 940e 1cc8 	CALL __lcd_delay_G104
001cfd 7fe0          andi  r30,0xf0
001cfe 9508      	RET
                 ; .FEND
                 _lcd_read_byte0_G104:
                 ; .FSTART _lcd_read_byte0_G104
001cff 940e 1cc8 	CALL __lcd_delay_G104
001d01 dff4      	RCALL __lcd_read_nibble_G104
001d02 2fae          mov   r26,r30
001d03 dff2      	RCALL __lcd_read_nibble_G104
001d04 98a9          cbi   __lcd_port,__lcd_rd     ;RD=0
001d05 95e2          swap  r30
001d06 2bea          or    r30,r26
001d07 9508      	RET
                 ; .FEND
                 _lcd_gotoxy:
                 ; .FSTART _lcd_gotoxy
001d08 93aa      	ST   -Y,R26
001d09 940e 1ccc 	CALL __lcd_ready
001d0b 81e8      	LD   R30,Y
001d0c e0f0      	LDI  R31,0
001d0d 5fe2      	SUBI R30,LOW(-__base_y_G104)
001d0e 4ff7      	SBCI R31,HIGH(-__base_y_G104)
001d0f 81e0      	LD   R30,Z
001d10 81a9      	LDD  R26,Y+1
001d11 0fae      	ADD  R26,R30
001d12 940e 1ce7 	CALL __lcd_write_data
001d14 81e9      	LDD  R30,Y+1
001d15 93e0 0812 	STS  __lcd_x,R30
001d17 81e8      	LD   R30,Y
001d18 93e0 0813 	STS  __lcd_y,R30
001d1a 9622      	ADIW R28,2
001d1b 9508      	RET
                 ; .FEND
                 _lcd_clear:
                 ; .FSTART _lcd_clear
001d1c 940e 1ccc 	CALL __lcd_ready
001d1e e0a2      	LDI  R26,LOW(2)
001d1f 940e 1ce7 	CALL __lcd_write_data
001d21 940e 1ccc 	CALL __lcd_ready
001d23 e0ac      	LDI  R26,LOW(12)
001d24 940e 1ce7 	CALL __lcd_write_data
001d26 940e 1ccc 	CALL __lcd_ready
001d28 e0a1      	LDI  R26,LOW(1)
001d29 940e 1ce7 	CALL __lcd_write_data
001d2b e0e0      	LDI  R30,LOW(0)
001d2c 93e0 0813 	STS  __lcd_y,R30
001d2e 93e0 0812 	STS  __lcd_x,R30
001d30 9508      	RET
                 ; .FEND
                 _lcd_putchar:
                 ; .FSTART _lcd_putchar
001d31 93aa      	ST   -Y,R26
001d32 93ef          push r30
001d33 93ff          push r31
001d34 81a8          ld   r26,y
001d35 9468          set
001d36 30aa          cpi  r26,10
001d37 f039          breq __lcd_putchar1
001d38 94e8          clt
001d39 91e0 0814 	LDS  R30,__lcd_maxx
001d3b 91a0 0812 	LDS  R26,__lcd_x
001d3d 17ae      	CP   R26,R30
001d3e f058      	BRLO _0x2080004
                 	__lcd_putchar1:
001d3f 91e0 0813 	LDS  R30,__lcd_y
001d41 5fef      	SUBI R30,-LOW(1)
001d42 93e0 0813 	STS  __lcd_y,R30
001d44 e0e0      	LDI  R30,LOW(0)
001d45 93ea      	ST   -Y,R30
001d46 91a0 0813 	LDS  R26,__lcd_y
001d48 dfbf      	RCALL _lcd_gotoxy
001d49 f056      	brts __lcd_putchar0
                 _0x2080004:
001d4a 91e0 0812 	LDS  R30,__lcd_x
001d4c 5fef      	SUBI R30,-LOW(1)
001d4d 93e0 0812 	STS  __lcd_x,R30
001d4f df7c          rcall __lcd_ready
001d50 9aa8          sbi  __lcd_port,__lcd_rs ;RS=1
001d51 81a8      	LD   R26,Y
001d52 940e 1ce7 	CALL __lcd_write_data
                 __lcd_putchar0:
001d54 91ff          pop  r31
001d55 91ef          pop  r30
001d56 940c 1dbd 	JMP  _0x20E0001
                 ; .FEND
                 _lcd_puts:
                 ; .FSTART _lcd_puts
001d58 93ba      	ST   -Y,R27
001d59 93aa      	ST   -Y,R26
001d5a 931a      	ST   -Y,R17
                 _0x2080005:
001d5b 81a9      	LDD  R26,Y+1
001d5c 81ba      	LDD  R27,Y+1+1
001d5d 91ed      	LD   R30,X+
001d5e 83a9      	STD  Y+1,R26
001d5f 83ba      	STD  Y+1+1,R27
001d60 2f1e      	MOV  R17,R30
001d61 30e0      	CPI  R30,0
001d62 f019      	BREQ _0x2080007
001d63 2fa1      	MOV  R26,R17
001d64 dfcc      	RCALL _lcd_putchar
001d65 cff5      	RJMP _0x2080005
                 _0x2080007:
001d66 c010      	RJMP _0x20E0002
                 ; .FEND
                 _lcd_putsf:
                 ; .FSTART _lcd_putsf
001d67 93ba      	ST   -Y,R27
001d68 93aa      	ST   -Y,R26
001d69 931a      	ST   -Y,R17
                 _0x2080008:
001d6a 81e9      	LDD  R30,Y+1
001d6b 81fa      	LDD  R31,Y+1+1
001d6c 9631      	ADIW R30,1
001d6d 83e9      	STD  Y+1,R30
001d6e 83fa      	STD  Y+1+1,R31
001d6f 9731      	SBIW R30,1
001d70 91e4      	LPM  R30,Z
001d71 2f1e      	MOV  R17,R30
001d72 30e0      	CPI  R30,0
001d73 f019      	BREQ _0x208000A
001d74 2fa1      	MOV  R26,R17
001d75 dfbb      	RCALL _lcd_putchar
001d76 cff3      	RJMP _0x2080008
                 _0x208000A:
                 _0x20E0002:
001d77 8118      	LDD  R17,Y+0
001d78 9623      	ADIW R28,3
001d79 9508      	RET
                 ; .FEND
                 __long_delay_G104:
                 ; .FSTART __long_delay_G104
001d7a 27aa          clr   r26
001d7b 27bb          clr   r27
                 __long_delay0:
001d7c 9711          sbiw  r26,1         ;2 cycles
001d7d f7f1          brne  __long_delay0 ;2 cycles
001d7e 9508      	RET
                 ; .FEND
                 __lcd_init_write_G104:
                 ; .FSTART __lcd_init_write_G104
001d7f 93aa      	ST   -Y,R26
001d80 98a9          cbi  __lcd_port,__lcd_rd 	  ;RD=0
001d81 b3a4          in    r26,__lcd_direction
001d82 6fa7          ori   r26,0xf7                ;set as output
001d83 bba4          out   __lcd_direction,r26
001d84 b3b5          in    r27,__lcd_port
001d85 70bf          andi  r27,0xf
001d86 81a8          ld    r26,y
001d87 940e 1cdd 	CALL __lcd_write_nibble_G104
001d89 9aa9          sbi   __lcd_port,__lcd_rd     ;RD=1
001d8a c032      	RJMP _0x20E0001
                 ; .FEND
                 _lcd_init:
                 ; .FSTART _lcd_init
001d8b 93aa      	ST   -Y,R26
001d8c 98aa          cbi   __lcd_port,__lcd_enable ;EN=0
001d8d 98a8          cbi   __lcd_port,__lcd_rs     ;RS=0
001d8e 81e8      	LD   R30,Y
001d8f 93e0 0814 	STS  __lcd_maxx,R30
001d91 58e0      	SUBI R30,-LOW(128)
                +
001d92 93e0 0810+STS __base_y_G104 + ( 2 ) , R30
                 	__PUTB1MN __base_y_G104,2
001d94 81e8      	LD   R30,Y
001d95 54e0      	SUBI R30,-LOW(192)
                +
001d96 93e0 0811+STS __base_y_G104 + ( 3 ) , R30
                 	__PUTB1MN __base_y_G104,3
001d98 940e 2256 	CALL SUBOPT_0xA5
001d9a 940e 2256 	CALL SUBOPT_0xA5
001d9c 940e 2256 	CALL SUBOPT_0xA5
001d9e dfdb      	RCALL __long_delay_G104
001d9f e2a0      	LDI  R26,LOW(32)
001da0 dfde      	RCALL __lcd_init_write_G104
001da1 dfd8      	RCALL __long_delay_G104
001da2 e2a8      	LDI  R26,LOW(40)
001da3 940e 225b 	CALL SUBOPT_0xA6
001da5 e0a4      	LDI  R26,LOW(4)
001da6 940e 225b 	CALL SUBOPT_0xA6
001da8 e8a5      	LDI  R26,LOW(133)
001da9 940e 225b 	CALL SUBOPT_0xA6
001dab b3a4          in    r26,__lcd_direction
001dac 70af          andi  r26,0xf                 ;set as input
001dad bba4          out   __lcd_direction,r26
001dae 9aa9          sbi   __lcd_port,__lcd_rd     ;RD=1
001daf 940e 1cff 	CALL _lcd_read_byte0_G104
001db1 30e5      	CPI  R30,LOW(0x5)
001db2 f011      	BREQ _0x208000B
001db3 e0e0      	LDI  R30,LOW(0)
001db4 c008      	RJMP _0x20E0001
                 _0x208000B:
001db5 940e 1ccc 	CALL __lcd_ready
001db7 e0a6      	LDI  R26,LOW(6)
001db8 940e 1ce7 	CALL __lcd_write_data
001dba 940e 1d1c 	CALL _lcd_clear
001dbc e0e1      	LDI  R30,LOW(1)
                 _0x20E0001:
001dbd 9621      	ADIW R28,1
001dbe 9508      	RET
                 ; .FEND
                 
                 	.CSEG
                 
                 	.CSEG
                 
                 	.DSEG
                 _twi_tx_index:
0006e2           	.BYTE 0x1
                 _twi_rx_index:
0006e3           	.BYTE 0x1
                 _twi_result:
0006e4           	.BYTE 0x1
                 _strTemp:
0006e5           	.BYTE 0x11
                 _servo_value_cur:
0006f6           	.BYTE 0x2
                 _servo_value_copy:
0006f8           	.BYTE 0x2
                 _state_info:
0006fa           	.BYTE 0x2
                 _engine_dir:
0006fc           	.BYTE 0x2
                 _wiicamobject1:
0006fe           	.BYTE 0x2
                 _wiicamobject2:
000700           	.BYTE 0x2
                 _str:
000702           	.BYTE 0x11
                 _currstate:
000713           	.BYTE 0x2
                 _state:
000715           	.BYTE 0x2
                 _line_left:
000717           	.BYTE 0x2
                 _line_mleft:
000719           	.BYTE 0x2
                 _line_mright:
00071b           	.BYTE 0x2
                 _line_right:
00071d           	.BYTE 0x2
                 _dist_left:
00071f           	.BYTE 0x2
                 _dist_fleft:
000721           	.BYTE 0x2
                 _dist_fright:
000723           	.BYTE 0x2
                 _dist_right:
000725           	.BYTE 0x2
                 _linesensorvaluetemp:
000727           	.BYTE 0x2
                 _distanzsensorvaluetemp:
000729           	.BYTE 0x2
                 _ipwmcounter:
00072b           	.BYTE 0x2
                 _ipwmcompareleft:
00072d           	.BYTE 0x2
                 _ipwmcompareright:
00072f           	.BYTE 0x2
                 _tmr_wiipwm:
000731           	.BYTE 0x2
                 _Wiipwmleft:
000733           	.BYTE 0x2
                 _Wiipwmright:
000735           	.BYTE 0x2
                 _rc5_time:
000737           	.BYTE 0x1
                 _rc5_data:
000738           	.BYTE 0x2
                 _tmp:
00073a           	.BYTE 0x2
                 _ucToggle:
00073c           	.BYTE 0x1
                 _ucAdress:
00073d           	.BYTE 0x1
                 _ucData:
00073e           	.BYTE 0x1
                 _s:
00073f           	.BYTE 0x11
                 _i:
000750           	.BYTE 0x1
                 _iTemp:
000751           	.BYTE 0x2
                 _rx_buffer:
000753           	.BYTE 0x12
                 _tx_buffer:
000765           	.BYTE 0x12
                 _strULTRA:
000777           	.BYTE 0x11
                 _iRisingEdge:
000788           	.BYTE 0x2
                 _iFallingEdge:
00078a           	.BYTE 0x2
                 _iTime:
00078c           	.BYTE 0x2
                 _icr3:
00078e           	.BYTE 0x2
                 _data:
000790           	.BYTE 0x20
                 _Wert:
0007b0           	.BYTE 0x5
                 _x:
0007b5           	.BYTE 0x8
                 _y:
0007bd           	.BYTE 0x8
                 _sWIICAM:
0007c5           	.BYTE 0x4
                 _temp:
0007c9           	.BYTE 0x2
                 _LINE_DETECTOR_LEFT:
0007cb           	.BYTE 0x2
                 _LINE_DETECTOR_RIGHT:
0007cd           	.BYTE 0x2
                 _LINE_DETECTOR_MID_LEFT:
0007cf           	.BYTE 0x2
                 _LINE_DETECTOR_MID_RIGHT:
0007d1           	.BYTE 0x2
                 _adc_data:
0007d3           	.BYTE 0xE
                 _input_index_S0000000000:
0007e1           	.BYTE 0x1
                 _wheelEncoderCounter_left:
0007e2           	.BYTE 0x4
                 _wheelEncoderCounter_right:
0007e6           	.BYTE 0x4
                 _newvalL:
0007ea           	.BYTE 0x4
                 _newvalR:
0007ee           	.BYTE 0x4
                 _tmr_line:
0007f2           	.BYTE 0x2
                 _val_L_linesearch:
0007f4           	.BYTE 0x2
                 _detector_value:
0007f6           	.BYTE 0x2
                 _detector_value_line:
0007f8           	.BYTE 0x2
                 _wheelEncoderCounter_right_comp:
0007fa           	.BYTE 0x2
                 _min_light:
0007fc           	.BYTE 0x2
                 __seed_G100:
0007fe           	.BYTE 0x4
                 _slave_address_G103:
000802           	.BYTE 0x1
                 _twi_tx_buffer_G103:
000803           	.BYTE 0x2
                 _bytes_to_tx_G103:
000805           	.BYTE 0x1
                 _twi_rx_buffer_G103:
000806           	.BYTE 0x2
                 _bytes_to_rx_G103:
000808           	.BYTE 0x1
                 _twi_rx_buffer_size_G103:
000809           	.BYTE 0x1
                 _twi_slave_rx_handler_G103:
00080a           	.BYTE 0x2
                 _twi_slave_tx_handler_G103:
00080c           	.BYTE 0x2
                 __base_y_G104:
00080e           	.BYTE 0x4
                 __lcd_x:
000812           	.BYTE 0x1
                 __lcd_y:
000813           	.BYTE 0x1
                 __lcd_maxx:
000814           	.BYTE 0x1
                 
                 	.CSEG
                 ;OPTIMIZER ADDED SUBROUTINE, CALLED 2 TIMES, CODE SIZE REDUCTION:6 WORDS
                 SUBOPT_0x0:
001dbf 920a      	ST   -Y,R0
001dc0 936a      	ST   -Y,R22
001dc1 937a      	ST   -Y,R23
001dc2 938a      	ST   -Y,R24
001dc3 939a      	ST   -Y,R25
001dc4 93aa      	ST   -Y,R26
001dc5 93ba      	ST   -Y,R27
001dc6 93ea      	ST   -Y,R30
001dc7 93fa      	ST   -Y,R31
001dc8 b7ef      	IN   R30,SREG
001dc9 93ea      	ST   -Y,R30
001dca 9508      	RET
                 
                 ;OPTIMIZER ADDED SUBROUTINE, CALLED 30 TIMES, CODE SIZE REDUCTION:171 WORDS
                 SUBOPT_0x1:
001dcb 91a0 07e6 	LDS  R26,_wheelEncoderCounter_right
001dcd 91b0 07e7 	LDS  R27,_wheelEncoderCounter_right+1
001dcf 9180 07e8 	LDS  R24,_wheelEncoderCounter_right+2
001dd1 9190 07e9 	LDS  R25,_wheelEncoderCounter_right+3
001dd3 9508      	RET
                 
                 ;OPTIMIZER ADDED SUBROUTINE, CALLED 2 TIMES, CODE SIZE REDUCTION:2 WORDS
                 SUBOPT_0x2:
                +
001dd4 eee0     +LDI R30 , LOW ( 0xFFFFB1E0 )
001dd5 ebf1     +LDI R31 , HIGH ( 0xFFFFB1E0 )
001dd6 ef6f     +LDI R22 , BYTE3 ( 0xFFFFB1E0 )
001dd7 ef7f     +LDI R23 , BYTE4 ( 0xFFFFB1E0 )
                 	__GETD1N 0xFFFFB1E0
001dd8 940e 23ea 	CALL __GED12
001dda 2e0e      	MOV  R0,R30
001ddb 9508      	RET
                 
                 ;OPTIMIZER ADDED SUBROUTINE, CALLED 2 TIMES, CODE SIZE REDUCTION:2 WORDS
                 SUBOPT_0x3:
                +
001ddc e2e0     +LDI R30 , LOW ( 0x4E20 )
001ddd e4fe     +LDI R31 , HIGH ( 0x4E20 )
001dde e060     +LDI R22 , BYTE3 ( 0x4E20 )
001ddf e070     +LDI R23 , BYTE4 ( 0x4E20 )
                 	__GETD1N 0x4E20
001de0 940e 23f2 	CALL __LTD12
001de2 21e0      	AND  R30,R0
001de3 9508      	RET
                 
                 ;OPTIMIZER ADDED SUBROUTINE, CALLED 2 TIMES, CODE SIZE REDUCTION:1 WORDS
                 SUBOPT_0x4:
001de4 940e 2426 	CALL __GETD1P_INC
                +
001de6 5fef     +SUBI R30 , LOW ( - 1 )
001de7 4fff     +SBCI R31 , HIGH ( - 1 )
001de8 4f6f     +SBCI R22 , BYTE3 ( - 1 )
001de9 4f7f     +SBCI R23 , BYTE4 ( - 1 )
                 	__SUBD1N -1
001dea 9508      	RET
                 
                 ;OPTIMIZER ADDED SUBROUTINE, CALLED 6 TIMES, CODE SIZE REDUCTION:32 WORDS
                 SUBOPT_0x5:
001deb e0e0      	LDI  R30,LOW(0)
001dec 93e0 07e6 	STS  _wheelEncoderCounter_right,R30
001dee 93e0 07e7 	STS  _wheelEncoderCounter_right+1,R30
001df0 93e0 07e8 	STS  _wheelEncoderCounter_right+2,R30
001df2 93e0 07e9 	STS  _wheelEncoderCounter_right+3,R30
001df4 9508      	RET
                 
                 ;OPTIMIZER ADDED SUBROUTINE, CALLED 4 TIMES, CODE SIZE REDUCTION:15 WORDS
                 SUBOPT_0x6:
001df5 91a0 07e2 	LDS  R26,_wheelEncoderCounter_left
001df7 91b0 07e3 	LDS  R27,_wheelEncoderCounter_left+1
001df9 9180 07e4 	LDS  R24,_wheelEncoderCounter_left+2
001dfb 9190 07e5 	LDS  R25,_wheelEncoderCounter_left+3
001dfd 9508      	RET
                 
                 ;OPTIMIZER ADDED SUBROUTINE, CALLED 4 TIMES, CODE SIZE REDUCTION:18 WORDS
                 SUBOPT_0x7:
001dfe e0e0      	LDI  R30,LOW(0)
001dff 93e0 07e2 	STS  _wheelEncoderCounter_left,R30
001e01 93e0 07e3 	STS  _wheelEncoderCounter_left+1,R30
001e03 93e0 07e4 	STS  _wheelEncoderCounter_left+2,R30
001e05 93e0 07e5 	STS  _wheelEncoderCounter_left+3,R30
001e07 9508      	RET
                 
                 ;OPTIMIZER ADDED SUBROUTINE, CALLED 4 TIMES, CODE SIZE REDUCTION:6 WORDS
                 SUBOPT_0x8:
001e08 91ed      	LD   R30,X+
001e09 91fd      	LD   R31,X+
001e0a 9631      	ADIW R30,1
001e0b 93fe      	ST   -X,R31
001e0c 93ee      	ST   -X,R30
001e0d 9508      	RET
                 
                 ;OPTIMIZER ADDED SUBROUTINE, CALLED 3 TIMES, CODE SIZE REDUCTION:1 WORDS
                 SUBOPT_0x9:
001e0e 91a0 072b 	LDS  R26,_ipwmcounter
001e10 91b0 072c 	LDS  R27,_ipwmcounter+1
001e12 9508      	RET
                 
                 ;OPTIMIZER ADDED SUBROUTINE, CALLED 5 TIMES, CODE SIZE REDUCTION:5 WORDS
                 SUBOPT_0xA:
001e13 93e0 072d 	STS  _ipwmcompareleft,R30
001e15 93f0 072e 	STS  _ipwmcompareleft+1,R31
001e17 9508      	RET
                 
                 ;OPTIMIZER ADDED SUBROUTINE, CALLED 5 TIMES, CODE SIZE REDUCTION:5 WORDS
                 SUBOPT_0xB:
001e18 93e0 072f 	STS  _ipwmcompareright,R30
001e1a 93f0 0730 	STS  _ipwmcompareright+1,R31
001e1c 9508      	RET
                 
                 ;OPTIMIZER ADDED SUBROUTINE, CALLED 3 TIMES, CODE SIZE REDUCTION:5 WORDS
                 SUBOPT_0xC:
001e1d 93aa      	ST   -Y,R26
001e1e 93ba      	ST   -Y,R27
001e1f 93ea      	ST   -Y,R30
001e20 93fa      	ST   -Y,R31
001e21 b7ef      	IN   R30,SREG
001e22 93ea      	ST   -Y,R30
001e23 9508      	RET
                 
                 ;OPTIMIZER ADDED SUBROUTINE, CALLED 4 TIMES, CODE SIZE REDUCTION:3 WORDS
                 SUBOPT_0xD:
001e24 91e0 073a 	LDS  R30,_tmp
001e26 91f0 073b 	LDS  R31,_tmp+1
001e28 9508      	RET
                 
                 ;OPTIMIZER ADDED SUBROUTINE, CALLED 5 TIMES, CODE SIZE REDUCTION:17 WORDS
                 SUBOPT_0xE:
001e29 940e 1d58 	CALL _lcd_puts
001e2b e0e0      	LDI  R30,LOW(0)
001e2c 93ea      	ST   -Y,R30
001e2d e0a1      	LDI  R26,LOW(1)
001e2e 940c 1d08 	JMP  _lcd_gotoxy
                 
                 ;OPTIMIZER ADDED SUBROUTINE, CALLED 2 TIMES, CODE SIZE REDUCTION:4 WORDS
                 SUBOPT_0xF:
001e30 e0f0      	LDI  R31,0
001e31 93fa      	ST   -Y,R31
001e32 93ea      	ST   -Y,R30
001e33 e3af      	LDI  R26,LOW(_s)
001e34 e0b7      	LDI  R27,HIGH(_s)
001e35 940e 1ae2 	CALL _itoa
001e37 e3af      	LDI  R26,LOW(_s)
001e38 e0b7      	LDI  R27,HIGH(_s)
001e39 9508      	RET
                 
                 ;OPTIMIZER ADDED SUBROUTINE, CALLED 12 TIMES, CODE SIZE REDUCTION:19 WORDS
                 SUBOPT_0x10:
001e3a 93e0 0715 	STS  _state,R30
001e3c 93f0 0716 	STS  _state+1,R31
001e3e 9508      	RET
                 
                 ;OPTIMIZER ADDED SUBROUTINE, CALLED 3 TIMES, CODE SIZE REDUCTION:1 WORDS
                 SUBOPT_0x11:
001e3f 91a0 06f6 	LDS  R26,_servo_value_cur
001e41 91b0 06f7 	LDS  R27,_servo_value_cur+1
001e43 9508      	RET
                 
                 ;OPTIMIZER ADDED SUBROUTINE, CALLED 4 TIMES, CODE SIZE REDUCTION:3 WORDS
                 SUBOPT_0x12:
001e44 91e0 06f6 	LDS  R30,_servo_value_cur
001e46 91f0 06f7 	LDS  R31,_servo_value_cur+1
001e48 9508      	RET
                 
                 ;OPTIMIZER ADDED SUBROUTINE, CALLED 9 TIMES, CODE SIZE REDUCTION:21 WORDS
                 SUBOPT_0x13:
001e49 91e0 07cb 	LDS  R30,_LINE_DETECTOR_LEFT
001e4b 91f0 07cc 	LDS  R31,_LINE_DETECTOR_LEFT+1
001e4d 9730      	SBIW R30,0
001e4e 9508      	RET
                 
                 ;OPTIMIZER ADDED SUBROUTINE, CALLED 9 TIMES, CODE SIZE REDUCTION:21 WORDS
                 SUBOPT_0x14:
001e4f 91e0 07cf 	LDS  R30,_LINE_DETECTOR_MID_LEFT
001e51 91f0 07d0 	LDS  R31,_LINE_DETECTOR_MID_LEFT+1
001e53 9730      	SBIW R30,0
001e54 9508      	RET
                 
                 ;OPTIMIZER ADDED SUBROUTINE, CALLED 9 TIMES, CODE SIZE REDUCTION:21 WORDS
                 SUBOPT_0x15:
001e55 91e0 07d1 	LDS  R30,_LINE_DETECTOR_MID_RIGHT
001e57 91f0 07d2 	LDS  R31,_LINE_DETECTOR_MID_RIGHT+1
001e59 9730      	SBIW R30,0
001e5a 9508      	RET
                 
                 ;OPTIMIZER ADDED SUBROUTINE, CALLED 9 TIMES, CODE SIZE REDUCTION:21 WORDS
                 SUBOPT_0x16:
001e5b 91e0 07cd 	LDS  R30,_LINE_DETECTOR_RIGHT
001e5d 91f0 07ce 	LDS  R31,_LINE_DETECTOR_RIGHT+1
001e5f 9730      	SBIW R30,0
001e60 9508      	RET
                 
                 ;OPTIMIZER ADDED SUBROUTINE, CALLED 2 TIMES, CODE SIZE REDUCTION:1 WORDS
                 SUBOPT_0x17:
001e61 e6a4      	LDI  R26,LOW(100)
001e62 e0b0      	LDI  R27,HIGH(100)
001e63 940e 240f 	CALL __MULW12
                +
001e65 0f6e     +ADD R22 , R30
001e66 1f7f     +ADC R23 , R31
                 	__ADDWRR 22,23,30,31
001e67 9508      	RET
                 
                 ;OPTIMIZER ADDED SUBROUTINE, CALLED 2 TIMES, CODE SIZE REDUCTION:1 WORDS
                 SUBOPT_0x18:
001e68 e0aa      	LDI  R26,LOW(10)
001e69 e0b0      	LDI  R27,HIGH(10)
001e6a 940e 240f 	CALL __MULW12
001e6c 0fe6      	ADD  R30,R22
001e6d 1ff7      	ADC  R31,R23
001e6e 9508      	RET
                 
                 ;OPTIMIZER ADDED SUBROUTINE, CALLED 3 TIMES, CODE SIZE REDUCTION:1 WORDS
                 SUBOPT_0x19:
001e6f 0fee      	LSL  R30
001e70 1fff      	ROL  R31
001e71 0fea      	ADD  R30,R26
001e72 1ffb      	ADC  R31,R27
001e73 9508      	RET
                 
                 ;OPTIMIZER ADDED SUBROUTINE, CALLED 5 TIMES, CODE SIZE REDUCTION:9 WORDS
                 SUBOPT_0x1A:
001e74 01f8      	MOVW R30,R16
001e75 e0a3      	LDI  R26,LOW(3)
001e76 e0b0      	LDI  R27,HIGH(3)
001e77 940e 240f 	CALL __MULW12
001e79 9508      	RET
                 
                 ;OPTIMIZER ADDED SUBROUTINE, CALLED 2 TIMES, CODE SIZE REDUCTION:2 WORDS
                 SUBOPT_0x1B:
001e7a 01df      	MOVW R26,R30
001e7b 0faa      	LSL  R26
001e7c 1fbb      	ROL  R27
                +
001e7d 56aa     +SUBI R26 , LOW ( - _data - ( 6 ) )
001e7e 4fb8     +SBCI R27 , HIGH ( - _data - ( 6 ) )
                 	__ADDW2MN _data,6
001e7f 940e 2422 	CALL __GETW1P
001e81 9508      	RET
                 
                 ;OPTIMIZER ADDED SUBROUTINE, CALLED 2 TIMES, CODE SIZE REDUCTION:6 WORDS
                 SUBOPT_0x1C:
001e82 940e 2422 	CALL __GETW1P
001e84 91a0 07c9 	LDS  R26,_temp
001e86 91b0 07ca 	LDS  R27,_temp+1
001e88 0fea      	ADD  R30,R26
001e89 1ffb      	ADC  R31,R27
001e8a 01db      	MOVW R26,R22
001e8b 93ed      	ST   X+,R30
001e8c 93fc      	ST   X,R31
001e8d 9508      	RET
                 
                 ;OPTIMIZER ADDED SUBROUTINE, CALLED 16 TIMES, CODE SIZE REDUCTION:42 WORDS
                 SUBOPT_0x1D:
001e8e e0e0      	LDI  R30,LOW(0)
001e8f 93ea      	ST   -Y,R30
001e90 e0a1      	LDI  R26,LOW(1)
001e91 940c 1d08 	JMP  _lcd_gotoxy
                 
                 ;OPTIMIZER ADDED SUBROUTINE, CALLED 2 TIMES, CODE SIZE REDUCTION:10 WORDS
                 SUBOPT_0x1E:
001e93 e6e4      	LDI  R30,LOW(100)
001e94 e0f0      	LDI  R31,HIGH(100)
001e95 df7d      	RCALL SUBOPT_0xA
001e96 e6e4      	LDI  R30,LOW(100)
001e97 e0f0      	LDI  R31,HIGH(100)
001e98 df7f      	RCALL SUBOPT_0xB
001e99 940e 1d1c 	CALL _lcd_clear
001e9b 91e0 06fc 	LDS  R30,_engine_dir
001e9d 91f0 06fd 	LDS  R31,_engine_dir+1
001e9f 9730      	SBIW R30,0
001ea0 9508      	RET
                 
                 ;OPTIMIZER ADDED SUBROUTINE, CALLED 2 TIMES, CODE SIZE REDUCTION:11 WORDS
                 SUBOPT_0x1F:
001ea1 940e 1d58 	CALL _lcd_puts
001ea3 91e0 07e2 	LDS  R30,_wheelEncoderCounter_left
001ea5 91f0 07e3 	LDS  R31,_wheelEncoderCounter_left+1
001ea7 93fa      	ST   -Y,R31
001ea8 93ea      	ST   -Y,R30
001ea9 01de      	MOVW R26,R28
001eaa 9612      	ADIW R26,2
001eab 940e 1ae2 	CALL _itoa
001ead 01de      	MOVW R26,R28
001eae 940c 1d58 	JMP  _lcd_puts
                 
                 ;OPTIMIZER ADDED SUBROUTINE, CALLED 2 TIMES, CODE SIZE REDUCTION:11 WORDS
                 SUBOPT_0x20:
001eb0 940e 1d58 	CALL _lcd_puts
001eb2 91e0 07e6 	LDS  R30,_wheelEncoderCounter_right
001eb4 91f0 07e7 	LDS  R31,_wheelEncoderCounter_right+1
001eb6 93fa      	ST   -Y,R31
001eb7 93ea      	ST   -Y,R30
001eb8 01de      	MOVW R26,R28
001eb9 9612      	ADIW R26,2
001eba 940e 1ae2 	CALL _itoa
001ebc 01de      	MOVW R26,R28
001ebd 940c 1d58 	JMP  _lcd_puts
                 
                 ;OPTIMIZER ADDED SUBROUTINE, CALLED 2 TIMES, CODE SIZE REDUCTION:10 WORDS
                 SUBOPT_0x21:
001ebf efaa      	LDI  R26,LOW(250)
001ec0 e0b0      	LDI  R27,0
001ec1 940e 22b0 	CALL _delay_ms
001ec3 91e0 06fc 	LDS  R30,_engine_dir
001ec5 91f0 06fd 	LDS  R31,_engine_dir+1
001ec7 940e 2402 	CALL __LNEGW1
001ec9 e0f0      	LDI  R31,0
001eca 93e0 06fc 	STS  _engine_dir,R30
001ecc 93f0 06fd 	STS  _engine_dir+1,R31
001ece 9508      	RET
                 
                 ;OPTIMIZER ADDED SUBROUTINE, CALLED 10 TIMES, CODE SIZE REDUCTION:15 WORDS
                 SUBOPT_0x22:
                +
001ecf 91e0 07d9+LDS R30 , _adc_data + ( 6 )
001ed1 91f0 07da+LDS R31 , _adc_data + ( 6 ) + 1
                 	__GETW1MN _adc_data,6
001ed3 9508      	RET
                 
                 ;OPTIMIZER ADDED SUBROUTINE, CALLED 4 TIMES, CODE SIZE REDUCTION:3 WORDS
                 SUBOPT_0x23:
                +
001ed4 91e0 07d5+LDS R30 , _adc_data + ( 2 )
001ed6 91f0 07d6+LDS R31 , _adc_data + ( 2 ) + 1
                 	__GETW1MN _adc_data,2
001ed8 9508      	RET
                 
                 ;OPTIMIZER ADDED SUBROUTINE, CALLED 2 TIMES, CODE SIZE REDUCTION:1 WORDS
                 SUBOPT_0x24:
001ed9 01de      	MOVW R26,R28
001eda 9616      	ADIW R26,6
001edb 940e 1ae2 	CALL _itoa
001edd 01de      	MOVW R26,R28
001ede 9614      	ADIW R26,4
001edf 9508      	RET
                 
                 ;OPTIMIZER ADDED SUBROUTINE, CALLED 2 TIMES, CODE SIZE REDUCTION:1 WORDS
                 SUBOPT_0x25:
001ee0 931a      	ST   -Y,R17
001ee1 e010      	LDI  R17,0
001ee2 940e 0668 	CALL _readData
001ee4 940c 069d 	JMP  _convertdata
                 
                 ;OPTIMIZER ADDED SUBROUTINE, CALLED 7 TIMES, CODE SIZE REDUCTION:45 WORDS
                 SUBOPT_0x26:
001ee6 2fe1      	MOV  R30,R17
001ee7 eba5      	LDI  R26,LOW(_x)
001ee8 e0b7      	LDI  R27,HIGH(_x)
001ee9 e0f0      	LDI  R31,0
001eea 0fee      	LSL  R30
001eeb 1fff      	ROL  R31
001eec 0fae      	ADD  R26,R30
001eed 1fbf      	ADC  R27,R31
001eee 940e 2422 	CALL __GETW1P
001ef0 9508      	RET
                 
                 ;OPTIMIZER ADDED SUBROUTINE, CALLED 5 TIMES, CODE SIZE REDUCTION:29 WORDS
                 SUBOPT_0x27:
001ef1 2fe1      	MOV  R30,R17
001ef2 ebad      	LDI  R26,LOW(_y)
001ef3 e0b7      	LDI  R27,HIGH(_y)
001ef4 e0f0      	LDI  R31,0
001ef5 0fee      	LSL  R30
001ef6 1fff      	ROL  R31
001ef7 0fae      	ADD  R26,R30
001ef8 1fbf      	ADC  R27,R31
001ef9 940e 2422 	CALL __GETW1P
001efb 9508      	RET
                 
                 ;OPTIMIZER ADDED SUBROUTINE, CALLED 2 TIMES, CODE SIZE REDUCTION:3 WORDS
                 SUBOPT_0x28:
001efc 50e0      	SUBI R30,LOW(512)
001efd 40f2      	SBCI R31,HIGH(512)
001efe 93fa      	ST   -Y,R31
001eff 93ea      	ST   -Y,R30
001f00 eba0      	LDI  R26,LOW(_Wert)
001f01 e0b7      	LDI  R27,HIGH(_Wert)
001f02 940c 1ae2 	JMP  _itoa
                 
                 ;OPTIMIZER ADDED SUBROUTINE, CALLED 3 TIMES, CODE SIZE REDUCTION:7 WORDS
                 SUBOPT_0x29:
001f04 e0a0      	LDI  R26,LOW(0)
001f05 940e 1d08 	CALL _lcd_gotoxy
001f07 eba0      	LDI  R26,LOW(_Wert)
001f08 e0b7      	LDI  R27,HIGH(_Wert)
001f09 940c 1d58 	JMP  _lcd_puts
                 
                 ;OPTIMIZER ADDED SUBROUTINE, CALLED 2 TIMES, CODE SIZE REDUCTION:3 WORDS
                 SUBOPT_0x2A:
001f0b 57e6      	SUBI R30,LOW(374)
001f0c 40f1      	SBCI R31,HIGH(374)
001f0d 93fa      	ST   -Y,R31
001f0e 93ea      	ST   -Y,R30
001f0f eba0      	LDI  R26,LOW(_Wert)
001f10 e0b7      	LDI  R27,HIGH(_Wert)
001f11 940c 1ae2 	JMP  _itoa
                 
                 ;OPTIMIZER ADDED SUBROUTINE, CALLED 2 TIMES, CODE SIZE REDUCTION:7 WORDS
                 SUBOPT_0x2B:
001f13 2fe1      	MOV  R30,R17
001f14 e0f0      	LDI  R31,0
001f15 53eb      	SUBI R30,LOW(-_sWIICAM)
001f16 4ff8      	SBCI R31,HIGH(-_sWIICAM)
001f17 81e0      	LD   R30,Z
001f18 e0f0      	LDI  R31,0
001f19 93fa      	ST   -Y,R31
001f1a 93ea      	ST   -Y,R30
001f1b eba0      	LDI  R26,LOW(_Wert)
001f1c e0b7      	LDI  R27,HIGH(_Wert)
001f1d 940c 1ae2 	JMP  _itoa
                 
                 ;OPTIMIZER ADDED SUBROUTINE, CALLED 3 TIMES, CODE SIZE REDUCTION:7 WORDS
                 SUBOPT_0x2C:
001f1f e0a1      	LDI  R26,LOW(1)
001f20 940e 1d08 	CALL _lcd_gotoxy
001f22 eba0      	LDI  R26,LOW(_Wert)
001f23 e0b7      	LDI  R27,HIGH(_Wert)
001f24 940c 1d58 	JMP  _lcd_puts
                 
                 ;OPTIMIZER ADDED SUBROUTINE, CALLED 3 TIMES, CODE SIZE REDUCTION:1 WORDS
                 SUBOPT_0x2D:
001f26 e1ae      	LDI  R26,LOW(30)
001f27 e0b0      	LDI  R27,0
001f28 940c 22b0 	JMP  _delay_ms
                 
                 ;OPTIMIZER ADDED SUBROUTINE, CALLED 5 TIMES, CODE SIZE REDUCTION:53 WORDS
                 SUBOPT_0x2E:
001f2a 91e0 078c 	LDS  R30,_iTime
001f2c 91f0 078d 	LDS  R31,_iTime+1
001f2e 2766      	CLR  R22
001f2f 2777      	CLR  R23
001f30 940e 2320 	CALL __CDF1
001f32 01df      	MOVW R26,R30
001f33 01cb      	MOVW R24,R22
                +
001f34 eced     +LDI R30 , LOW ( 0x4250CCCD )
001f35 ecfc     +LDI R31 , HIGH ( 0x4250CCCD )
001f36 e560     +LDI R22 , BYTE3 ( 0x4250CCCD )
001f37 e472     +LDI R23 , BYTE4 ( 0x4250CCCD )
                 	__GETD1N 0x4250CCCD
001f38 940e 234e 	CALL __DIVF21
001f3a 9508      	RET
                 
                 ;OPTIMIZER ADDED SUBROUTINE, CALLED 2 TIMES, CODE SIZE REDUCTION:9 WORDS
                 SUBOPT_0x2F:
                +
001f3b e0e2     +LDI R30 , LOW ( 0x2 )
001f3c e0f0     +LDI R31 , HIGH ( 0x2 )
001f3d e060     +LDI R22 , BYTE3 ( 0x2 )
001f3e e070     +LDI R23 , BYTE4 ( 0x2 )
                 	__GETD1N 0x2
001f3f 93e0 07e2 	STS  _wheelEncoderCounter_left,R30
001f41 93f0 07e3 	STS  _wheelEncoderCounter_left+1,R31
001f43 9360 07e4 	STS  _wheelEncoderCounter_left+2,R22
001f45 9370 07e5 	STS  _wheelEncoderCounter_left+3,R23
001f47 cea3      	RJMP SUBOPT_0x5
                 
                 ;OPTIMIZER ADDED SUBROUTINE, CALLED 18 TIMES, CODE SIZE REDUCTION:133 WORDS
                 SUBOPT_0x30:
001f48 91e0 07e2 	LDS  R30,_wheelEncoderCounter_left
001f4a 91f0 07e3 	LDS  R31,_wheelEncoderCounter_left+1
001f4c 9160 07e4 	LDS  R22,_wheelEncoderCounter_left+2
001f4e 9170 07e5 	LDS  R23,_wheelEncoderCounter_left+3
001f50 ce7a      	RJMP SUBOPT_0x1
                 
                 ;OPTIMIZER ADDED SUBROUTINE, CALLED 74 TIMES, CODE SIZE REDUCTION:143 WORDS
                 SUBOPT_0x31:
001f51 e6e4      	LDI  R30,LOW(100)
001f52 e0f0      	LDI  R31,HIGH(100)
001f53 93fa      	ST   -Y,R31
001f54 93ea      	ST   -Y,R30
001f55 9508      	RET
                 
                 ;OPTIMIZER ADDED SUBROUTINE, CALLED 37 TIMES, CODE SIZE REDUCTION:213 WORDS
                 SUBOPT_0x32:
001f56 e0e0      	LDI  R30,LOW(0)
001f57 e0f0      	LDI  R31,HIGH(0)
001f58 93fa      	ST   -Y,R31
001f59 93ea      	ST   -Y,R30
001f5a e0a0      	LDI  R26,LOW(0)
001f5b e0b0      	LDI  R27,0
001f5c 940c 03ec 	JMP  _movement
                 
                 ;OPTIMIZER ADDED SUBROUTINE, CALLED 33 TIMES, CODE SIZE REDUCTION:61 WORDS
                 SUBOPT_0x33:
001f5e e5e0      	LDI  R30,LOW(80)
001f5f e0f0      	LDI  R31,HIGH(80)
001f60 93fa      	ST   -Y,R31
001f61 93ea      	ST   -Y,R30
001f62 9508      	RET
                 
                 ;OPTIMIZER ADDED SUBROUTINE, CALLED 73 TIMES, CODE SIZE REDUCTION:429 WORDS
                 SUBOPT_0x34:
001f63 e0e1      	LDI  R30,LOW(1)
001f64 e0f0      	LDI  R31,HIGH(1)
001f65 93fa      	ST   -Y,R31
001f66 93ea      	ST   -Y,R30
001f67 e0a1      	LDI  R26,LOW(1)
001f68 e0b0      	LDI  R27,0
001f69 940c 03ec 	JMP  _movement
                 
                 ;OPTIMIZER ADDED SUBROUTINE, CALLED 28 TIMES, CODE SIZE REDUCTION:51 WORDS
                 SUBOPT_0x35:
001f6b e0e0      	LDI  R30,LOW(0)
001f6c e0f0      	LDI  R31,HIGH(0)
001f6d 93fa      	ST   -Y,R31
001f6e 93ea      	ST   -Y,R30
001f6f 9508      	RET
                 
                 ;OPTIMIZER ADDED SUBROUTINE, CALLED 3 TIMES, CODE SIZE REDUCTION:1 WORDS
                 SUBOPT_0x36:
001f70 940e 1d1c 	CALL _lcd_clear
001f72 cf1b      	RJMP SUBOPT_0x1D
                 
                 ;OPTIMIZER ADDED SUBROUTINE, CALLED 10 TIMES, CODE SIZE REDUCTION:123 WORDS
                 SUBOPT_0x37:
001f73 940e 1d58 	CALL _lcd_puts
001f75 91e0 07e2 	LDS  R30,_wheelEncoderCounter_left
001f77 91f0 07e3 	LDS  R31,_wheelEncoderCounter_left+1
001f79 93fa      	ST   -Y,R31
001f7a 93ea      	ST   -Y,R30
001f7b e0a2      	LDI  R26,LOW(_str)
001f7c e0b7      	LDI  R27,HIGH(_str)
001f7d 940e 1ae2 	CALL _itoa
001f7f e0a2      	LDI  R26,LOW(_str)
001f80 e0b7      	LDI  R27,HIGH(_str)
001f81 940c 1d58 	JMP  _lcd_puts
                 
                 ;OPTIMIZER ADDED SUBROUTINE, CALLED 10 TIMES, CODE SIZE REDUCTION:123 WORDS
                 SUBOPT_0x38:
001f83 940e 1d58 	CALL _lcd_puts
001f85 91e0 07e6 	LDS  R30,_wheelEncoderCounter_right
001f87 91f0 07e7 	LDS  R31,_wheelEncoderCounter_right+1
001f89 93fa      	ST   -Y,R31
001f8a 93ea      	ST   -Y,R30
001f8b e0a2      	LDI  R26,LOW(_str)
001f8c e0b7      	LDI  R27,HIGH(_str)
001f8d 940e 1ae2 	CALL _itoa
001f8f e0a2      	LDI  R26,LOW(_str)
001f90 e0b7      	LDI  R27,HIGH(_str)
001f91 940c 1d58 	JMP  _lcd_puts
                 
                 ;OPTIMIZER ADDED SUBROUTINE, CALLED 2 TIMES, CODE SIZE REDUCTION:2 WORDS
                 SUBOPT_0x39:
                +
001f93 31a1     +CPI R26 , LOW ( 0x11 )
001f94 e0e0     +LDI R30 , HIGH ( 0x11 )
001f95 07be     +CPC R27 , R30
001f96 e0e0     +LDI R30 , BYTE3 ( 0x11 )
001f97 078e     +CPC R24 , R30
001f98 e0e0     +LDI R30 , BYTE4 ( 0x11 )
001f99 079e     +CPC R25 , R30
                 	__CPD2N 0x11
001f9a 9508      	RET
                 
                 ;OPTIMIZER ADDED SUBROUTINE, CALLED 2 TIMES, CODE SIZE REDUCTION:1 WORDS
                 SUBOPT_0x3A:
001f9b e0e1      	LDI  R30,LOW(1)
001f9c e0f0      	LDI  R31,HIGH(1)
001f9d 93e0 07f6 	STS  _detector_value,R30
001f9f 93f0 07f7 	STS  _detector_value+1,R31
001fa1 9508      	RET
                 
                 ;OPTIMIZER ADDED SUBROUTINE, CALLED 2 TIMES, CODE SIZE REDUCTION:1 WORDS
                 SUBOPT_0x3B:
001fa2 e0e2      	LDI  R30,LOW(2)
001fa3 e0f0      	LDI  R31,HIGH(2)
001fa4 93e0 07f6 	STS  _detector_value,R30
001fa6 93f0 07f7 	STS  _detector_value+1,R31
001fa8 9508      	RET
                 
                 ;OPTIMIZER ADDED SUBROUTINE, CALLED 2 TIMES, CODE SIZE REDUCTION:1 WORDS
                 SUBOPT_0x3C:
001fa9 e0e3      	LDI  R30,LOW(3)
001faa e0f0      	LDI  R31,HIGH(3)
001fab 93e0 07f6 	STS  _detector_value,R30
001fad 93f0 07f7 	STS  _detector_value+1,R31
001faf 9508      	RET
                 
                 ;OPTIMIZER ADDED SUBROUTINE, CALLED 2 TIMES, CODE SIZE REDUCTION:1 WORDS
                 SUBOPT_0x3D:
001fb0 e0e4      	LDI  R30,LOW(4)
001fb1 e0f0      	LDI  R31,HIGH(4)
001fb2 93e0 07f6 	STS  _detector_value,R30
001fb4 93f0 07f7 	STS  _detector_value+1,R31
001fb6 9508      	RET
                 
                 ;OPTIMIZER ADDED SUBROUTINE, CALLED 2 TIMES, CODE SIZE REDUCTION:1 WORDS
                 SUBOPT_0x3E:
001fb7 e0e5      	LDI  R30,LOW(5)
001fb8 e0f0      	LDI  R31,HIGH(5)
001fb9 93e0 07f6 	STS  _detector_value,R30
001fbb 93f0 07f7 	STS  _detector_value+1,R31
001fbd 9508      	RET
                 
                 ;OPTIMIZER ADDED SUBROUTINE, CALLED 2 TIMES, CODE SIZE REDUCTION:1 WORDS
                 SUBOPT_0x3F:
001fbe e0e6      	LDI  R30,LOW(6)
001fbf e0f0      	LDI  R31,HIGH(6)
001fc0 93e0 07f6 	STS  _detector_value,R30
001fc2 93f0 07f7 	STS  _detector_value+1,R31
001fc4 9508      	RET
                 
                 ;OPTIMIZER ADDED SUBROUTINE, CALLED 2 TIMES, CODE SIZE REDUCTION:1 WORDS
                 SUBOPT_0x40:
001fc5 e0e7      	LDI  R30,LOW(7)
001fc6 e0f0      	LDI  R31,HIGH(7)
001fc7 93e0 07f6 	STS  _detector_value,R30
001fc9 93f0 07f7 	STS  _detector_value+1,R31
001fcb 9508      	RET
                 
                 ;OPTIMIZER ADDED SUBROUTINE, CALLED 2 TIMES, CODE SIZE REDUCTION:1 WORDS
                 SUBOPT_0x41:
001fcc e0e8      	LDI  R30,LOW(8)
001fcd e0f0      	LDI  R31,HIGH(8)
001fce 93e0 07f6 	STS  _detector_value,R30
001fd0 93f0 07f7 	STS  _detector_value+1,R31
001fd2 9508      	RET
                 
                 ;OPTIMIZER ADDED SUBROUTINE, CALLED 2 TIMES, CODE SIZE REDUCTION:1 WORDS
                 SUBOPT_0x42:
001fd3 e0e9      	LDI  R30,LOW(9)
001fd4 e0f0      	LDI  R31,HIGH(9)
001fd5 93e0 07f6 	STS  _detector_value,R30
001fd7 93f0 07f7 	STS  _detector_value+1,R31
001fd9 9508      	RET
                 
                 ;OPTIMIZER ADDED SUBROUTINE, CALLED 2 TIMES, CODE SIZE REDUCTION:1 WORDS
                 SUBOPT_0x43:
001fda e0ea      	LDI  R30,LOW(10)
001fdb e0f0      	LDI  R31,HIGH(10)
001fdc 93e0 07f6 	STS  _detector_value,R30
001fde 93f0 07f7 	STS  _detector_value+1,R31
001fe0 9508      	RET
                 
                 ;OPTIMIZER ADDED SUBROUTINE, CALLED 2 TIMES, CODE SIZE REDUCTION:1 WORDS
                 SUBOPT_0x44:
001fe1 e0eb      	LDI  R30,LOW(11)
001fe2 e0f0      	LDI  R31,HIGH(11)
001fe3 93e0 07f6 	STS  _detector_value,R30
001fe5 93f0 07f7 	STS  _detector_value+1,R31
001fe7 9508      	RET
                 
                 ;OPTIMIZER ADDED SUBROUTINE, CALLED 2 TIMES, CODE SIZE REDUCTION:1 WORDS
                 SUBOPT_0x45:
001fe8 e0ec      	LDI  R30,LOW(12)
001fe9 e0f0      	LDI  R31,HIGH(12)
001fea 93e0 07f6 	STS  _detector_value,R30
001fec 93f0 07f7 	STS  _detector_value+1,R31
001fee 9508      	RET
                 
                 ;OPTIMIZER ADDED SUBROUTINE, CALLED 2 TIMES, CODE SIZE REDUCTION:1 WORDS
                 SUBOPT_0x46:
001fef e0ed      	LDI  R30,LOW(13)
001ff0 e0f0      	LDI  R31,HIGH(13)
001ff1 93e0 07f6 	STS  _detector_value,R30
001ff3 93f0 07f7 	STS  _detector_value+1,R31
001ff5 9508      	RET
                 
                 ;OPTIMIZER ADDED SUBROUTINE, CALLED 2 TIMES, CODE SIZE REDUCTION:1 WORDS
                 SUBOPT_0x47:
001ff6 e0ee      	LDI  R30,LOW(14)
001ff7 e0f0      	LDI  R31,HIGH(14)
001ff8 93e0 07f6 	STS  _detector_value,R30
001ffa 93f0 07f7 	STS  _detector_value+1,R31
001ffc 9508      	RET
                 
                 ;OPTIMIZER ADDED SUBROUTINE, CALLED 2 TIMES, CODE SIZE REDUCTION:1 WORDS
                 SUBOPT_0x48:
001ffd e0ef      	LDI  R30,LOW(15)
001ffe e0f0      	LDI  R31,HIGH(15)
001fff 93e0 07f6 	STS  _detector_value,R30
002001 93f0 07f7 	STS  _detector_value+1,R31
002003 9508      	RET
                 
                 ;OPTIMIZER ADDED SUBROUTINE, CALLED 2 TIMES, CODE SIZE REDUCTION:1 WORDS
                 SUBOPT_0x49:
002004 e1e0      	LDI  R30,LOW(16)
002005 e0f0      	LDI  R31,HIGH(16)
002006 93e0 07f6 	STS  _detector_value,R30
002008 93f0 07f7 	STS  _detector_value+1,R31
00200a 9508      	RET
                 
                 ;OPTIMIZER ADDED SUBROUTINE, CALLED 2 TIMES, CODE SIZE REDUCTION:1 WORDS
                 SUBOPT_0x4A:
00200b e1e1      	LDI  R30,LOW(17)
00200c e0f0      	LDI  R31,HIGH(17)
00200d 93e0 07f6 	STS  _detector_value,R30
00200f 93f0 07f7 	STS  _detector_value+1,R31
002011 9508      	RET
                 
                 ;OPTIMIZER ADDED SUBROUTINE, CALLED 2 TIMES, CODE SIZE REDUCTION:1 WORDS
                 SUBOPT_0x4B:
002012 e1e2      	LDI  R30,LOW(18)
002013 e0f0      	LDI  R31,HIGH(18)
002014 93e0 07f6 	STS  _detector_value,R30
002016 93f0 07f7 	STS  _detector_value+1,R31
002018 9508      	RET
                 
                 ;OPTIMIZER ADDED SUBROUTINE, CALLED 2 TIMES, CODE SIZE REDUCTION:1 WORDS
                 SUBOPT_0x4C:
002019 e1e3      	LDI  R30,LOW(19)
00201a e0f0      	LDI  R31,HIGH(19)
00201b 93e0 07f6 	STS  _detector_value,R30
00201d 93f0 07f7 	STS  _detector_value+1,R31
00201f 9508      	RET
                 
                 ;OPTIMIZER ADDED SUBROUTINE, CALLED 2 TIMES, CODE SIZE REDUCTION:1 WORDS
                 SUBOPT_0x4D:
002020 e1e4      	LDI  R30,LOW(20)
002021 e0f0      	LDI  R31,HIGH(20)
002022 93e0 07f6 	STS  _detector_value,R30
002024 93f0 07f7 	STS  _detector_value+1,R31
002026 9508      	RET
                 
                 ;OPTIMIZER ADDED SUBROUTINE, CALLED 2 TIMES, CODE SIZE REDUCTION:1 WORDS
                 SUBOPT_0x4E:
002027 e1e5      	LDI  R30,LOW(21)
002028 e0f0      	LDI  R31,HIGH(21)
002029 93e0 07f6 	STS  _detector_value,R30
00202b 93f0 07f7 	STS  _detector_value+1,R31
00202d 9508      	RET
                 
                 ;OPTIMIZER ADDED SUBROUTINE, CALLED 2 TIMES, CODE SIZE REDUCTION:1 WORDS
                 SUBOPT_0x4F:
00202e e1e6      	LDI  R30,LOW(22)
00202f e0f0      	LDI  R31,HIGH(22)
002030 93e0 07f6 	STS  _detector_value,R30
002032 93f0 07f7 	STS  _detector_value+1,R31
002034 9508      	RET
                 
                 ;OPTIMIZER ADDED SUBROUTINE, CALLED 2 TIMES, CODE SIZE REDUCTION:1 WORDS
                 SUBOPT_0x50:
002035 e1e7      	LDI  R30,LOW(23)
002036 e0f0      	LDI  R31,HIGH(23)
002037 93e0 07f6 	STS  _detector_value,R30
002039 93f0 07f7 	STS  _detector_value+1,R31
00203b 9508      	RET
                 
                 ;OPTIMIZER ADDED SUBROUTINE, CALLED 2 TIMES, CODE SIZE REDUCTION:1 WORDS
                 SUBOPT_0x51:
00203c e1e8      	LDI  R30,LOW(24)
00203d e0f0      	LDI  R31,HIGH(24)
00203e 93e0 07f6 	STS  _detector_value,R30
002040 93f0 07f7 	STS  _detector_value+1,R31
002042 9508      	RET
                 
                 ;OPTIMIZER ADDED SUBROUTINE, CALLED 2 TIMES, CODE SIZE REDUCTION:1 WORDS
                 SUBOPT_0x52:
002043 e1e9      	LDI  R30,LOW(25)
002044 e0f0      	LDI  R31,HIGH(25)
002045 93e0 07f6 	STS  _detector_value,R30
002047 93f0 07f7 	STS  _detector_value+1,R31
002049 9508      	RET
                 
                 ;OPTIMIZER ADDED SUBROUTINE, CALLED 2 TIMES, CODE SIZE REDUCTION:1 WORDS
                 SUBOPT_0x53:
00204a e1ea      	LDI  R30,LOW(26)
00204b e0f0      	LDI  R31,HIGH(26)
00204c 93e0 07f6 	STS  _detector_value,R30
00204e 93f0 07f7 	STS  _detector_value+1,R31
002050 9508      	RET
                 
                 ;OPTIMIZER ADDED SUBROUTINE, CALLED 2 TIMES, CODE SIZE REDUCTION:1 WORDS
                 SUBOPT_0x54:
002051 e1eb      	LDI  R30,LOW(27)
002052 e0f0      	LDI  R31,HIGH(27)
002053 93e0 07f6 	STS  _detector_value,R30
002055 93f0 07f7 	STS  _detector_value+1,R31
002057 9508      	RET
                 
                 ;OPTIMIZER ADDED SUBROUTINE, CALLED 2 TIMES, CODE SIZE REDUCTION:1 WORDS
                 SUBOPT_0x55:
002058 e1ec      	LDI  R30,LOW(28)
002059 e0f0      	LDI  R31,HIGH(28)
00205a 93e0 07f6 	STS  _detector_value,R30
00205c 93f0 07f7 	STS  _detector_value+1,R31
00205e 9508      	RET
                 
                 ;OPTIMIZER ADDED SUBROUTINE, CALLED 2 TIMES, CODE SIZE REDUCTION:1 WORDS
                 SUBOPT_0x56:
00205f e1ed      	LDI  R30,LOW(29)
002060 e0f0      	LDI  R31,HIGH(29)
002061 93e0 07f6 	STS  _detector_value,R30
002063 93f0 07f7 	STS  _detector_value+1,R31
002065 9508      	RET
                 
                 ;OPTIMIZER ADDED SUBROUTINE, CALLED 2 TIMES, CODE SIZE REDUCTION:1 WORDS
                 SUBOPT_0x57:
002066 e1ee      	LDI  R30,LOW(30)
002067 e0f0      	LDI  R31,HIGH(30)
002068 93e0 07f6 	STS  _detector_value,R30
00206a 93f0 07f7 	STS  _detector_value+1,R31
00206c 9508      	RET
                 
                 ;OPTIMIZER ADDED SUBROUTINE, CALLED 2 TIMES, CODE SIZE REDUCTION:1 WORDS
                 SUBOPT_0x58:
00206d e1ef      	LDI  R30,LOW(31)
00206e e0f0      	LDI  R31,HIGH(31)
00206f 93e0 07f6 	STS  _detector_value,R30
002071 93f0 07f7 	STS  _detector_value+1,R31
002073 9508      	RET
                 
                 ;OPTIMIZER ADDED SUBROUTINE, CALLED 2 TIMES, CODE SIZE REDUCTION:1 WORDS
                 SUBOPT_0x59:
002074 e2e0      	LDI  R30,LOW(32)
002075 e0f0      	LDI  R31,HIGH(32)
002076 93e0 07f6 	STS  _detector_value,R30
002078 93f0 07f7 	STS  _detector_value+1,R31
00207a 9508      	RET
                 
                 ;OPTIMIZER ADDED SUBROUTINE, CALLED 2 TIMES, CODE SIZE REDUCTION:1 WORDS
                 SUBOPT_0x5A:
00207b e2e1      	LDI  R30,LOW(33)
00207c e0f0      	LDI  R31,HIGH(33)
00207d 93e0 07f6 	STS  _detector_value,R30
00207f 93f0 07f7 	STS  _detector_value+1,R31
002081 9508      	RET
                 
                 ;OPTIMIZER ADDED SUBROUTINE, CALLED 2 TIMES, CODE SIZE REDUCTION:1 WORDS
                 SUBOPT_0x5B:
002082 e2e2      	LDI  R30,LOW(34)
002083 e0f0      	LDI  R31,HIGH(34)
002084 93e0 07f6 	STS  _detector_value,R30
002086 93f0 07f7 	STS  _detector_value+1,R31
002088 9508      	RET
                 
                 ;OPTIMIZER ADDED SUBROUTINE, CALLED 2 TIMES, CODE SIZE REDUCTION:1 WORDS
                 SUBOPT_0x5C:
002089 e2e3      	LDI  R30,LOW(35)
00208a e0f0      	LDI  R31,HIGH(35)
00208b 93e0 07f6 	STS  _detector_value,R30
00208d 93f0 07f7 	STS  _detector_value+1,R31
00208f 9508      	RET
                 
                 ;OPTIMIZER ADDED SUBROUTINE, CALLED 2 TIMES, CODE SIZE REDUCTION:1 WORDS
                 SUBOPT_0x5D:
002090 e2e4      	LDI  R30,LOW(36)
002091 e0f0      	LDI  R31,HIGH(36)
002092 93e0 07f6 	STS  _detector_value,R30
002094 93f0 07f7 	STS  _detector_value+1,R31
002096 9508      	RET
                 
                 ;OPTIMIZER ADDED SUBROUTINE, CALLED 2 TIMES, CODE SIZE REDUCTION:1 WORDS
                 SUBOPT_0x5E:
002097 e2e5      	LDI  R30,LOW(37)
002098 e0f0      	LDI  R31,HIGH(37)
002099 93e0 07f6 	STS  _detector_value,R30
00209b 93f0 07f7 	STS  _detector_value+1,R31
00209d 9508      	RET
                 
                 ;OPTIMIZER ADDED SUBROUTINE, CALLED 2 TIMES, CODE SIZE REDUCTION:1 WORDS
                 SUBOPT_0x5F:
00209e e2e6      	LDI  R30,LOW(38)
00209f e0f0      	LDI  R31,HIGH(38)
0020a0 93e0 07f6 	STS  _detector_value,R30
0020a2 93f0 07f7 	STS  _detector_value+1,R31
0020a4 9508      	RET
                 
                 ;OPTIMIZER ADDED SUBROUTINE, CALLED 2 TIMES, CODE SIZE REDUCTION:1 WORDS
                 SUBOPT_0x60:
0020a5 e2e7      	LDI  R30,LOW(39)
0020a6 e0f0      	LDI  R31,HIGH(39)
0020a7 93e0 07f6 	STS  _detector_value,R30
0020a9 93f0 07f7 	STS  _detector_value+1,R31
0020ab 9508      	RET
                 
                 ;OPTIMIZER ADDED SUBROUTINE, CALLED 2 TIMES, CODE SIZE REDUCTION:1 WORDS
                 SUBOPT_0x61:
0020ac e2e8      	LDI  R30,LOW(40)
0020ad e0f0      	LDI  R31,HIGH(40)
0020ae 93e0 07f6 	STS  _detector_value,R30
0020b0 93f0 07f7 	STS  _detector_value+1,R31
0020b2 9508      	RET
                 
                 ;OPTIMIZER ADDED SUBROUTINE, CALLED 2 TIMES, CODE SIZE REDUCTION:1 WORDS
                 SUBOPT_0x62:
0020b3 e2e9      	LDI  R30,LOW(41)
0020b4 e0f0      	LDI  R31,HIGH(41)
0020b5 93e0 07f6 	STS  _detector_value,R30
0020b7 93f0 07f7 	STS  _detector_value+1,R31
0020b9 9508      	RET
                 
                 ;OPTIMIZER ADDED SUBROUTINE, CALLED 2 TIMES, CODE SIZE REDUCTION:1 WORDS
                 SUBOPT_0x63:
0020ba e2ea      	LDI  R30,LOW(42)
0020bb e0f0      	LDI  R31,HIGH(42)
0020bc 93e0 07f6 	STS  _detector_value,R30
0020be 93f0 07f7 	STS  _detector_value+1,R31
0020c0 9508      	RET
                 
                 ;OPTIMIZER ADDED SUBROUTINE, CALLED 2 TIMES, CODE SIZE REDUCTION:1 WORDS
                 SUBOPT_0x64:
0020c1 e2eb      	LDI  R30,LOW(43)
0020c2 e0f0      	LDI  R31,HIGH(43)
0020c3 93e0 07f6 	STS  _detector_value,R30
0020c5 93f0 07f7 	STS  _detector_value+1,R31
0020c7 9508      	RET
                 
                 ;OPTIMIZER ADDED SUBROUTINE, CALLED 2 TIMES, CODE SIZE REDUCTION:1 WORDS
                 SUBOPT_0x65:
0020c8 e2ec      	LDI  R30,LOW(44)
0020c9 e0f0      	LDI  R31,HIGH(44)
0020ca 93e0 07f6 	STS  _detector_value,R30
0020cc 93f0 07f7 	STS  _detector_value+1,R31
0020ce 9508      	RET
                 
                 ;OPTIMIZER ADDED SUBROUTINE, CALLED 2 TIMES, CODE SIZE REDUCTION:1 WORDS
                 SUBOPT_0x66:
0020cf e2ed      	LDI  R30,LOW(45)
0020d0 e0f0      	LDI  R31,HIGH(45)
0020d1 93e0 07f6 	STS  _detector_value,R30
0020d3 93f0 07f7 	STS  _detector_value+1,R31
0020d5 9508      	RET
                 
                 ;OPTIMIZER ADDED SUBROUTINE, CALLED 2 TIMES, CODE SIZE REDUCTION:1 WORDS
                 SUBOPT_0x67:
0020d6 e2ee      	LDI  R30,LOW(46)
0020d7 e0f0      	LDI  R31,HIGH(46)
0020d8 93e0 07f6 	STS  _detector_value,R30
0020da 93f0 07f7 	STS  _detector_value+1,R31
0020dc 9508      	RET
                 
                 ;OPTIMIZER ADDED SUBROUTINE, CALLED 2 TIMES, CODE SIZE REDUCTION:1 WORDS
                 SUBOPT_0x68:
0020dd e2ef      	LDI  R30,LOW(47)
0020de e0f0      	LDI  R31,HIGH(47)
0020df 93e0 07f6 	STS  _detector_value,R30
0020e1 93f0 07f7 	STS  _detector_value+1,R31
0020e3 9508      	RET
                 
                 ;OPTIMIZER ADDED SUBROUTINE, CALLED 2 TIMES, CODE SIZE REDUCTION:1 WORDS
                 SUBOPT_0x69:
0020e4 e3e0      	LDI  R30,LOW(48)
0020e5 e0f0      	LDI  R31,HIGH(48)
0020e6 93e0 07f6 	STS  _detector_value,R30
0020e8 93f0 07f7 	STS  _detector_value+1,R31
0020ea 9508      	RET
                 
                 ;OPTIMIZER ADDED SUBROUTINE, CALLED 2 TIMES, CODE SIZE REDUCTION:1 WORDS
                 SUBOPT_0x6A:
0020eb e3e1      	LDI  R30,LOW(49)
0020ec e0f0      	LDI  R31,HIGH(49)
0020ed 93e0 07f6 	STS  _detector_value,R30
0020ef 93f0 07f7 	STS  _detector_value+1,R31
0020f1 9508      	RET
                 
                 ;OPTIMIZER ADDED SUBROUTINE, CALLED 2 TIMES, CODE SIZE REDUCTION:1 WORDS
                 SUBOPT_0x6B:
0020f2 e3e2      	LDI  R30,LOW(50)
0020f3 e0f0      	LDI  R31,HIGH(50)
0020f4 93e0 07f6 	STS  _detector_value,R30
0020f6 93f0 07f7 	STS  _detector_value+1,R31
0020f8 9508      	RET
                 
                 ;OPTIMIZER ADDED SUBROUTINE, CALLED 2 TIMES, CODE SIZE REDUCTION:1 WORDS
                 SUBOPT_0x6C:
0020f9 e3e3      	LDI  R30,LOW(51)
0020fa e0f0      	LDI  R31,HIGH(51)
0020fb 93e0 07f6 	STS  _detector_value,R30
0020fd 93f0 07f7 	STS  _detector_value+1,R31
0020ff 9508      	RET
                 
                 ;OPTIMIZER ADDED SUBROUTINE, CALLED 2 TIMES, CODE SIZE REDUCTION:1 WORDS
                 SUBOPT_0x6D:
002100 e3e4      	LDI  R30,LOW(52)
002101 e0f0      	LDI  R31,HIGH(52)
002102 93e0 07f6 	STS  _detector_value,R30
002104 93f0 07f7 	STS  _detector_value+1,R31
002106 9508      	RET
                 
                 ;OPTIMIZER ADDED SUBROUTINE, CALLED 2 TIMES, CODE SIZE REDUCTION:1 WORDS
                 SUBOPT_0x6E:
002107 e3e5      	LDI  R30,LOW(53)
002108 e0f0      	LDI  R31,HIGH(53)
002109 93e0 07f6 	STS  _detector_value,R30
00210b 93f0 07f7 	STS  _detector_value+1,R31
00210d 9508      	RET
                 
                 ;OPTIMIZER ADDED SUBROUTINE, CALLED 2 TIMES, CODE SIZE REDUCTION:1 WORDS
                 SUBOPT_0x6F:
00210e e3e6      	LDI  R30,LOW(54)
00210f e0f0      	LDI  R31,HIGH(54)
002110 93e0 07f6 	STS  _detector_value,R30
002112 93f0 07f7 	STS  _detector_value+1,R31
002114 9508      	RET
                 
                 ;OPTIMIZER ADDED SUBROUTINE, CALLED 2 TIMES, CODE SIZE REDUCTION:1 WORDS
                 SUBOPT_0x70:
002115 e3e7      	LDI  R30,LOW(55)
002116 e0f0      	LDI  R31,HIGH(55)
002117 93e0 07f6 	STS  _detector_value,R30
002119 93f0 07f7 	STS  _detector_value+1,R31
00211b 9508      	RET
                 
                 ;OPTIMIZER ADDED SUBROUTINE, CALLED 2 TIMES, CODE SIZE REDUCTION:1 WORDS
                 SUBOPT_0x71:
00211c e3e8      	LDI  R30,LOW(56)
00211d e0f0      	LDI  R31,HIGH(56)
00211e 93e0 07f6 	STS  _detector_value,R30
002120 93f0 07f7 	STS  _detector_value+1,R31
002122 9508      	RET
                 
                 ;OPTIMIZER ADDED SUBROUTINE, CALLED 2 TIMES, CODE SIZE REDUCTION:1 WORDS
                 SUBOPT_0x72:
002123 e3e9      	LDI  R30,LOW(57)
002124 e0f0      	LDI  R31,HIGH(57)
002125 93e0 07f6 	STS  _detector_value,R30
002127 93f0 07f7 	STS  _detector_value+1,R31
002129 9508      	RET
                 
                 ;OPTIMIZER ADDED SUBROUTINE, CALLED 2 TIMES, CODE SIZE REDUCTION:1 WORDS
                 SUBOPT_0x73:
00212a e3ea      	LDI  R30,LOW(58)
00212b e0f0      	LDI  R31,HIGH(58)
00212c 93e0 07f6 	STS  _detector_value,R30
00212e 93f0 07f7 	STS  _detector_value+1,R31
002130 9508      	RET
                 
                 ;OPTIMIZER ADDED SUBROUTINE, CALLED 2 TIMES, CODE SIZE REDUCTION:1 WORDS
                 SUBOPT_0x74:
002131 e3eb      	LDI  R30,LOW(59)
002132 e0f0      	LDI  R31,HIGH(59)
002133 93e0 07f6 	STS  _detector_value,R30
002135 93f0 07f7 	STS  _detector_value+1,R31
002137 9508      	RET
                 
                 ;OPTIMIZER ADDED SUBROUTINE, CALLED 2 TIMES, CODE SIZE REDUCTION:1 WORDS
                 SUBOPT_0x75:
002138 e3ec      	LDI  R30,LOW(60)
002139 e0f0      	LDI  R31,HIGH(60)
00213a 93e0 07f6 	STS  _detector_value,R30
00213c 93f0 07f7 	STS  _detector_value+1,R31
00213e 9508      	RET
                 
                 ;OPTIMIZER ADDED SUBROUTINE, CALLED 2 TIMES, CODE SIZE REDUCTION:1 WORDS
                 SUBOPT_0x76:
00213f e4e0      	LDI  R30,LOW(64)
002140 e0f0      	LDI  R31,HIGH(64)
002141 93e0 07f6 	STS  _detector_value,R30
002143 93f0 07f7 	STS  _detector_value+1,R31
002145 9508      	RET
                 
                 ;OPTIMIZER ADDED SUBROUTINE, CALLED 7 TIMES, CODE SIZE REDUCTION:9 WORDS
                 SUBOPT_0x77:
002146 93e0 07f8 	STS  _detector_value_line,R30
002148 93f0 07f9 	STS  _detector_value_line+1,R31
00214a 9508      	RET
                 
                 ;OPTIMIZER ADDED SUBROUTINE, CALLED 22 TIMES, CODE SIZE REDUCTION:39 WORDS
                 SUBOPT_0x78:
00214b e3ec      	LDI  R30,LOW(60)
00214c e0f0      	LDI  R31,HIGH(60)
00214d 93fa      	ST   -Y,R31
00214e 93ea      	ST   -Y,R30
00214f 9508      	RET
                 
                 ;OPTIMIZER ADDED SUBROUTINE, CALLED 35 TIMES, CODE SIZE REDUCTION:65 WORDS
                 SUBOPT_0x79:
002150 93fa      	ST   -Y,R31
002151 93ea      	ST   -Y,R30
002152 ce10      	RJMP SUBOPT_0x34
                 
                 ;OPTIMIZER ADDED SUBROUTINE, CALLED 3 TIMES, CODE SIZE REDUCTION:5 WORDS
                 SUBOPT_0x7A:
002153 e3e2      	LDI  R30,LOW(50)
002154 e0f0      	LDI  R31,HIGH(50)
002155 93fa      	ST   -Y,R31
002156 93ea      	ST   -Y,R30
002157 cdf9      	RJMP SUBOPT_0x31
                 
                 ;OPTIMIZER ADDED SUBROUTINE, CALLED 16 TIMES, CODE SIZE REDUCTION:27 WORDS
                 SUBOPT_0x7B:
002158 e4e6      	LDI  R30,LOW(70)
002159 e0f0      	LDI  R31,HIGH(70)
00215a cff5      	RJMP SUBOPT_0x79
                 
                 ;OPTIMIZER ADDED SUBROUTINE, CALLED 3 TIMES, CODE SIZE REDUCTION:5 WORDS
                 SUBOPT_0x7C:
00215b e5ea      	LDI  R30,LOW(90)
00215c e0f0      	LDI  R31,HIGH(90)
00215d 93fa      	ST   -Y,R31
00215e 93ea      	ST   -Y,R30
00215f cdf1      	RJMP SUBOPT_0x31
                 
                 ;OPTIMIZER ADDED SUBROUTINE, CALLED 2 TIMES, CODE SIZE REDUCTION:1 WORDS
                 SUBOPT_0x7D:
002160 e4e6      	LDI  R30,LOW(70)
002161 e0f0      	LDI  R31,HIGH(70)
002162 93fa      	ST   -Y,R31
002163 93ea      	ST   -Y,R30
002164 cdf9      	RJMP SUBOPT_0x33
                 
                 ;OPTIMIZER ADDED SUBROUTINE, CALLED 6 TIMES, CODE SIZE REDUCTION:7 WORDS
                 SUBOPT_0x7E:
002165 e5ea      	LDI  R30,LOW(90)
002166 e0f0      	LDI  R31,HIGH(90)
002167 93fa      	ST   -Y,R31
002168 93ea      	ST   -Y,R30
002169 9508      	RET
                 
                 ;OPTIMIZER ADDED SUBROUTINE, CALLED 3 TIMES, CODE SIZE REDUCTION:1 WORDS
                 SUBOPT_0x7F:
00216a e5e5      	LDI  R30,LOW(85)
00216b e0f0      	LDI  R31,HIGH(85)
00216c cfe3      	RJMP SUBOPT_0x79
                 
                 ;OPTIMIZER ADDED SUBROUTINE, CALLED 11 TIMES, CODE SIZE REDUCTION:37 WORDS
                 SUBOPT_0x80:
00216d e4e6      	LDI  R30,LOW(70)
00216e e0f0      	LDI  R31,HIGH(70)
00216f 93fa      	ST   -Y,R31
002170 93ea      	ST   -Y,R30
002171 cddf      	RJMP SUBOPT_0x31
                 
                 ;OPTIMIZER ADDED SUBROUTINE, CALLED 2 TIMES, CODE SIZE REDUCTION:1 WORDS
                 SUBOPT_0x81:
002172 e5e5      	LDI  R30,LOW(85)
002173 e0f0      	LDI  R31,HIGH(85)
002174 93fa      	ST   -Y,R31
002175 93ea      	ST   -Y,R30
002176 cdda      	RJMP SUBOPT_0x31
                 
                 ;OPTIMIZER ADDED SUBROUTINE, CALLED 3 TIMES, CODE SIZE REDUCTION:1 WORDS
                 SUBOPT_0x82:
002177 93fa      	ST   -Y,R31
002178 93ea      	ST   -Y,R30
002179 cdd7      	RJMP SUBOPT_0x31
                 
                 ;OPTIMIZER ADDED SUBROUTINE, CALLED 3 TIMES, CODE SIZE REDUCTION:1 WORDS
                 SUBOPT_0x83:
00217a e5ea      	LDI  R30,LOW(90)
00217b e0f0      	LDI  R31,HIGH(90)
00217c cfd3      	RJMP SUBOPT_0x79
                 
                 ;OPTIMIZER ADDED SUBROUTINE, CALLED 4 TIMES, CODE SIZE REDUCTION:3 WORDS
                 SUBOPT_0x84:
00217d e2e3      	LDI  R30,LOW(35)
00217e e0f0      	LDI  R31,HIGH(35)
00217f 93fa      	ST   -Y,R31
002180 93ea      	ST   -Y,R30
002181 9508      	RET
                 
                 ;OPTIMIZER ADDED SUBROUTINE, CALLED 3 TIMES, CODE SIZE REDUCTION:1 WORDS
                 SUBOPT_0x85:
002182 e0a1      	LDI  R26,LOW(1)
002183 e0b0      	LDI  R27,0
002184 940c 03ec 	JMP  _movement
                 
                 ;OPTIMIZER ADDED SUBROUTINE, CALLED 3 TIMES, CODE SIZE REDUCTION:9 WORDS
                 SUBOPT_0x86:
002186 93fa      	ST   -Y,R31
002187 93ea      	ST   -Y,R30
002188 e1ee      	LDI  R30,LOW(30)
002189 e0f0      	LDI  R31,HIGH(30)
00218a 93fa      	ST   -Y,R31
00218b 93ea      	ST   -Y,R30
00218c cdc9      	RJMP SUBOPT_0x32
                 
                 ;OPTIMIZER ADDED SUBROUTINE, CALLED 5 TIMES, CODE SIZE REDUCTION:13 WORDS
                 SUBOPT_0x87:
00218d e2e8      	LDI  R30,LOW(40)
00218e e0f0      	LDI  R31,HIGH(40)
00218f 93fa      	ST   -Y,R31
002190 93ea      	ST   -Y,R30
002191 cdc4      	RJMP SUBOPT_0x32
                 
                 ;OPTIMIZER ADDED SUBROUTINE, CALLED 6 TIMES, CODE SIZE REDUCTION:47 WORDS
                 SUBOPT_0x88:
002192 e4a6      	LDI  R26,LOW(70)
002193 e0b0      	LDI  R27,0
002194 940e 22b0 	CALL _delay_ms
002196 e0ea      	LDI  R30,LOW(10)
002197 e0f0      	LDI  R31,HIGH(10)
002198 93fa      	ST   -Y,R31
002199 93ea      	ST   -Y,R30
00219a cfb5      	RJMP SUBOPT_0x79
                 
                 ;OPTIMIZER ADDED SUBROUTINE, CALLED 3 TIMES, CODE SIZE REDUCTION:5 WORDS
                 SUBOPT_0x89:
00219b e1ee      	LDI  R30,LOW(30)
00219c e0f0      	LDI  R31,HIGH(30)
00219d 93fa      	ST   -Y,R31
00219e 93ea      	ST   -Y,R30
00219f cfed      	RJMP SUBOPT_0x87
                 
                 ;OPTIMIZER ADDED SUBROUTINE, CALLED 4 TIMES, CODE SIZE REDUCTION:3 WORDS
                 SUBOPT_0x8A:
0021a0 940e 1d58 	CALL _lcd_puts
0021a2 cfef      	RJMP SUBOPT_0x88
                 
                 ;OPTIMIZER ADDED SUBROUTINE, CALLED 2 TIMES, CODE SIZE REDUCTION:1 WORDS
                 SUBOPT_0x8B:
0021a3 e2e8      	LDI  R30,LOW(40)
0021a4 e0f0      	LDI  R31,HIGH(40)
0021a5 93fa      	ST   -Y,R31
0021a6 93ea      	ST   -Y,R30
0021a7 cdc3      	RJMP SUBOPT_0x35
                 
                 ;OPTIMIZER ADDED SUBROUTINE, CALLED 3 TIMES, CODE SIZE REDUCTION:1 WORDS
                 SUBOPT_0x8C:
0021a8 e0a0      	LDI  R26,LOW(0)
0021a9 e0b0      	LDI  R27,0
0021aa 940c 03ec 	JMP  _movement
                 
                 ;OPTIMIZER ADDED SUBROUTINE, CALLED 2 TIMES, CODE SIZE REDUCTION:3 WORDS
                 SUBOPT_0x8D:
0021ac e0ea      	LDI  R30,LOW(10)
0021ad e0f0      	LDI  R31,HIGH(10)
0021ae 93fa      	ST   -Y,R31
0021af 93ea      	ST   -Y,R30
0021b0 cf9f      	RJMP SUBOPT_0x79
                 
                 ;OPTIMIZER ADDED SUBROUTINE, CALLED 5 TIMES, CODE SIZE REDUCTION:5 WORDS
                 SUBOPT_0x8E:
0021b1 e1ee      	LDI  R30,LOW(30)
0021b2 e0f0      	LDI  R31,HIGH(30)
0021b3 93fa      	ST   -Y,R31
0021b4 93ea      	ST   -Y,R30
0021b5 9508      	RET
                 
                 ;OPTIMIZER ADDED SUBROUTINE, CALLED 9 TIMES, CODE SIZE REDUCTION:13 WORDS
                 SUBOPT_0x8F:
0021b6 e3e2      	LDI  R30,LOW(50)
0021b7 e0f0      	LDI  R31,HIGH(50)
0021b8 93fa      	ST   -Y,R31
0021b9 93ea      	ST   -Y,R30
0021ba 9508      	RET
                 
                 ;OPTIMIZER ADDED SUBROUTINE, CALLED 3 TIMES, CODE SIZE REDUCTION:1 WORDS
                 SUBOPT_0x90:
0021bb eca8      	LDI  R26,LOW(200)
0021bc e0b0      	LDI  R27,0
0021bd 940c 22b0 	JMP  _delay_ms
                 
                 ;OPTIMIZER ADDED SUBROUTINE, CALLED 2 TIMES, CODE SIZE REDUCTION:1 WORDS
                 SUBOPT_0x91:
0021bf e4e6      	LDI  R30,LOW(70)
0021c0 e0f0      	LDI  R31,HIGH(70)
0021c1 93fa      	ST   -Y,R31
0021c2 93ea      	ST   -Y,R30
0021c3 e5e0      	LDI  R30,LOW(80)
0021c4 e0f0      	LDI  R31,HIGH(80)
0021c5 9508      	RET
                 
                 ;OPTIMIZER ADDED SUBROUTINE, CALLED 2 TIMES, CODE SIZE REDUCTION:2 WORDS
                 SUBOPT_0x92:
                +
0021c6 34a0     +CPI R26 , LOW ( 0x40 )
0021c7 e0e0     +LDI R30 , HIGH ( 0x40 )
0021c8 07be     +CPC R27 , R30
0021c9 e0e0     +LDI R30 , BYTE3 ( 0x40 )
0021ca 078e     +CPC R24 , R30
0021cb e0e0     +LDI R30 , BYTE4 ( 0x40 )
0021cc 079e     +CPC R25 , R30
                 	__CPD2N 0x40
0021cd 9508      	RET
                 
                 ;OPTIMIZER ADDED SUBROUTINE, CALLED 7 TIMES, CODE SIZE REDUCTION:27 WORDS
                 SUBOPT_0x93:
0021ce 940e 1d1c 	CALL _lcd_clear
0021d0 e0e0      	LDI  R30,LOW(0)
0021d1 93ea      	ST   -Y,R30
0021d2 e0a0      	LDI  R26,LOW(0)
0021d3 940c 1d08 	JMP  _lcd_gotoxy
                 
                 ;OPTIMIZER ADDED SUBROUTINE, CALLED 8 TIMES, CODE SIZE REDUCTION:11 WORDS
                 SUBOPT_0x94:
0021d5 e4e6      	LDI  R30,LOW(70)
0021d6 e0f0      	LDI  R31,HIGH(70)
0021d7 93fa      	ST   -Y,R31
0021d8 93ea      	ST   -Y,R30
0021d9 9508      	RET
                 
                 ;OPTIMIZER ADDED SUBROUTINE, CALLED 6 TIMES, CODE SIZE REDUCTION:57 WORDS
                 SUBOPT_0x95:
0021da edac      	LDI  R26,LOW(1500)
0021db e0b5      	LDI  R27,HIGH(1500)
0021dc 940e 22b0 	CALL _delay_ms
0021de 91e0 07e6 	LDS  R30,_wheelEncoderCounter_right
0021e0 91f0 07e7 	LDS  R31,_wheelEncoderCounter_right+1
0021e2 93e0 07fa 	STS  _wheelEncoderCounter_right_comp,R30
0021e4 93f0 07fb 	STS  _wheelEncoderCounter_right_comp+1,R31
0021e6 cfe7      	RJMP SUBOPT_0x93
                 
                 ;OPTIMIZER ADDED SUBROUTINE, CALLED 6 TIMES, CODE SIZE REDUCTION:7 WORDS
                 SUBOPT_0x96:
0021e7 91e0 07fa 	LDS  R30,_wheelEncoderCounter_right_comp
0021e9 91f0 07fb 	LDS  R31,_wheelEncoderCounter_right_comp+1
0021eb 9508      	RET
                 
                 ;OPTIMIZER ADDED SUBROUTINE, CALLED 5 TIMES, CODE SIZE REDUCTION:13 WORDS
                 SUBOPT_0x97:
0021ec dbde      	RCALL SUBOPT_0x1
0021ed 940e 23da 	CALL __CWD1
0021ef 940e 2439 	CALL __CPD21
0021f1 9508      	RET
                 
                 ;OPTIMIZER ADDED SUBROUTINE, CALLED 3 TIMES, CODE SIZE REDUCTION:5 WORDS
                 SUBOPT_0x98:
0021f2 dff4      	RCALL SUBOPT_0x96
0021f3 53e3      	SUBI R30,LOW(-205)
0021f4 4fff      	SBCI R31,HIGH(-205)
0021f5 cff6      	RJMP SUBOPT_0x97
                 
                 ;OPTIMIZER ADDED SUBROUTINE, CALLED 6 TIMES, CODE SIZE REDUCTION:7 WORDS
                 SUBOPT_0x99:
0021f6 91e0 07fc 	LDS  R30,_min_light
0021f8 91f0 07fd 	LDS  R31,_min_light+1
0021fa 9508      	RET
                 
                 ;OPTIMIZER ADDED SUBROUTINE, CALLED 8 TIMES, CODE SIZE REDUCTION:11 WORDS
                 SUBOPT_0x9A:
                +
0021fb 91a0 07d5+LDS R26 , _adc_data + ( 2 )
0021fd 91b0 07d6+LDS R27 , _adc_data + ( 2 ) + 1
                 	__GETW2MN _adc_data,2
0021ff 9508      	RET
                 
                 ;OPTIMIZER ADDED SUBROUTINE, CALLED 4 TIMES, CODE SIZE REDUCTION:9 WORDS
                 SUBOPT_0x9B:
002200 91e0 07ee 	LDS  R30,_newvalR
002202 91f0 07ef 	LDS  R31,_newvalR+1
002204 93fa      	ST   -Y,R31
002205 93ea      	ST   -Y,R30
002206 9508      	RET
                 
                 ;OPTIMIZER ADDED SUBROUTINE, CALLED 5 TIMES, CODE SIZE REDUCTION:21 WORDS
                 SUBOPT_0x9C:
002207 e0a2      	LDI  R26,LOW(_str)
002208 e0b7      	LDI  R27,HIGH(_str)
002209 940e 1ae2 	CALL _itoa
00220b e0a2      	LDI  R26,LOW(_str)
00220c e0b7      	LDI  R27,HIGH(_str)
00220d 940c 1d58 	JMP  _lcd_puts
                 
                 ;OPTIMIZER ADDED SUBROUTINE, CALLED 2 TIMES, CODE SIZE REDUCTION:5 WORDS
                 SUBOPT_0x9D:
00220f 940e 1d58 	CALL _lcd_puts
002211 91e0 07ea 	LDS  R30,_newvalL
002213 91f0 07eb 	LDS  R31,_newvalL+1
002215 93fa      	ST   -Y,R31
002216 93ea      	ST   -Y,R30
002217 cfef      	RJMP SUBOPT_0x9C
                 
                 ;OPTIMIZER ADDED SUBROUTINE, CALLED 4 TIMES, CODE SIZE REDUCTION:9 WORDS
                 SUBOPT_0x9E:
002218 dfdd      	RCALL SUBOPT_0x99
002219 59ec      	SUBI R30,LOW(-100)
00221a 4fff      	SBCI R31,HIGH(-100)
00221b 940e 23e4 	CALL __GTW12U
00221d 9508      	RET
                 
                 ;OPTIMIZER ADDED SUBROUTINE, CALLED 2 TIMES, CODE SIZE REDUCTION:2 WORDS
                 SUBOPT_0x9F:
00221e 2e0e      	MOV  R0,R30
                +
00221f 91a0 07d9+LDS R26 , _adc_data + ( 6 )
002221 91b0 07da+LDS R27 , _adc_data + ( 6 ) + 1
                 	__GETW2MN _adc_data,6
002223 cff4      	RJMP SUBOPT_0x9E
                 
                 ;OPTIMIZER ADDED SUBROUTINE, CALLED 2 TIMES, CODE SIZE REDUCTION:12 WORDS
                 SUBOPT_0xA0:
002224 93e0 07ea 	STS  _newvalL,R30
002226 93f0 07eb 	STS  _newvalL+1,R31
002228 9360 07ec 	STS  _newvalL+2,R22
00222a 9370 07ed 	STS  _newvalL+3,R23
00222c e0e0      	LDI  R30,LOW(0)
00222d 93e0 07ee 	STS  _newvalR,R30
00222f 93e0 07ef 	STS  _newvalR+1,R30
002231 93e0 07f0 	STS  _newvalR+2,R30
002233 93e0 07f1 	STS  _newvalR+3,R30
002235 9508      	RET
                 
                 ;OPTIMIZER ADDED SUBROUTINE, CALLED 3 TIMES, CODE SIZE REDUCTION:11 WORDS
                 SUBOPT_0xA1:
002236 e0e0      	LDI  R30,LOW(0)
002237 93e0 07ea 	STS  _newvalL,R30
002239 93e0 07eb 	STS  _newvalL+1,R30
00223b 93e0 07ec 	STS  _newvalL+2,R30
00223d 93e0 07ed 	STS  _newvalL+3,R30
00223f 9508      	RET
                 
                 ;OPTIMIZER ADDED SUBROUTINE, CALLED 2 TIMES, CODE SIZE REDUCTION:3 WORDS
                 SUBOPT_0xA2:
002240 93e0 07ee 	STS  _newvalR,R30
002242 93f0 07ef 	STS  _newvalR+1,R31
002244 9360 07f0 	STS  _newvalR+2,R22
002246 9370 07f1 	STS  _newvalR+3,R23
002248 9508      	RET
                 
                 ;OPTIMIZER ADDED SUBROUTINE, CALLED 23 TIMES, CODE SIZE REDUCTION:63 WORDS
                 SUBOPT_0xA3:
002249 91e0 06fa 	LDS  R30,_state_info
00224b 91f0 06fb 	LDS  R31,_state_info+1
00224d 9730      	SBIW R30,0
00224e 9508      	RET
                 
                 ;OPTIMIZER ADDED SUBROUTINE, CALLED 23 TIMES, CODE SIZE REDUCTION:85 WORDS
                 SUBOPT_0xA4:
00224f e0e1      	LDI  R30,LOW(1)
002250 e0f0      	LDI  R31,HIGH(1)
002251 93e0 06fa 	STS  _state_info,R30
002253 93f0 06fb 	STS  _state_info+1,R31
002255 9508      	RET
                 
                 ;OPTIMIZER ADDED SUBROUTINE, CALLED 3 TIMES, CODE SIZE REDUCTION:3 WORDS
                 SUBOPT_0xA5:
002256 940e 1d7a 	CALL __long_delay_G104
002258 e3a0      	LDI  R26,LOW(48)
002259 940c 1d7f 	JMP  __lcd_init_write_G104
                 
                 ;OPTIMIZER ADDED SUBROUTINE, CALLED 3 TIMES, CODE SIZE REDUCTION:1 WORDS
                 SUBOPT_0xA6:
00225b 940e 1ce7 	CALL __lcd_write_data
00225d 940c 1d7a 	JMP  __long_delay_G104
                 
                 
                 	.CSEG
                 	.equ __sda_bit=5
                 	.equ __scl_bit=3
                 	.equ __i2c_port=0x18 ;PORTB
                 	.equ __i2c_dir=__i2c_port-1
                 	.equ __i2c_pin=__i2c_port-2
                 
                 _i2c_init:
00225f 98c3      	cbi  __i2c_port,__scl_bit
002260 98c5      	cbi  __i2c_port,__sda_bit
002261 9abb      	sbi  __i2c_dir,__scl_bit
002262 98bd      	cbi  __i2c_dir,__sda_bit
002263 c015      	rjmp __i2c_delay2
                 _i2c_start:
002264 98bd      	cbi  __i2c_dir,__sda_bit
002265 98bb      	cbi  __i2c_dir,__scl_bit
002266 27ee      	clr  r30
002267 0000      	nop
002268 9bb5      	sbis __i2c_pin,__sda_bit
002269 9508      	ret
00226a 9bb3      	sbis __i2c_pin,__scl_bit
00226b 9508      	ret
00226c d004      	rcall __i2c_delay1
00226d 9abd      	sbi  __i2c_dir,__sda_bit
00226e d002      	rcall __i2c_delay1
00226f 9abb      	sbi  __i2c_dir,__scl_bit
002270 e0e1      	ldi  r30,1
                 __i2c_delay1:
002271 e16b      	ldi  r22,27
002272 c007      	rjmp __i2c_delay2l
                 _i2c_stop:
002273 9abd      	sbi  __i2c_dir,__sda_bit
002274 9abb      	sbi  __i2c_dir,__scl_bit
002275 d003      	rcall __i2c_delay2
002276 98bb      	cbi  __i2c_dir,__scl_bit
002277 dff9      	rcall __i2c_delay1
002278 98bd      	cbi  __i2c_dir,__sda_bit
                 __i2c_delay2:
002279 e365      	ldi  r22,53
                 __i2c_delay2l:
00227a 956a      	dec  r22
00227b f7f1      	brne __i2c_delay2l
00227c 9508      	ret
                 _i2c_read:
00227d e078      	ldi  r23,8
                 __i2c_read0:
00227e 98bb      	cbi  __i2c_dir,__scl_bit
00227f dff1      	rcall __i2c_delay1
                 __i2c_read3:
002280 9bb3      	sbis __i2c_pin,__scl_bit
002281 cffe      	rjmp __i2c_read3
002282 dfee      	rcall __i2c_delay1
002283 9488      	clc
002284 99b5      	sbic __i2c_pin,__sda_bit
002285 9408      	sec
002286 9abb      	sbi  __i2c_dir,__scl_bit
002287 dff1      	rcall __i2c_delay2
002288 1fee      	rol  r30
002289 957a      	dec  r23
00228a f799      	brne __i2c_read0
00228b 2f7a      	mov  r23,r26
00228c 2377      	tst  r23
00228d f411      	brne __i2c_read1
00228e 98bd      	cbi  __i2c_dir,__sda_bit
00228f c001      	rjmp __i2c_read2
                 __i2c_read1:
002290 9abd      	sbi  __i2c_dir,__sda_bit
                 __i2c_read2:
002291 dfdf      	rcall __i2c_delay1
002292 98bb      	cbi  __i2c_dir,__scl_bit
002293 dfe5      	rcall __i2c_delay2
002294 9abb      	sbi  __i2c_dir,__scl_bit
002295 dfdb      	rcall __i2c_delay1
002296 98bd      	cbi  __i2c_dir,__sda_bit
002297 cfd9      	rjmp __i2c_delay1
                 
                 _i2c_write:
002298 e078      	ldi  r23,8
                 __i2c_write0:
002299 0faa      	lsl  r26
00229a f410      	brcc __i2c_write1
00229b 98bd      	cbi  __i2c_dir,__sda_bit
00229c c001      	rjmp __i2c_write2
                 __i2c_write1:
00229d 9abd      	sbi  __i2c_dir,__sda_bit
                 __i2c_write2:
00229e dfda      	rcall __i2c_delay2
00229f 98bb      	cbi  __i2c_dir,__scl_bit
0022a0 dfd0      	rcall __i2c_delay1
                 __i2c_write3:
0022a1 9bb3      	sbis __i2c_pin,__scl_bit
0022a2 cffe      	rjmp __i2c_write3
0022a3 dfcd      	rcall __i2c_delay1
0022a4 9abb      	sbi  __i2c_dir,__scl_bit
0022a5 957a      	dec  r23
0022a6 f791      	brne __i2c_write0
0022a7 98bd      	cbi  __i2c_dir,__sda_bit
0022a8 dfc8      	rcall __i2c_delay1
0022a9 98bb      	cbi  __i2c_dir,__scl_bit
0022aa dfce      	rcall __i2c_delay2
0022ab e0e1      	ldi  r30,1
0022ac 99b5      	sbic __i2c_pin,__sda_bit
0022ad 27ee      	clr  r30
0022ae 9abb      	sbi  __i2c_dir,__scl_bit
0022af cfc1      	rjmp __i2c_delay1
                 
                 _delay_ms:
0022b0 9610      	adiw r26,0
0022b1 f039      	breq __delay_ms1
                 __delay_ms0:
                +
0022b2 ea80     +LDI R24 , LOW ( 0xFA0 )
0022b3 e09f     +LDI R25 , HIGH ( 0xFA0 )
                +__DELAY_USW_LOOP :
0022b4 9701     +SBIW R24 , 1
0022b5 f7f1     +BRNE __DELAY_USW_LOOP
                 	__DELAY_USW 0xFA0
0022b6 95a8      	wdr
0022b7 9711      	sbiw r26,1
0022b8 f7c9      	brne __delay_ms0
                 __delay_ms1:
0022b9 9508      	ret
                 
                 __ROUND_REPACK:
0022ba 2355      	TST  R21
0022bb f442      	BRPL __REPACK
0022bc 3850      	CPI  R21,0x80
0022bd f411      	BRNE __ROUND_REPACK0
0022be ffe0      	SBRS R30,0
0022bf c004      	RJMP __REPACK
                 __ROUND_REPACK0:
0022c0 9631      	ADIW R30,1
0022c1 1f69      	ADC  R22,R25
0022c2 1f79      	ADC  R23,R25
0022c3 f06b      	BRVS __REPACK1
                 
                 __REPACK:
0022c4 e850      	LDI  R21,0x80
0022c5 2757      	EOR  R21,R23
0022c6 f411      	BRNE __REPACK0
0022c7 935f      	PUSH R21
0022c8 c073      	RJMP __ZERORES
                 __REPACK0:
0022c9 3f5f      	CPI  R21,0xFF
0022ca f031      	BREQ __REPACK1
0022cb 0f66      	LSL  R22
0022cc 0c00      	LSL  R0
0022cd 9557      	ROR  R21
0022ce 9567      	ROR  R22
0022cf 2f75      	MOV  R23,R21
0022d0 9508      	RET
                 __REPACK1:
0022d1 935f      	PUSH R21
0022d2 2000      	TST  R0
0022d3 f00a      	BRMI __REPACK2
0022d4 c073      	RJMP __MAXRES
                 __REPACK2:
0022d5 c06c      	RJMP __MINRES
                 
                 __UNPACK:
0022d6 e850      	LDI  R21,0x80
0022d7 2e19      	MOV  R1,R25
0022d8 2215      	AND  R1,R21
0022d9 0f88      	LSL  R24
0022da 1f99      	ROL  R25
0022db 2795      	EOR  R25,R21
0022dc 0f55      	LSL  R21
0022dd 9587      	ROR  R24
                 
                 __UNPACK1:
0022de e850      	LDI  R21,0x80
0022df 2e07      	MOV  R0,R23
0022e0 2205      	AND  R0,R21
0022e1 0f66      	LSL  R22
0022e2 1f77      	ROL  R23
0022e3 2775      	EOR  R23,R21
0022e4 0f55      	LSL  R21
0022e5 9567      	ROR  R22
0022e6 9508      	RET
                 
                 __CFD1U:
0022e7 9468      	SET
0022e8 c001      	RJMP __CFD1U0
                 __CFD1:
0022e9 94e8      	CLT
                 __CFD1U0:
0022ea 935f      	PUSH R21
0022eb dff2      	RCALL __UNPACK1
0022ec 3870      	CPI  R23,0x80
0022ed f018      	BRLO __CFD10
0022ee 3f7f      	CPI  R23,0xFF
0022ef f408      	BRCC __CFD10
0022f0 c04b      	RJMP __ZERORES
                 __CFD10:
0022f1 e156      	LDI  R21,22
0022f2 1b57      	SUB  R21,R23
0022f3 f4aa      	BRPL __CFD11
0022f4 9551      	NEG  R21
0022f5 3058      	CPI  R21,8
0022f6 f40e      	BRTC __CFD19
0022f7 3059      	CPI  R21,9
                 __CFD19:
0022f8 f030      	BRLO __CFD17
0022f9 efef      	SER  R30
0022fa efff      	SER  R31
0022fb ef6f      	SER  R22
0022fc e77f      	LDI  R23,0x7F
0022fd f977      	BLD  R23,7
0022fe c01a      	RJMP __CFD15
                 __CFD17:
0022ff 2777      	CLR  R23
002300 2355      	TST  R21
002301 f0b9      	BREQ __CFD15
                 __CFD18:
002302 0fee      	LSL  R30
002303 1fff      	ROL  R31
002304 1f66      	ROL  R22
002305 1f77      	ROL  R23
002306 955a      	DEC  R21
002307 f7d1      	BRNE __CFD18
002308 c010      	RJMP __CFD15
                 __CFD11:
002309 2777      	CLR  R23
                 __CFD12:
00230a 3058      	CPI  R21,8
00230b f028      	BRLO __CFD13
00230c 2fef      	MOV  R30,R31
00230d 2ff6      	MOV  R31,R22
00230e 2f67      	MOV  R22,R23
00230f 5058      	SUBI R21,8
002310 cff9      	RJMP __CFD12
                 __CFD13:
002311 2355      	TST  R21
002312 f031      	BREQ __CFD15
                 __CFD14:
002313 9576      	LSR  R23
002314 9567      	ROR  R22
002315 95f7      	ROR  R31
002316 95e7      	ROR  R30
002317 955a      	DEC  R21
002318 f7d1      	BRNE __CFD14
                 __CFD15:
002319 2000      	TST  R0
00231a f40a      	BRPL __CFD16
00231b d09b      	RCALL __ANEGD1
                 __CFD16:
00231c 915f      	POP  R21
00231d 9508      	RET
                 
                 __CDF1U:
00231e 9468      	SET
00231f c001      	RJMP __CDF1U0
                 __CDF1:
002320 94e8      	CLT
                 __CDF1U0:
002321 9730      	SBIW R30,0
002322 4060      	SBCI R22,0
002323 4070      	SBCI R23,0
002324 f0b1      	BREQ __CDF10
002325 2400      	CLR  R0
002326 f026      	BRTS __CDF11
002327 2377      	TST  R23
002328 f412      	BRPL __CDF11
002329 9400      	COM  R0
00232a d08c      	RCALL __ANEGD1
                 __CDF11:
00232b 2e17      	MOV  R1,R23
00232c e17e      	LDI  R23,30
00232d 2011      	TST  R1
                 __CDF12:
00232e f032      	BRMI __CDF13
00232f 957a      	DEC  R23
002330 0fee      	LSL  R30
002331 1fff      	ROL  R31
002332 1f66      	ROL  R22
002333 1c11      	ROL  R1
002334 cff9      	RJMP __CDF12
                 __CDF13:
002335 2fef      	MOV  R30,R31
002336 2ff6      	MOV  R31,R22
002337 2d61      	MOV  R22,R1
002338 935f      	PUSH R21
002339 df8a      	RCALL __REPACK
00233a 915f      	POP  R21
                 __CDF10:
00233b 9508      	RET
                 
                 __ZERORES:
00233c 27ee      	CLR  R30
00233d 27ff      	CLR  R31
00233e 2766      	CLR  R22
00233f 2777      	CLR  R23
002340 915f      	POP  R21
002341 9508      	RET
                 
                 __MINRES:
002342 efef      	SER  R30
002343 efff      	SER  R31
002344 e76f      	LDI  R22,0x7F
002345 ef7f      	SER  R23
002346 915f      	POP  R21
002347 9508      	RET
                 
                 __MAXRES:
002348 efef      	SER  R30
002349 efff      	SER  R31
00234a e76f      	LDI  R22,0x7F
00234b e77f      	LDI  R23,0x7F
00234c 915f      	POP  R21
00234d 9508      	RET
                 
                 __DIVF21:
00234e 935f      	PUSH R21
00234f df86      	RCALL __UNPACK
002350 3870      	CPI  R23,0x80
002351 f421      	BRNE __DIVF210
002352 2011      	TST  R1
                 __DIVF211:
002353 f40a      	BRPL __DIVF219
002354 cfed      	RJMP __MINRES
                 __DIVF219:
002355 cff2      	RJMP __MAXRES
                 __DIVF210:
002356 3890      	CPI  R25,0x80
002357 f409      	BRNE __DIVF218
                 __DIVF217:
002358 cfe3      	RJMP __ZERORES
                 __DIVF218:
002359 2401      	EOR  R0,R1
00235a 9408      	SEC
00235b 0b97      	SBC  R25,R23
00235c f41b      	BRVC __DIVF216
00235d f3d4      	BRLT __DIVF217
00235e 2000      	TST  R0
00235f cff3      	RJMP __DIVF211
                 __DIVF216:
002360 2f79      	MOV  R23,R25
002361 931f      	PUSH R17
002362 932f      	PUSH R18
002363 933f      	PUSH R19
002364 934f      	PUSH R20
002365 2411      	CLR  R1
002366 2711      	CLR  R17
002367 2722      	CLR  R18
002368 2733      	CLR  R19
002369 2744      	CLR  R20
00236a 2755      	CLR  R21
00236b e290      	LDI  R25,32
                 __DIVF212:
00236c 17ae      	CP   R26,R30
00236d 07bf      	CPC  R27,R31
00236e 0786      	CPC  R24,R22
00236f 0741      	CPC  R20,R17
002370 f030      	BRLO __DIVF213
002371 1bae      	SUB  R26,R30
002372 0bbf      	SBC  R27,R31
002373 0b86      	SBC  R24,R22
002374 0b41      	SBC  R20,R17
002375 9408      	SEC
002376 c001      	RJMP __DIVF214
                 __DIVF213:
002377 9488      	CLC
                 __DIVF214:
002378 1f55      	ROL  R21
002379 1f22      	ROL  R18
00237a 1f33      	ROL  R19
00237b 1c11      	ROL  R1
00237c 1faa      	ROL  R26
00237d 1fbb      	ROL  R27
00237e 1f88      	ROL  R24
00237f 1f44      	ROL  R20
002380 959a      	DEC  R25
002381 f751      	BRNE __DIVF212
002382 01f9      	MOVW R30,R18
002383 2d61      	MOV  R22,R1
002384 914f      	POP  R20
002385 913f      	POP  R19
002386 912f      	POP  R18
002387 911f      	POP  R17
002388 2366      	TST  R22
002389 f032      	BRMI __DIVF215
00238a 0f55      	LSL  R21
00238b 1fee      	ROL  R30
00238c 1fff      	ROL  R31
00238d 1f66      	ROL  R22
00238e 957a      	DEC  R23
00238f f243      	BRVS __DIVF217
                 __DIVF215:
002390 df29      	RCALL __ROUND_REPACK
002391 915f      	POP  R21
002392 9508      	RET
                 
                 __CMPF12:
002393 2399      	TST  R25
002394 f09a      	BRMI __CMPF120
002395 2377      	TST  R23
002396 f042      	BRMI __CMPF121
002397 1797      	CP   R25,R23
002398 f048      	BRLO __CMPF122
002399 f429      	BRNE __CMPF121
00239a 17ae      	CP   R26,R30
00239b 07bf      	CPC  R27,R31
00239c 0786      	CPC  R24,R22
00239d f020      	BRLO __CMPF122
00239e f031      	BREQ __CMPF123
                 __CMPF121:
00239f 9498      	CLZ
0023a0 9488      	CLC
0023a1 9508      	RET
                 __CMPF122:
0023a2 9498      	CLZ
0023a3 9408      	SEC
0023a4 9508      	RET
                 __CMPF123:
0023a5 9418      	SEZ
0023a6 9488      	CLC
0023a7 9508      	RET
                 __CMPF120:
0023a8 2377      	TST  R23
0023a9 f7c2      	BRPL __CMPF122
0023aa 1797      	CP   R25,R23
0023ab f398      	BRLO __CMPF121
0023ac f7a9      	BRNE __CMPF122
0023ad 17ea      	CP   R30,R26
0023ae 07fb      	CPC  R31,R27
0023af 0768      	CPC  R22,R24
0023b0 f388      	BRLO __CMPF122
0023b1 f399      	BREQ __CMPF123
0023b2 cfec      	RJMP __CMPF121
                 
                 __ANEGW1:
0023b3 95f1      	NEG  R31
0023b4 95e1      	NEG  R30
0023b5 40f0      	SBCI R31,0
0023b6 9508      	RET
                 
                 __ANEGD1:
0023b7 95f0      	COM  R31
0023b8 9560      	COM  R22
0023b9 9570      	COM  R23
0023ba 95e1      	NEG  R30
0023bb 4fff      	SBCI R31,-1
0023bc 4f6f      	SBCI R22,-1
0023bd 4f7f      	SBCI R23,-1
0023be 9508      	RET
                 
                 __LSRW12:
0023bf 23ee      	TST  R30
0023c0 2e0e      	MOV  R0,R30
0023c1 01fd      	MOVW R30,R26
0023c2 f021      	BREQ __LSRW12R
                 __LSRW12L:
0023c3 95f6      	LSR  R31
0023c4 95e7      	ROR  R30
0023c5 940a      	DEC  R0
0023c6 f7e1      	BRNE __LSRW12L
                 __LSRW12R:
0023c7 9508      	RET
                 
                 __LSLW4:
0023c8 0fee      	LSL  R30
0023c9 1fff      	ROL  R31
                 __LSLW3:
0023ca 0fee      	LSL  R30
0023cb 1fff      	ROL  R31
                 __LSLW2:
0023cc 0fee      	LSL  R30
0023cd 1fff      	ROL  R31
0023ce 0fee      	LSL  R30
0023cf 1fff      	ROL  R31
0023d0 9508      	RET
                 
                 __LSRW4:
0023d1 95f6      	LSR  R31
0023d2 95e7      	ROR  R30
                 __LSRW3:
0023d3 95f6      	LSR  R31
0023d4 95e7      	ROR  R30
                 __LSRW2:
0023d5 95f6      	LSR  R31
0023d6 95e7      	ROR  R30
0023d7 95f6      	LSR  R31
0023d8 95e7      	ROR  R30
0023d9 9508      	RET
                 
                 __CWD1:
0023da 2f6f      	MOV  R22,R31
0023db 0f66      	ADD  R22,R22
0023dc 0b66      	SBC  R22,R22
0023dd 2f76      	MOV  R23,R22
0023de 9508      	RET
                 
                 __LTB12U:
0023df 17ae      	CP   R26,R30
0023e0 e0e1      	LDI  R30,1
0023e1 f008      	BRLO __LTB12U1
0023e2 27ee      	CLR  R30
                 __LTB12U1:
0023e3 9508      	RET
                 
                 __GTW12U:
0023e4 17ea      	CP   R30,R26
0023e5 07fb      	CPC  R31,R27
0023e6 e0e1      	LDI  R30,1
0023e7 f008      	BRLO __GTW12UT
0023e8 27ee      	CLR  R30
                 __GTW12UT:
0023e9 9508      	RET
                 
                 __GED12:
0023ea 17ae      	CP   R26,R30
0023eb 07bf      	CPC  R27,R31
0023ec 0786      	CPC  R24,R22
0023ed 0797      	CPC  R25,R23
0023ee e0e1      	LDI  R30,1
0023ef f40c      	BRGE __GED12T
0023f0 27ee      	CLR  R30
                 __GED12T:
0023f1 9508      	RET
                 
                 __LTD12:
0023f2 17ae      	CP   R26,R30
0023f3 07bf      	CPC  R27,R31
0023f4 0786      	CPC  R24,R22
0023f5 0797      	CPC  R25,R23
0023f6 e0e1      	LDI  R30,1
0023f7 f00c      	BRLT __LTD12T
0023f8 27ee      	CLR  R30
                 __LTD12T:
0023f9 9508      	RET
                 
                 __GTD12:
0023fa 17ea      	CP   R30,R26
0023fb 07fb      	CPC  R31,R27
0023fc 0768      	CPC  R22,R24
0023fd 0779      	CPC  R23,R25
0023fe e0e1      	LDI  R30,1
0023ff f00c      	BRLT __GTD12T
002400 27ee      	CLR  R30
                 __GTD12T:
002401 9508      	RET
                 
                 __LNEGW1:
002402 2bef      	OR   R30,R31
002403 e0e1      	LDI  R30,1
002404 f009      	BREQ __LNEGW1F
002405 e0e0      	LDI  R30,0
                 __LNEGW1F:
002406 9508      	RET
                 
                 __MULW12U:
002407 9ffa      	MUL  R31,R26
002408 2df0      	MOV  R31,R0
002409 9feb      	MUL  R30,R27
00240a 0df0      	ADD  R31,R0
00240b 9fea      	MUL  R30,R26
00240c 2de0      	MOV  R30,R0
00240d 0df1      	ADD  R31,R1
00240e 9508      	RET
                 
                 __MULW12:
00240f d004      	RCALL __CHKSIGNW
002410 dff6      	RCALL __MULW12U
002411 f40e      	BRTC __MULW121
002412 dfa0      	RCALL __ANEGW1
                 __MULW121:
002413 9508      	RET
                 
                 __CHKSIGNW:
002414 94e8      	CLT
002415 fff7      	SBRS R31,7
002416 c002      	RJMP __CHKSW1
002417 df9b      	RCALL __ANEGW1
002418 9468      	SET
                 __CHKSW1:
002419 ffb7      	SBRS R27,7
00241a c006      	RJMP __CHKSW2
00241b 95a0      	COM  R26
00241c 95b0      	COM  R27
00241d 9611      	ADIW R26,1
00241e f800      	BLD  R0,0
00241f 9403      	INC  R0
002420 fa00      	BST  R0,0
                 __CHKSW2:
002421 9508      	RET
                 
                 __GETW1P:
002422 91ed      	LD   R30,X+
002423 91fc      	LD   R31,X
002424 9711      	SBIW R26,1
002425 9508      	RET
                 
                 __GETD1P_INC:
002426 91ed      	LD   R30,X+
002427 91fd      	LD   R31,X+
002428 916d      	LD   R22,X+
002429 917d      	LD   R23,X+
00242a 9508      	RET
                 
                 __PUTDP1_DEC:
00242b 937e      	ST   -X,R23
00242c 936e      	ST   -X,R22
00242d 93fe      	ST   -X,R31
00242e 93ee      	ST   -X,R30
00242f 9508      	RET
                 
                 __CPW02:
002430 2400      	CLR  R0
002431 160a      	CP   R0,R26
002432 060b      	CPC  R0,R27
002433 9508      	RET
                 
                 __CPD12:
002434 17ea      	CP   R30,R26
002435 07fb      	CPC  R31,R27
002436 0768      	CPC  R22,R24
002437 0779      	CPC  R23,R25
002438 9508      	RET
                 
                 __CPD21:
002439 17ae      	CP   R26,R30
00243a 07bf      	CPC  R27,R31
00243b 0786      	CPC  R24,R22
00243c 0797      	CPC  R25,R23
00243d 9508      	RET
                 
                 __SAVELOCR6:
00243e 935a      	ST   -Y,R21
                 __SAVELOCR5:
00243f 934a      	ST   -Y,R20
                 __SAVELOCR4:
002440 933a      	ST   -Y,R19
                 __SAVELOCR3:
002441 932a      	ST   -Y,R18
                 __SAVELOCR2:
002442 931a      	ST   -Y,R17
002443 930a      	ST   -Y,R16
002444 9508      	RET
                 
                 __LOADLOCR6:
002445 815d      	LDD  R21,Y+5
                 __LOADLOCR5:
002446 814c      	LDD  R20,Y+4
                 __LOADLOCR4:
002447 813b      	LDD  R19,Y+3
                 __LOADLOCR3:
002448 812a      	LDD  R18,Y+2
                 __LOADLOCR2:
002449 8119      	LDD  R17,Y+1
00244a 8108      	LD   R16,Y
00244b 9508      	RET
                 
                 ;END OF CODE MARKER
                 __END_OF_CODE:


RESOURCE USE INFORMATION
------------------------

Notice:
The register and instruction counts are symbol table hit counts,
and hence implicitly used resources are not counted, eg, the
'lpm' instruction without operands implicitly uses r0 and z,
none of which are counted.

x,y,z are separate entities in the symbol table and are
counted separately from r26..r31 here.

.dseg memory usage only counts static data declared with .byte

ATmega128 register use summary:
r0 :  45 r1 :  15 r2 :  20 r3 :   0 r4 :   4 r5 :   1 r6 :   0 r7 :   0 
r8 :   0 r9 :   0 r10:   0 r11:   0 r12:   0 r13:   0 r14:   0 r15:   2 
r16:  33 r17:  63 r18:  26 r19:  13 r20:  12 r21:  42 r22:  96 r23:  79 
r24:  48 r25:  34 r26: 753 r27: 259 r28:  20 r29:   1 r30:1341 r31: 758 
x  :  48 y  : 306 z  :  10 
Registers used: 25 out of 35 (71.4%)

ATmega128 instruction use summary:
.lds  :   0 .lds.l:   0 .sts  :   0 .sts.l:   0 adc   :  15 add   :  17 
adiw  :  25 and   :   4 andi  :  35 asr   :   0 bclr  :   0 bld   :  14 
brbc  :   0 brbs  :   0 brcc  :   3 brcs  :   0 break :   0 breq  :  53 
brge  :  19 brhc  :   0 brhs  :   0 brid  :   0 brie  :   0 brlo  :  23 
brlt  :  19 brmi  :   5 brne  : 290 brpl  :   7 brsh  :  19 brtc  :   2 
brts  :   3 brvc  :   1 brvs  :   2 bset  :   0 bst   :   1 call  : 992 
cbi   :  40 cbr   :   0 clc   :   4 clh   :   0 cli   :   2 cln   :   0 
clr   :  30 cls   :   0 clt   :  10 clv   :   0 clz   :   2 com   :  10 
cp    :  33 cpc   : 216 cpi   : 246 cpse  :   0 dec   :  13 des   :   0 
elpm  :   0 eor   :   5 fmul  :   0 fmuls :   0 fmulsu:   0 icall :   4 
ijmp  :   0 in    :  16 inc   :   2 jmp   :  65 ld    :  82 ldd   :  36 
ldi   :1151 lds   : 248 lpm   :   9 lsl   :  25 lsr   :   6 mov   :  41 
movw  :  51 mul   :   3 muls  :   6 mulsu :   0 neg   :   4 nop   :   1 
or    :   7 ori   :  20 out   :  51 pop   :  14 push  :  13 rcall :  71 
ret   : 209 reti  :   6 rjmp  :1198 rol   :  34 ror   :  12 sbc   :   7 
sbci  :  28 sbi   :  38 sbic  : 380 sbis  : 368 sbiw  :  40 sbr   :   0 
sbrc  :   4 sbrs  :   8 sec   :   4 seh   :   0 sei   :   2 sen   :   0 
ser   :   9 ses   :   0 set   :  12 sev   :   0 sez   :   1 sleep :   0 
spm   :   0 st    : 234 std   :   4 sts   : 363 sub   :   4 subi  :  43 
swap  :   2 tst   :  16 wdr   :   1 
Instructions used: 82 out of 117 (70.1%)

ATmega128 memory use summary [bytes]:
Segment   Begin    End      Code   Data   Used    Size   Use%
---------------------------------------------------------------
[.cseg] 0x000000 0x004898  17560   1024  18584  131072  14.2%
[.dseg] 0x000100 0x000815      0    789    789    4096  19.3%
[.eseg] 0x000000 0x000000      0      0      0    4096   0.0%

Assembly complete, 0 errors, 21 warnings
