
AVRASM ver. 2.1.30  C:\Users\Viktor\Documents\Projekte\Bluematics Robby\BlueMatics-Robby\Roboterprojekt-avr\Debug\List\project.asm Tue Jan 02 16:03:45 2018

C:\Users\Viktor\Documents\Projekte\Bluematics Robby\BlueMatics-Robby\Roboterprojekt-avr\Debug\List\project.asm(1090): warning: Register r4 already defined by the .DEF directive
C:\Users\Viktor\Documents\Projekte\Bluematics Robby\BlueMatics-Robby\Roboterprojekt-avr\Debug\List\project.asm(1091): warning: Register r5 already defined by the .DEF directive
C:\Users\Viktor\Documents\Projekte\Bluematics Robby\BlueMatics-Robby\Roboterprojekt-avr\Debug\List\project.asm(1092): warning: Register r6 already defined by the .DEF directive
C:\Users\Viktor\Documents\Projekte\Bluematics Robby\BlueMatics-Robby\Roboterprojekt-avr\Debug\List\project.asm(1093): warning: Register r7 already defined by the .DEF directive
C:\Users\Viktor\Documents\Projekte\Bluematics Robby\BlueMatics-Robby\Roboterprojekt-avr\Debug\List\project.asm(1094): warning: Register r8 already defined by the .DEF directive
C:\Users\Viktor\Documents\Projekte\Bluematics Robby\BlueMatics-Robby\Roboterprojekt-avr\Debug\List\project.asm(1095): warning: Register r9 already defined by the .DEF directive
C:\Users\Viktor\Documents\Projekte\Bluematics Robby\BlueMatics-Robby\Roboterprojekt-avr\Debug\List\project.asm(1096): warning: Register r10 already defined by the .DEF directive
C:\Users\Viktor\Documents\Projekte\Bluematics Robby\BlueMatics-Robby\Roboterprojekt-avr\Debug\List\project.asm(1097): warning: Register r11 already defined by the .DEF directive
C:\Users\Viktor\Documents\Projekte\Bluematics Robby\BlueMatics-Robby\Roboterprojekt-avr\Debug\List\project.asm(1098): warning: Register r12 already defined by the .DEF directive
C:\Users\Viktor\Documents\Projekte\Bluematics Robby\BlueMatics-Robby\Roboterprojekt-avr\Debug\List\project.asm(1099): warning: Register r13 already defined by the .DEF directive
                 
                 
                 ;CodeVisionAVR C Compiler V3.12 Advanced
                 ;(C) Copyright 1998-2014 Pavel Haiduc, HP InfoTech s.r.l.
                 ;http://www.hpinfotech.com
                 
                 ;Build configuration    : Debug
                 ;Chip type              : ATmega128
                 ;Program type           : Application
                 ;Clock frequency        : 16,000000 MHz
                 ;Memory model           : Small
                 ;Optimize for           : Size
                 ;(s)printf features     : int, width
                 ;(s)scanf features      : int, width
                 ;External RAM size      : 0
                 ;Data Stack size        : 1024 byte(s)
                 ;Heap size              : 0 byte(s)
                 ;Promote 'char' to 'int': Yes
                 ;'char' is unsigned     : Yes
                 ;8 bit enums            : Yes
                 ;Global 'const' stored in FLASH: Yes
                 ;Enhanced function parameter passing: Yes
                 ;Enhanced core instructions: On
                 ;Automatic register allocation for global variables: On
                 ;Smart register allocation: On
                 
                 	#define _MODEL_SMALL_
                 
                 	#pragma AVRPART ADMIN PART_NAME ATmega128
                 	#pragma AVRPART MEMORY PROG_FLASH 131072
                 	#pragma AVRPART MEMORY EEPROM 4096
                 	#pragma AVRPART MEMORY INT_SRAM SIZE 4096
                 	#pragma AVRPART MEMORY INT_SRAM START_ADDR 0x100
                 
                 	#define CALL_SUPPORTED 1
                 
                 	.LISTMAC
                 	.EQU UDRE=0x5
                 	.EQU RXC=0x7
                 	.EQU USR=0xB
                 	.EQU UDR=0xC
                 	.EQU SPSR=0xE
                 	.EQU SPDR=0xF
                 	.EQU EERE=0x0
                 	.EQU EEWE=0x1
                 	.EQU EEMWE=0x2
                 	.EQU EECR=0x1C
                 	.EQU EEDR=0x1D
                 	.EQU EEARL=0x1E
                 	.EQU EEARH=0x1F
                 	.EQU WDTCR=0x21
                 	.EQU MCUCR=0x35
                 	.EQU RAMPZ=0x3B
                 	.EQU SPL=0x3D
                 	.EQU SPH=0x3E
                 	.EQU SREG=0x3F
                 	.EQU XMCRA=0x6D
                 	.EQU XMCRB=0x6C
                 
                 	.DEF R0X0=R0
                 	.DEF R0X1=R1
                 	.DEF R0X2=R2
                 	.DEF R0X3=R3
                 	.DEF R0X4=R4
                 	.DEF R0X5=R5
                 	.DEF R0X6=R6
                 	.DEF R0X7=R7
                 	.DEF R0X8=R8
                 	.DEF R0X9=R9
                 	.DEF R0XA=R10
                 	.DEF R0XB=R11
                 	.DEF R0XC=R12
                 	.DEF R0XD=R13
                 	.DEF R0XE=R14
                 	.DEF R0XF=R15
                 	.DEF R0X10=R16
                 	.DEF R0X11=R17
                 	.DEF R0X12=R18
                 	.DEF R0X13=R19
                 	.DEF R0X14=R20
                 	.DEF R0X15=R21
                 	.DEF R0X16=R22
                 	.DEF R0X17=R23
                 	.DEF R0X18=R24
                 	.DEF R0X19=R25
                 	.DEF R0X1A=R26
                 	.DEF R0X1B=R27
                 	.DEF R0X1C=R28
                 	.DEF R0X1D=R29
                 	.DEF R0X1E=R30
                 	.DEF R0X1F=R31
                 
                 	.EQU __SRAM_START=0x0100
                 	.EQU __SRAM_END=0x10FF
                 	.EQU __DSTACK_SIZE=0x0400
                 	.EQU __HEAP_SIZE=0x0000
                 	.EQU __CLEAR_SRAM_SIZE=__SRAM_END-__SRAM_START+1
                 
                 	.MACRO __CPD1N
                 	CPI  R30,LOW(@0)
                 	LDI  R26,HIGH(@0)
                 	CPC  R31,R26
                 	LDI  R26,BYTE3(@0)
                 	CPC  R22,R26
                 	LDI  R26,BYTE4(@0)
                 	CPC  R23,R26
                 	.ENDM
                 
                 	.MACRO __CPD2N
                 	CPI  R26,LOW(@0)
                 	LDI  R30,HIGH(@0)
                 	CPC  R27,R30
                 	LDI  R30,BYTE3(@0)
                 	CPC  R24,R30
                 	LDI  R30,BYTE4(@0)
                 	CPC  R25,R30
                 	.ENDM
                 
                 	.MACRO __CPWRR
                 	CP   R@0,R@2
                 	CPC  R@1,R@3
                 	.ENDM
                 
                 	.MACRO __CPWRN
                 	CPI  R@0,LOW(@2)
                 	LDI  R30,HIGH(@2)
                 	CPC  R@1,R30
                 	.ENDM
                 
                 	.MACRO __ADDB1MN
                 	SUBI R30,LOW(-@0-(@1))
                 	.ENDM
                 
                 	.MACRO __ADDB2MN
                 	SUBI R26,LOW(-@0-(@1))
                 	.ENDM
                 
                 	.MACRO __ADDW1MN
                 	SUBI R30,LOW(-@0-(@1))
                 	SBCI R31,HIGH(-@0-(@1))
                 	.ENDM
                 
                 	.MACRO __ADDW2MN
                 	SUBI R26,LOW(-@0-(@1))
                 	SBCI R27,HIGH(-@0-(@1))
                 	.ENDM
                 
                 	.MACRO __ADDW1FN
                 	SUBI R30,LOW(-2*@0-(@1))
                 	SBCI R31,HIGH(-2*@0-(@1))
                 	.ENDM
                 
                 	.MACRO __ADDD1FN
                 	SUBI R30,LOW(-2*@0-(@1))
                 	SBCI R31,HIGH(-2*@0-(@1))
                 	SBCI R22,BYTE3(-2*@0-(@1))
                 	.ENDM
                 
                 	.MACRO __ADDD1N
                 	SUBI R30,LOW(-@0)
                 	SBCI R31,HIGH(-@0)
                 	SBCI R22,BYTE3(-@0)
                 	SBCI R23,BYTE4(-@0)
                 	.ENDM
                 
                 	.MACRO __ADDD2N
                 	SUBI R26,LOW(-@0)
                 	SBCI R27,HIGH(-@0)
                 	SBCI R24,BYTE3(-@0)
                 	SBCI R25,BYTE4(-@0)
                 	.ENDM
                 
                 	.MACRO __SUBD1N
                 	SUBI R30,LOW(@0)
                 	SBCI R31,HIGH(@0)
                 	SBCI R22,BYTE3(@0)
                 	SBCI R23,BYTE4(@0)
                 	.ENDM
                 
                 	.MACRO __SUBD2N
                 	SUBI R26,LOW(@0)
                 	SBCI R27,HIGH(@0)
                 	SBCI R24,BYTE3(@0)
                 	SBCI R25,BYTE4(@0)
                 	.ENDM
                 
                 	.MACRO __ANDBMNN
                 	LDS  R30,@0+(@1)
                 	ANDI R30,LOW(@2)
                 	STS  @0+(@1),R30
                 	.ENDM
                 
                 	.MACRO __ANDWMNN
                 	LDS  R30,@0+(@1)
                 	ANDI R30,LOW(@2)
                 	STS  @0+(@1),R30
                 	LDS  R30,@0+(@1)+1
                 	ANDI R30,HIGH(@2)
                 	STS  @0+(@1)+1,R30
                 	.ENDM
                 
                 	.MACRO __ANDD1N
                 	ANDI R30,LOW(@0)
                 	ANDI R31,HIGH(@0)
                 	ANDI R22,BYTE3(@0)
                 	ANDI R23,BYTE4(@0)
                 	.ENDM
                 
                 	.MACRO __ANDD2N
                 	ANDI R26,LOW(@0)
                 	ANDI R27,HIGH(@0)
                 	ANDI R24,BYTE3(@0)
                 	ANDI R25,BYTE4(@0)
                 	.ENDM
                 
                 	.MACRO __ORBMNN
                 	LDS  R30,@0+(@1)
                 	ORI  R30,LOW(@2)
                 	STS  @0+(@1),R30
                 	.ENDM
                 
                 	.MACRO __ORWMNN
                 	LDS  R30,@0+(@1)
                 	ORI  R30,LOW(@2)
                 	STS  @0+(@1),R30
                 	LDS  R30,@0+(@1)+1
                 	ORI  R30,HIGH(@2)
                 	STS  @0+(@1)+1,R30
                 	.ENDM
                 
                 	.MACRO __ORD1N
                 	ORI  R30,LOW(@0)
                 	ORI  R31,HIGH(@0)
                 	ORI  R22,BYTE3(@0)
                 	ORI  R23,BYTE4(@0)
                 	.ENDM
                 
                 	.MACRO __ORD2N
                 	ORI  R26,LOW(@0)
                 	ORI  R27,HIGH(@0)
                 	ORI  R24,BYTE3(@0)
                 	ORI  R25,BYTE4(@0)
                 	.ENDM
                 
                 	.MACRO __DELAY_USB
                 	LDI  R24,LOW(@0)
                 __DELAY_USB_LOOP:
                 	DEC  R24
                 	BRNE __DELAY_USB_LOOP
                 	.ENDM
                 
                 	.MACRO __DELAY_USW
                 	LDI  R24,LOW(@0)
                 	LDI  R25,HIGH(@0)
                 __DELAY_USW_LOOP:
                 	SBIW R24,1
                 	BRNE __DELAY_USW_LOOP
                 	.ENDM
                 
                 	.MACRO __GETD1S
                 	LDD  R30,Y+@0
                 	LDD  R31,Y+@0+1
                 	LDD  R22,Y+@0+2
                 	LDD  R23,Y+@0+3
                 	.ENDM
                 
                 	.MACRO __GETD2S
                 	LDD  R26,Y+@0
                 	LDD  R27,Y+@0+1
                 	LDD  R24,Y+@0+2
                 	LDD  R25,Y+@0+3
                 	.ENDM
                 
                 	.MACRO __PUTD1S
                 	STD  Y+@0,R30
                 	STD  Y+@0+1,R31
                 	STD  Y+@0+2,R22
                 	STD  Y+@0+3,R23
                 	.ENDM
                 
                 	.MACRO __PUTD2S
                 	STD  Y+@0,R26
                 	STD  Y+@0+1,R27
                 	STD  Y+@0+2,R24
                 	STD  Y+@0+3,R25
                 	.ENDM
                 
                 	.MACRO __PUTDZ2
                 	STD  Z+@0,R26
                 	STD  Z+@0+1,R27
                 	STD  Z+@0+2,R24
                 	STD  Z+@0+3,R25
                 	.ENDM
                 
                 	.MACRO __CLRD1S
                 	STD  Y+@0,R30
                 	STD  Y+@0+1,R30
                 	STD  Y+@0+2,R30
                 	STD  Y+@0+3,R30
                 	.ENDM
                 
                 	.MACRO __POINTB1MN
                 	LDI  R30,LOW(@0+(@1))
                 	.ENDM
                 
                 	.MACRO __POINTW1MN
                 	LDI  R30,LOW(@0+(@1))
                 	LDI  R31,HIGH(@0+(@1))
                 	.ENDM
                 
                 	.MACRO __POINTD1M
                 	LDI  R30,LOW(@0)
                 	LDI  R31,HIGH(@0)
                 	LDI  R22,BYTE3(@0)
                 	LDI  R23,BYTE4(@0)
                 	.ENDM
                 
                 	.MACRO __POINTW1FN
                 	LDI  R30,LOW(2*@0+(@1))
                 	LDI  R31,HIGH(2*@0+(@1))
                 	.ENDM
                 
                 	.MACRO __POINTD1FN
                 	LDI  R30,LOW(2*@0+(@1))
                 	LDI  R31,HIGH(2*@0+(@1))
                 	LDI  R22,BYTE3(2*@0+(@1))
                 	LDI  R23,BYTE4(2*@0+(@1))
                 	.ENDM
                 
                 	.MACRO __POINTB2MN
                 	LDI  R26,LOW(@0+(@1))
                 	.ENDM
                 
                 	.MACRO __POINTW2MN
                 	LDI  R26,LOW(@0+(@1))
                 	LDI  R27,HIGH(@0+(@1))
                 	.ENDM
                 
                 	.MACRO __POINTW2FN
                 	LDI  R26,LOW(2*@0+(@1))
                 	LDI  R27,HIGH(2*@0+(@1))
                 	.ENDM
                 
                 	.MACRO __POINTD2FN
                 	LDI  R26,LOW(2*@0+(@1))
                 	LDI  R27,HIGH(2*@0+(@1))
                 	LDI  R24,BYTE3(2*@0+(@1))
                 	LDI  R25,BYTE4(2*@0+(@1))
                 	.ENDM
                 
                 	.MACRO __POINTBRM
                 	LDI  R@0,LOW(@1)
                 	.ENDM
                 
                 	.MACRO __POINTWRM
                 	LDI  R@0,LOW(@2)
                 	LDI  R@1,HIGH(@2)
                 	.ENDM
                 
                 	.MACRO __POINTBRMN
                 	LDI  R@0,LOW(@1+(@2))
                 	.ENDM
                 
                 	.MACRO __POINTWRMN
                 	LDI  R@0,LOW(@2+(@3))
                 	LDI  R@1,HIGH(@2+(@3))
                 	.ENDM
                 
                 	.MACRO __POINTWRFN
                 	LDI  R@0,LOW(@2*2+(@3))
                 	LDI  R@1,HIGH(@2*2+(@3))
                 	.ENDM
                 
                 	.MACRO __GETD1N
                 	LDI  R30,LOW(@0)
                 	LDI  R31,HIGH(@0)
                 	LDI  R22,BYTE3(@0)
                 	LDI  R23,BYTE4(@0)
                 	.ENDM
                 
                 	.MACRO __GETD2N
                 	LDI  R26,LOW(@0)
                 	LDI  R27,HIGH(@0)
                 	LDI  R24,BYTE3(@0)
                 	LDI  R25,BYTE4(@0)
                 	.ENDM
                 
                 	.MACRO __GETB1MN
                 	LDS  R30,@0+(@1)
                 	.ENDM
                 
                 	.MACRO __GETB1HMN
                 	LDS  R31,@0+(@1)
                 	.ENDM
                 
                 	.MACRO __GETW1MN
                 	LDS  R30,@0+(@1)
                 	LDS  R31,@0+(@1)+1
                 	.ENDM
                 
                 	.MACRO __GETD1MN
                 	LDS  R30,@0+(@1)
                 	LDS  R31,@0+(@1)+1
                 	LDS  R22,@0+(@1)+2
                 	LDS  R23,@0+(@1)+3
                 	.ENDM
                 
                 	.MACRO __GETBRMN
                 	LDS  R@0,@1+(@2)
                 	.ENDM
                 
                 	.MACRO __GETWRMN
                 	LDS  R@0,@2+(@3)
                 	LDS  R@1,@2+(@3)+1
                 	.ENDM
                 
                 	.MACRO __GETWRZ
                 	LDD  R@0,Z+@2
                 	LDD  R@1,Z+@2+1
                 	.ENDM
                 
                 	.MACRO __GETD2Z
                 	LDD  R26,Z+@0
                 	LDD  R27,Z+@0+1
                 	LDD  R24,Z+@0+2
                 	LDD  R25,Z+@0+3
                 	.ENDM
                 
                 	.MACRO __GETB2MN
                 	LDS  R26,@0+(@1)
                 	.ENDM
                 
                 	.MACRO __GETW2MN
                 	LDS  R26,@0+(@1)
                 	LDS  R27,@0+(@1)+1
                 	.ENDM
                 
                 	.MACRO __GETD2MN
                 	LDS  R26,@0+(@1)
                 	LDS  R27,@0+(@1)+1
                 	LDS  R24,@0+(@1)+2
                 	LDS  R25,@0+(@1)+3
                 	.ENDM
                 
                 	.MACRO __PUTB1MN
                 	STS  @0+(@1),R30
                 	.ENDM
                 
                 	.MACRO __PUTW1MN
                 	STS  @0+(@1),R30
                 	STS  @0+(@1)+1,R31
                 	.ENDM
                 
                 	.MACRO __PUTD1MN
                 	STS  @0+(@1),R30
                 	STS  @0+(@1)+1,R31
                 	STS  @0+(@1)+2,R22
                 	STS  @0+(@1)+3,R23
                 	.ENDM
                 
                 	.MACRO __PUTB1EN
                 	LDI  R26,LOW(@0+(@1))
                 	LDI  R27,HIGH(@0+(@1))
                 	CALL __EEPROMWRB
                 	.ENDM
                 
                 	.MACRO __PUTW1EN
                 	LDI  R26,LOW(@0+(@1))
                 	LDI  R27,HIGH(@0+(@1))
                 	CALL __EEPROMWRW
                 	.ENDM
                 
                 	.MACRO __PUTD1EN
                 	LDI  R26,LOW(@0+(@1))
                 	LDI  R27,HIGH(@0+(@1))
                 	CALL __EEPROMWRD
                 	.ENDM
                 
                 	.MACRO __PUTBR0MN
                 	STS  @0+(@1),R0
                 	.ENDM
                 
                 	.MACRO __PUTBMRN
                 	STS  @0+(@1),R@2
                 	.ENDM
                 
                 	.MACRO __PUTWMRN
                 	STS  @0+(@1),R@2
                 	STS  @0+(@1)+1,R@3
                 	.ENDM
                 
                 	.MACRO __PUTBZR
                 	STD  Z+@1,R@0
                 	.ENDM
                 
                 	.MACRO __PUTWZR
                 	STD  Z+@2,R@0
                 	STD  Z+@2+1,R@1
                 	.ENDM
                 
                 	.MACRO __GETW1R
                 	MOV  R30,R@0
                 	MOV  R31,R@1
                 	.ENDM
                 
                 	.MACRO __GETW2R
                 	MOV  R26,R@0
                 	MOV  R27,R@1
                 	.ENDM
                 
                 	.MACRO __GETWRN
                 	LDI  R@0,LOW(@2)
                 	LDI  R@1,HIGH(@2)
                 	.ENDM
                 
                 	.MACRO __PUTW1R
                 	MOV  R@0,R30
                 	MOV  R@1,R31
                 	.ENDM
                 
                 	.MACRO __PUTW2R
                 	MOV  R@0,R26
                 	MOV  R@1,R27
                 	.ENDM
                 
                 	.MACRO __ADDWRN
                 	SUBI R@0,LOW(-@2)
                 	SBCI R@1,HIGH(-@2)
                 	.ENDM
                 
                 	.MACRO __ADDWRR
                 	ADD  R@0,R@2
                 	ADC  R@1,R@3
                 	.ENDM
                 
                 	.MACRO __SUBWRN
                 	SUBI R@0,LOW(@2)
                 	SBCI R@1,HIGH(@2)
                 	.ENDM
                 
                 	.MACRO __SUBWRR
                 	SUB  R@0,R@2
                 	SBC  R@1,R@3
                 	.ENDM
                 
                 	.MACRO __ANDWRN
                 	ANDI R@0,LOW(@2)
                 	ANDI R@1,HIGH(@2)
                 	.ENDM
                 
                 	.MACRO __ANDWRR
                 	AND  R@0,R@2
                 	AND  R@1,R@3
                 	.ENDM
                 
                 	.MACRO __ORWRN
                 	ORI  R@0,LOW(@2)
                 	ORI  R@1,HIGH(@2)
                 	.ENDM
                 
                 	.MACRO __ORWRR
                 	OR   R@0,R@2
                 	OR   R@1,R@3
                 	.ENDM
                 
                 	.MACRO __EORWRR
                 	EOR  R@0,R@2
                 	EOR  R@1,R@3
                 	.ENDM
                 
                 	.MACRO __GETWRS
                 	LDD  R@0,Y+@2
                 	LDD  R@1,Y+@2+1
                 	.ENDM
                 
                 	.MACRO __PUTBSR
                 	STD  Y+@1,R@0
                 	.ENDM
                 
                 	.MACRO __PUTWSR
                 	STD  Y+@2,R@0
                 	STD  Y+@2+1,R@1
                 	.ENDM
                 
                 	.MACRO __MOVEWRR
                 	MOV  R@0,R@2
                 	MOV  R@1,R@3
                 	.ENDM
                 
                 	.MACRO __INWR
                 	IN   R@0,@2
                 	IN   R@1,@2+1
                 	.ENDM
                 
                 	.MACRO __OUTWR
                 	OUT  @2+1,R@1
                 	OUT  @2,R@0
                 	.ENDM
                 
                 	.MACRO __CALL1MN
                 	LDS  R30,@0+(@1)
                 	LDS  R31,@0+(@1)+1
                 	ICALL
                 	.ENDM
                 
                 	.MACRO __CALL1FN
                 	LDI  R30,LOW(2*@0+(@1))
                 	LDI  R31,HIGH(2*@0+(@1))
                 	CALL __GETW1PF
                 	ICALL
                 	.ENDM
                 
                 	.MACRO __CALL2EN
                 	PUSH R26
                 	PUSH R27
                 	LDI  R26,LOW(@0+(@1))
                 	LDI  R27,HIGH(@0+(@1))
                 	CALL __EEPROMRDW
                 	POP  R27
                 	POP  R26
                 	ICALL
                 	.ENDM
                 
                 	.MACRO __CALL2EX
                 	SUBI R26,LOW(-@0)
                 	SBCI R27,HIGH(-@0)
                 	CALL __EEPROMRDD
                 	ICALL
                 	.ENDM
                 
                 	.MACRO __GETW1STACK
                 	IN   R30,SPL
                 	IN   R31,SPH
                 	ADIW R30,@0+1
                 	LD   R0,Z+
                 	LD   R31,Z
                 	MOV  R30,R0
                 	.ENDM
                 
                 	.MACRO __GETD1STACK
                 	IN   R30,SPL
                 	IN   R31,SPH
                 	ADIW R30,@0+1
                 	LD   R0,Z+
                 	LD   R1,Z+
                 	LD   R22,Z
                 	MOVW R30,R0
                 	.ENDM
                 
                 	.MACRO __NBST
                 	BST  R@0,@1
                 	IN   R30,SREG
                 	LDI  R31,0x40
                 	EOR  R30,R31
                 	OUT  SREG,R30
                 	.ENDM
                 
                 
                 	.MACRO __PUTB1SN
                 	LDD  R26,Y+@0
                 	LDD  R27,Y+@0+1
                 	SUBI R26,LOW(-@1)
                 	SBCI R27,HIGH(-@1)
                 	ST   X,R30
                 	.ENDM
                 
                 	.MACRO __PUTW1SN
                 	LDD  R26,Y+@0
                 	LDD  R27,Y+@0+1
                 	SUBI R26,LOW(-@1)
                 	SBCI R27,HIGH(-@1)
                 	ST   X+,R30
                 	ST   X,R31
                 	.ENDM
                 
                 	.MACRO __PUTD1SN
                 	LDD  R26,Y+@0
                 	LDD  R27,Y+@0+1
                 	SUBI R26,LOW(-@1)
                 	SBCI R27,HIGH(-@1)
                 	CALL __PUTDP1
                 	.ENDM
                 
                 	.MACRO __PUTB1SNS
                 	LDD  R26,Y+@0
                 	LDD  R27,Y+@0+1
                 	ADIW R26,@1
                 	ST   X,R30
                 	.ENDM
                 
                 	.MACRO __PUTW1SNS
                 	LDD  R26,Y+@0
                 	LDD  R27,Y+@0+1
                 	ADIW R26,@1
                 	ST   X+,R30
                 	ST   X,R31
                 	.ENDM
                 
                 	.MACRO __PUTD1SNS
                 	LDD  R26,Y+@0
                 	LDD  R27,Y+@0+1
                 	ADIW R26,@1
                 	CALL __PUTDP1
                 	.ENDM
                 
                 	.MACRO __PUTB1PMN
                 	LDS  R26,@0
                 	LDS  R27,@0+1
                 	SUBI R26,LOW(-@1)
                 	SBCI R27,HIGH(-@1)
                 	ST   X,R30
                 	.ENDM
                 
                 	.MACRO __PUTW1PMN
                 	LDS  R26,@0
                 	LDS  R27,@0+1
                 	SUBI R26,LOW(-@1)
                 	SBCI R27,HIGH(-@1)
                 	ST   X+,R30
                 	ST   X,R31
                 	.ENDM
                 
                 	.MACRO __PUTD1PMN
                 	LDS  R26,@0
                 	LDS  R27,@0+1
                 	SUBI R26,LOW(-@1)
                 	SBCI R27,HIGH(-@1)
                 	CALL __PUTDP1
                 	.ENDM
                 
                 	.MACRO __PUTB1PMNS
                 	LDS  R26,@0
                 	LDS  R27,@0+1
                 	ADIW R26,@1
                 	ST   X,R30
                 	.ENDM
                 
                 	.MACRO __PUTW1PMNS
                 	LDS  R26,@0
                 	LDS  R27,@0+1
                 	ADIW R26,@1
                 	ST   X+,R30
                 	ST   X,R31
                 	.ENDM
                 
                 	.MACRO __PUTD1PMNS
                 	LDS  R26,@0
                 	LDS  R27,@0+1
                 	ADIW R26,@1
                 	CALL __PUTDP1
                 	.ENDM
                 
                 	.MACRO __PUTB1RN
                 	MOVW R26,R@0
                 	SUBI R26,LOW(-@1)
                 	SBCI R27,HIGH(-@1)
                 	ST   X,R30
                 	.ENDM
                 
                 	.MACRO __PUTW1RN
                 	MOVW R26,R@0
                 	SUBI R26,LOW(-@1)
                 	SBCI R27,HIGH(-@1)
                 	ST   X+,R30
                 	ST   X,R31
                 	.ENDM
                 
                 	.MACRO __PUTD1RN
                 	MOVW R26,R@0
                 	SUBI R26,LOW(-@1)
                 	SBCI R27,HIGH(-@1)
                 	CALL __PUTDP1
                 	.ENDM
                 
                 	.MACRO __PUTB1RNS
                 	MOVW R26,R@0
                 	ADIW R26,@1
                 	ST   X,R30
                 	.ENDM
                 
                 	.MACRO __PUTW1RNS
                 	MOVW R26,R@0
                 	ADIW R26,@1
                 	ST   X+,R30
                 	ST   X,R31
                 	.ENDM
                 
                 	.MACRO __PUTD1RNS
                 	MOVW R26,R@0
                 	ADIW R26,@1
                 	CALL __PUTDP1
                 	.ENDM
                 
                 	.MACRO __PUTB1RON
                 	MOV  R26,R@0
                 	MOV  R27,R@1
                 	SUBI R26,LOW(-@2)
                 	SBCI R27,HIGH(-@2)
                 	ST   X,R30
                 	.ENDM
                 
                 	.MACRO __PUTW1RON
                 	MOV  R26,R@0
                 	MOV  R27,R@1
                 	SUBI R26,LOW(-@2)
                 	SBCI R27,HIGH(-@2)
                 	ST   X+,R30
                 	ST   X,R31
                 	.ENDM
                 
                 	.MACRO __PUTD1RON
                 	MOV  R26,R@0
                 	MOV  R27,R@1
                 	SUBI R26,LOW(-@2)
                 	SBCI R27,HIGH(-@2)
                 	CALL __PUTDP1
                 	.ENDM
                 
                 	.MACRO __PUTB1RONS
                 	MOV  R26,R@0
                 	MOV  R27,R@1
                 	ADIW R26,@2
                 	ST   X,R30
                 	.ENDM
                 
                 	.MACRO __PUTW1RONS
                 	MOV  R26,R@0
                 	MOV  R27,R@1
                 	ADIW R26,@2
                 	ST   X+,R30
                 	ST   X,R31
                 	.ENDM
                 
                 	.MACRO __PUTD1RONS
                 	MOV  R26,R@0
                 	MOV  R27,R@1
                 	ADIW R26,@2
                 	CALL __PUTDP1
                 	.ENDM
                 
                 
                 	.MACRO __GETB1SX
                 	MOVW R30,R28
                 	SUBI R30,LOW(-@0)
                 	SBCI R31,HIGH(-@0)
                 	LD   R30,Z
                 	.ENDM
                 
                 	.MACRO __GETB1HSX
                 	MOVW R30,R28
                 	SUBI R30,LOW(-@0)
                 	SBCI R31,HIGH(-@0)
                 	LD   R31,Z
                 	.ENDM
                 
                 	.MACRO __GETW1SX
                 	MOVW R30,R28
                 	SUBI R30,LOW(-@0)
                 	SBCI R31,HIGH(-@0)
                 	LD   R0,Z+
                 	LD   R31,Z
                 	MOV  R30,R0
                 	.ENDM
                 
                 	.MACRO __GETD1SX
                 	MOVW R30,R28
                 	SUBI R30,LOW(-@0)
                 	SBCI R31,HIGH(-@0)
                 	LD   R0,Z+
                 	LD   R1,Z+
                 	LD   R22,Z+
                 	LD   R23,Z
                 	MOVW R30,R0
                 	.ENDM
                 
                 	.MACRO __GETB2SX
                 	MOVW R26,R28
                 	SUBI R26,LOW(-@0)
                 	SBCI R27,HIGH(-@0)
                 	LD   R26,X
                 	.ENDM
                 
                 	.MACRO __GETW2SX
                 	MOVW R26,R28
                 	SUBI R26,LOW(-@0)
                 	SBCI R27,HIGH(-@0)
                 	LD   R0,X+
                 	LD   R27,X
                 	MOV  R26,R0
                 	.ENDM
                 
                 	.MACRO __GETD2SX
                 	MOVW R26,R28
                 	SUBI R26,LOW(-@0)
                 	SBCI R27,HIGH(-@0)
                 	LD   R0,X+
                 	LD   R1,X+
                 	LD   R24,X+
                 	LD   R25,X
                 	MOVW R26,R0
                 	.ENDM
                 
                 	.MACRO __GETBRSX
                 	MOVW R30,R28
                 	SUBI R30,LOW(-@1)
                 	SBCI R31,HIGH(-@1)
                 	LD   R@0,Z
                 	.ENDM
                 
                 	.MACRO __GETWRSX
                 	MOVW R30,R28
                 	SUBI R30,LOW(-@2)
                 	SBCI R31,HIGH(-@2)
                 	LD   R@0,Z+
                 	LD   R@1,Z
                 	.ENDM
                 
                 	.MACRO __GETBRSX2
                 	MOVW R26,R28
                 	SUBI R26,LOW(-@1)
                 	SBCI R27,HIGH(-@1)
                 	LD   R@0,X
                 	.ENDM
                 
                 	.MACRO __GETWRSX2
                 	MOVW R26,R28
                 	SUBI R26,LOW(-@2)
                 	SBCI R27,HIGH(-@2)
                 	LD   R@0,X+
                 	LD   R@1,X
                 	.ENDM
                 
                 	.MACRO __LSLW8SX
                 	MOVW R30,R28
                 	SUBI R30,LOW(-@0)
                 	SBCI R31,HIGH(-@0)
                 	LD   R31,Z
                 	CLR  R30
                 	.ENDM
                 
                 	.MACRO __PUTB1SX
                 	MOVW R26,R28
                 	SUBI R26,LOW(-@0)
                 	SBCI R27,HIGH(-@0)
                 	ST   X,R30
                 	.ENDM
                 
                 	.MACRO __PUTW1SX
                 	MOVW R26,R28
                 	SUBI R26,LOW(-@0)
                 	SBCI R27,HIGH(-@0)
                 	ST   X+,R30
                 	ST   X,R31
                 	.ENDM
                 
                 	.MACRO __PUTD1SX
                 	MOVW R26,R28
                 	SUBI R26,LOW(-@0)
                 	SBCI R27,HIGH(-@0)
                 	ST   X+,R30
                 	ST   X+,R31
                 	ST   X+,R22
                 	ST   X,R23
                 	.ENDM
                 
                 	.MACRO __CLRW1SX
                 	MOVW R26,R28
                 	SUBI R26,LOW(-@0)
                 	SBCI R27,HIGH(-@0)
                 	ST   X+,R30
                 	ST   X,R30
                 	.ENDM
                 
                 	.MACRO __CLRD1SX
                 	MOVW R26,R28
                 	SUBI R26,LOW(-@0)
                 	SBCI R27,HIGH(-@0)
                 	ST   X+,R30
                 	ST   X+,R30
                 	ST   X+,R30
                 	ST   X,R30
                 	.ENDM
                 
                 	.MACRO __PUTB2SX
                 	MOVW R30,R28
                 	SUBI R30,LOW(-@0)
                 	SBCI R31,HIGH(-@0)
                 	ST   Z,R26
                 	.ENDM
                 
                 	.MACRO __PUTW2SX
                 	MOVW R30,R28
                 	SUBI R30,LOW(-@0)
                 	SBCI R31,HIGH(-@0)
                 	ST   Z+,R26
                 	ST   Z,R27
                 	.ENDM
                 
                 	.MACRO __PUTD2SX
                 	MOVW R30,R28
                 	SUBI R30,LOW(-@0)
                 	SBCI R31,HIGH(-@0)
                 	ST   Z+,R26
                 	ST   Z+,R27
                 	ST   Z+,R24
                 	ST   Z,R25
                 	.ENDM
                 
                 	.MACRO __PUTBSRX
                 	MOVW R30,R28
                 	SUBI R30,LOW(-@1)
                 	SBCI R31,HIGH(-@1)
                 	ST   Z,R@0
                 	.ENDM
                 
                 	.MACRO __PUTWSRX
                 	MOVW R30,R28
                 	SUBI R30,LOW(-@2)
                 	SBCI R31,HIGH(-@2)
                 	ST   Z+,R@0
                 	ST   Z,R@1
                 	.ENDM
                 
                 	.MACRO __PUTB1SNX
                 	MOVW R26,R28
                 	SUBI R26,LOW(-@0)
                 	SBCI R27,HIGH(-@0)
                 	LD   R0,X+
                 	LD   R27,X
                 	MOV  R26,R0
                 	SUBI R26,LOW(-@1)
                 	SBCI R27,HIGH(-@1)
                 	ST   X,R30
                 	.ENDM
                 
                 	.MACRO __PUTW1SNX
                 	MOVW R26,R28
                 	SUBI R26,LOW(-@0)
                 	SBCI R27,HIGH(-@0)
                 	LD   R0,X+
                 	LD   R27,X
                 	MOV  R26,R0
                 	SUBI R26,LOW(-@1)
                 	SBCI R27,HIGH(-@1)
                 	ST   X+,R30
                 	ST   X,R31
                 	.ENDM
                 
                 	.MACRO __PUTD1SNX
                 	MOVW R26,R28
                 	SUBI R26,LOW(-@0)
                 	SBCI R27,HIGH(-@0)
                 	LD   R0,X+
                 	LD   R27,X
                 	MOV  R26,R0
                 	SUBI R26,LOW(-@1)
                 	SBCI R27,HIGH(-@1)
                 	ST   X+,R30
                 	ST   X+,R31
                 	ST   X+,R22
                 	ST   X,R23
                 	.ENDM
                 
                 	.MACRO __MULBRR
                 	MULS R@0,R@1
                 	MOVW R30,R0
                 	.ENDM
                 
                 	.MACRO __MULBRRU
                 	MUL  R@0,R@1
                 	MOVW R30,R0
                 	.ENDM
                 
                 	.MACRO __MULBRR0
                 	MULS R@0,R@1
                 	.ENDM
                 
                 	.MACRO __MULBRRU0
                 	MUL  R@0,R@1
                 	.ENDM
                 
                 	.MACRO __MULBNWRU
                 	LDI  R26,@2
                 	MUL  R26,R@0
                 	MOVW R30,R0
                 	MUL  R26,R@1
                 	ADD  R31,R0
                 	.ENDM
                 
                 ;NAME DEFINITIONS FOR GLOBAL VARIABLES ALLOCATED TO REGISTERS
                 	.DEF _servo_breaks=R4
                 	.DEF _servo_breaks_msb=R5
                 	.DEF _servo_value_cur=R6
                 	.DEF _servo_value_cur_msb=R7
                 	.DEF _servo_value_copy=R8
                 	.DEF _servo_value_copy_msb=R9
                 	.DEF _servo_test=R10
                 	.DEF _servo_test_msb=R11
                 	.DEF _state_info=R12
                 	.DEF _state_info_msb=R13
                 
                 	.CSEG
                 	.ORG 0x00
                 
                 ;START OF CODE MARKER
                 __START_OF_CODE:
                 
                 ;INTERRUPT VECTORS
000000 940c 0281 	JMP  __RESET
000002 940c 0000 	JMP  0x00
000004 940c 0000 	JMP  0x00
000006 940c 0000 	JMP  0x00
000008 940c 0000 	JMP  0x00
00000a 940c 02df 	JMP  _ext_int4_isr
00000c 940c 0000 	JMP  0x00
00000e 940c 02ef 	JMP  _ext_int6_isr
000010 940c 0000 	JMP  0x00
000012 940c 0000 	JMP  0x00
000014 940c 0478 	JMP  _timer2_ovf_isr
000016 940c 0000 	JMP  0x00
000018 940c 0000 	JMP  0x00
00001a 940c 0000 	JMP  0x00
00001c 940c 035f 	JMP  _timer1_ovf_isr
00001e 940c 0000 	JMP  0x00
000020 940c 03a2 	JMP  _timer0_ovf_isr
000022 940c 0000 	JMP  0x00
000024 940c 0000 	JMP  0x00
000026 940c 0000 	JMP  0x00
000028 940c 0000 	JMP  0x00
00002a 940c 02b1 	JMP  _adc_isr
00002c 940c 0000 	JMP  0x00
00002e 940c 0000 	JMP  0x00
000030 940c 0000 	JMP  0x00
000032 940c 0625 	JMP  _timer3_capt_isr
000034 940c 0665 	JMP  _timer3_compa_isr
000036 940c 0000 	JMP  0x00
000038 940c 0000 	JMP  0x00
00003a 940c 0000 	JMP  0x00
00003c 940c 0000 	JMP  0x00
00003e 940c 0000 	JMP  0x00
000040 940c 0000 	JMP  0x00
000042 940c 10e3 	JMP  _twi_int_handler
000044 940c 0000 	JMP  0x00
                 
                 _tbl10_G102:
000046 2710
000047 03e8
000048 0064
000049 000a      	.DB  0x10,0x27,0xE8,0x3,0x64,0x0,0xA,0x0
00004a 0001      	.DB  0x1,0x0
                 _tbl16_G102:
00004b 1000
00004c 0100
00004d 0010
00004e 0001      	.DB  0x0,0x10,0x0,0x1,0x10,0x0,0x1,0x0
                 
                 ;REGISTER BIT VARIABLES INITIALIZATION
                 __REG_BIT_VARS:
00004f 0001      	.DW  0x0001
                 
                 ;GLOBAL REGISTER VARIABLES INITIALIZATION
                 __REG_VARS:
000050 0001
000051 00aa      	.DB  0x1,0x0,0xAA,0x0
000052 0000
000053 0000      	.DB  0x0,0x0,0x0,0x0
000054 0000      	.DB  0x0,0x0
                 
                 _0x3:
C:\Users\Viktor\Documents\Projekte\Bluematics Robby\BlueMatics-Robby\Roboterprojekt-avr\Debug\List\project.asm(1161): warning: .cseg .db misalignment - padding zero byte
000055 0013      	.DB  0x13
                 _0x4:
C:\Users\Viktor\Documents\Projekte\Bluematics Robby\BlueMatics-Robby\Roboterprojekt-avr\Debug\List\project.asm(1163): warning: .cseg .db misalignment - padding zero byte
000056 000a      	.DB  0xA
                 _0x0:
000057 4144
000058 4154
000059 5000
00005a 534f      	.DB  0x44,0x41,0x54,0x41,0x0,0x50,0x4F,0x53
00005b 5449
00005c 4f49
00005d 2d4e
00005e 4553      	.DB  0x49,0x54,0x49,0x4F,0x4E,0x2D,0x53,0x45
00005f 5652
000060 004f
000061 454c
000062 5446      	.DB  0x52,0x56,0x4F,0x0,0x4C,0x45,0x46,0x54
000063 203a
000064 0031
000065 454c
000066 5446      	.DB  0x3A,0x20,0x31,0x0,0x4C,0x45,0x46,0x54
000067 203a
000068 0030
000069 5220
00006a 4749      	.DB  0x3A,0x20,0x30,0x0,0x20,0x52,0x49,0x47
00006b 5448
00006c 203a
00006d 0031
00006e 5220      	.DB  0x48,0x54,0x3A,0x20,0x31,0x0,0x20,0x52
00006f 4749
000070 5448
000071 203a
000072 0030      	.DB  0x49,0x47,0x48,0x54,0x3A,0x20,0x30,0x0
000073 4c4d
000074 4645
000075 3a54
000076 3120      	.DB  0x4D,0x4C,0x45,0x46,0x54,0x3A,0x20,0x31
000077 4d00
000078 454c
000079 5446
00007a 203a      	.DB  0x0,0x4D,0x4C,0x45,0x46,0x54,0x3A,0x20
00007b 0030
00007c 524d
00007d 4749
00007e 5448      	.DB  0x30,0x0,0x4D,0x52,0x49,0x47,0x48,0x54
00007f 313a
000080 4d00
000081 4952
000082 4847      	.DB  0x3A,0x31,0x0,0x4D,0x52,0x49,0x47,0x48
000083 3a54
000084 0030
000085 2020
000086 2020      	.DB  0x54,0x3A,0x30,0x0,0x20,0x20,0x20,0x20
000087 4520
000088 434e
000089 444f
00008a 5245      	.DB  0x20,0x45,0x4E,0x43,0x4F,0x44,0x45,0x52
00008b 2020
00008c 3e3e
00008d 3c00
00008e 203c      	.DB  0x20,0x20,0x3E,0x3E,0x0,0x3C,0x3C,0x20
00008f 2020
000090 4e45
000091 4f43
000092 4544      	.DB  0x20,0x20,0x45,0x4E,0x43,0x4F,0x44,0x45
000093 2052
000094 2020
000095 0020
000096 3a4c      	.DB  0x52,0x20,0x20,0x20,0x20,0x0,0x4C,0x3A
000097 2000
000098 3a52
000099 2000
00009a 2020      	.DB  0x0,0x20,0x52,0x3A,0x0,0x20,0x20,0x20
00009b 2020
00009c 4552
00009d 4843
00009e 5354      	.DB  0x20,0x20,0x52,0x45,0x43,0x48,0x54,0x53
00009f 2020
0000a0 2020
0000a1 2000
0000a2 2020      	.DB  0x20,0x20,0x20,0x20,0x0,0x20,0x20,0x20
0000a3 2020
0000a4 494c
0000a5 4b4e
0000a6 2053      	.DB  0x20,0x20,0x4C,0x49,0x4E,0x4B,0x53,0x20
0000a7 2020
0000a8 0020
0000a9 4c46
0000aa 4645      	.DB  0x20,0x20,0x20,0x0,0x46,0x4C,0x45,0x46
0000ab 3a54
0000ac 3120
0000ad 4600
0000ae 454c      	.DB  0x54,0x3A,0x20,0x31,0x0,0x46,0x4C,0x45
0000af 5446
0000b0 203a
0000b1 0030
0000b2 5246      	.DB  0x46,0x54,0x3A,0x20,0x30,0x0,0x46,0x52
0000b3 4749
0000b4 5448
0000b5 313a
0000b6 4600      	.DB  0x49,0x47,0x48,0x54,0x3A,0x31,0x0,0x46
0000b7 4952
0000b8 4847
0000b9 3a54
0000ba 0030      	.DB  0x52,0x49,0x47,0x48,0x54,0x3A,0x30,0x0
0000bb 454c
0000bc 5446
0000bd 003a
0000be 4952      	.DB  0x4C,0x45,0x46,0x54,0x3A,0x0,0x52,0x49
0000bf 4847
0000c0 3a54
0000c1 4f00
0000c2 6a62      	.DB  0x47,0x48,0x54,0x3A,0x0,0x4F,0x62,0x6A
0000c3 6b65
0000c4 2074
0000c5 6567
0000c6 7566      	.DB  0x65,0x6B,0x74,0x20,0x67,0x65,0x66,0x75
0000c7 646e
0000c8 6e65
0000c9 4b00
0000ca 6965      	.DB  0x6E,0x64,0x65,0x6E,0x0,0x4B,0x65,0x69
0000cb 206e
0000cc 624f
0000cd 656a
0000ce 746b      	.DB  0x6E,0x20,0x4F,0x62,0x6A,0x65,0x6B,0x74
0000cf 2000
0000d0 4c20
0000d1 4e49
0000d2 4445      	.DB  0x0,0x20,0x20,0x4C,0x49,0x4E,0x45,0x44
0000d3 5445
0000d4 4345
0000d5 4f54
0000d6 2052      	.DB  0x45,0x54,0x45,0x43,0x54,0x4F,0x52,0x20
0000d7 0020
0000d8 2020
0000d9 2020
0000da 4520      	.DB  0x20,0x0,0x20,0x20,0x20,0x20,0x20,0x45
0000db 474e
0000dc 4e49
0000dd 2045
0000de 2020      	.DB  0x4E,0x47,0x49,0x4E,0x45,0x20,0x20,0x20
0000df 0020
0000e0 2020
0000e1 2020
0000e2 5320      	.DB  0x20,0x0,0x20,0x20,0x20,0x20,0x20,0x53
0000e3 4554
0000e4 5245
0000e5 4e49
0000e6 2047      	.DB  0x54,0x45,0x45,0x52,0x49,0x4E,0x47,0x20
0000e7 2020
0000e8 0020
0000e9 4420
0000ea 5349      	.DB  0x20,0x20,0x20,0x0,0x20,0x44,0x49,0x53
0000eb 4154
0000ec 434e
0000ed 5345
0000ee 4e45      	.DB  0x54,0x41,0x4E,0x43,0x45,0x53,0x45,0x4E
0000ef 4f53
0000f0 2052
0000f1 2000
0000f2 4c20      	.DB  0x53,0x4F,0x52,0x20,0x0,0x20,0x20,0x4C
0000f3 4749
0000f4 5448
0000f5 5320
0000f6 4e45      	.DB  0x49,0x47,0x48,0x54,0x20,0x53,0x45,0x4E
0000f7 4f53
0000f8 2052
0000f9 0020
0000fa 2020      	.DB  0x53,0x4F,0x52,0x20,0x20,0x0,0x20,0x20
0000fb 2020
0000fc 5720
0000fd 4949
0000fe 4320      	.DB  0x20,0x20,0x20,0x57,0x49,0x49,0x20,0x43
0000ff 4d41
000100 2020
000101 0020
000102 2020      	.DB  0x41,0x4D,0x20,0x20,0x20,0x0,0x20,0x20
000103 2020
000104 5249
000105 5420
000106 574f      	.DB  0x20,0x20,0x49,0x52,0x20,0x54,0x4F,0x57
000107 5245
000108 2020
000109 2020
00010a 2000      	.DB  0x45,0x52,0x20,0x20,0x20,0x20,0x0,0x20
00010b 2020
00010c 2020
00010d 4553
00010e 5652      	.DB  0x20,0x20,0x20,0x20,0x53,0x45,0x52,0x56
00010f 204f
000110 2020
000111 0020
000112 2020      	.DB  0x4F,0x20,0x20,0x20,0x20,0x0,0x20,0x20
000113 5520
000114 544c
000115 4152
000116 4f53      	.DB  0x20,0x55,0x4C,0x54,0x52,0x41,0x53,0x4F
000117 494e
000118 2043
000119 0020
00011a 2020      	.DB  0x4E,0x49,0x43,0x20,0x20,0x0,0x20,0x20
00011b 2020
00011c 4620
00011d 524f
00011e 2020      	.DB  0x20,0x20,0x20,0x46,0x4F,0x52,0x20,0x20
00011f 2020
000120 2020
000121 0020
000122 2020      	.DB  0x20,0x20,0x20,0x20,0x20,0x0,0x20,0x20
000123 2020
000124 2020
000125 4142
000126 4b43      	.DB  0x20,0x20,0x20,0x20,0x42,0x41,0x43,0x4B
000127 2020
000128 2020
000129 2020
00012a 0020      	.DB  0x20,0x20,0x20,0x20,0x20,0x20,0x20,0x0
00012b 2020
00012c 2020
00012d 2020
00012e 454c      	.DB  0x20,0x20,0x20,0x20,0x20,0x20,0x4C,0x45
00012f 5446
000130 2020
000131 2020
000132 2020      	.DB  0x46,0x54,0x20,0x20,0x20,0x20,0x20,0x20
000133 2000
000134 2020
000135 2020
000136 4952      	.DB  0x0,0x20,0x20,0x20,0x20,0x20,0x52,0x49
000137 4847
000138 2054
000139 2020
00013a 2020      	.DB  0x47,0x48,0x54,0x20,0x20,0x20,0x20,0x20
00013b 2000
00013c 2020
00013d 2020
00013e 3039      	.DB  0x0,0x20,0x20,0x20,0x20,0x20,0x39,0x30
00013f 4cb0
000140 4645
000141 2054
000142 2020      	.DB  0xB0,0x4C,0x45,0x46,0x54,0x20,0x20,0x20
000143 2020
000144 2000
000145 2020
000146 3920      	.DB  0x20,0x20,0x0,0x20,0x20,0x20,0x20,0x39
000147 b030
000148 4952
000149 4847
00014a 2054      	.DB  0x30,0xB0,0x52,0x49,0x47,0x48,0x54,0x20
00014b 2020
00014c 0020
00014d 2020
00014e 2020      	.DB  0x20,0x20,0x20,0x0,0x20,0x20,0x20,0x20
00014f 5053
000150 4e49
000151 2020
000152 2020      	.DB  0x53,0x50,0x49,0x4E,0x20,0x20,0x20,0x20
000153 2000
000154 2020
000155 3120
000156 7473      	.DB  0x0,0x20,0x20,0x20,0x20,0x31,0x73,0x74
000157 5320
000158 4154
000159 4554
00015a 2020      	.DB  0x20,0x53,0x54,0x41,0x54,0x45,0x20,0x20
00015b 2020
00015c 2000
00015d 2020
00015e 3220      	.DB  0x20,0x20,0x0,0x20,0x20,0x20,0x20,0x32
00015f 646e
000160 5320
000161 4154
000162 4554      	.DB  0x6E,0x64,0x20,0x53,0x54,0x41,0x54,0x45
000163 2020
000164 2020
000165 2000
000166 2020      	.DB  0x20,0x20,0x20,0x20,0x0,0x20,0x20,0x20
000167 3320
000168 6472
000169 5320
00016a 4154      	.DB  0x20,0x33,0x72,0x64,0x20,0x53,0x54,0x41
00016b 4554
00016c 2020
00016d 2020
00016e 2000      	.DB  0x54,0x45,0x20,0x20,0x20,0x20,0x0,0x20
00016f 2020
000170 6c42
000171 6575
000172 614d      	.DB  0x20,0x20,0x42,0x6C,0x75,0x65,0x4D,0x61
000173 6974
000174 7363
000175 2000
000176 2020      	.DB  0x74,0x69,0x63,0x73,0x0,0x20,0x20,0x20
000177 2020
000178 6f52
000179 6262
00017a 0079      	.DB  0x20,0x20,0x52,0x6F,0x62,0x62,0x79,0x0
00017b 4b4f
00017c 4200
00017d 6675
00017e 6566      	.DB  0x4F,0x4B,0x0,0x42,0x75,0x66,0x66,0x65
00017f 2072
000180 766f
000181 7265
000182 6c66      	.DB  0x72,0x20,0x6F,0x76,0x65,0x72,0x66,0x6C
000183 776f
000184 4100
000185 6272
000186 7469      	.DB  0x6F,0x77,0x0,0x41,0x72,0x62,0x69,0x74
000187 6172
000188 6974
000189 6e6f
00018a 6c20      	.DB  0x72,0x61,0x74,0x69,0x6F,0x6E,0x20,0x6C
00018b 736f
00018c 0074
00018d 7542
00018e 2073      	.DB  0x6F,0x73,0x74,0x0,0x42,0x75,0x73,0x20
00018f 7265
000190 6f72
000191 0072
000192 414e      	.DB  0x65,0x72,0x72,0x6F,0x72,0x0,0x4E,0x41
000193 4b43
000194 7220
000195 6365
000196 6965      	.DB  0x43,0x4B,0x20,0x72,0x65,0x63,0x65,0x69
000197 6576
000198 0064
000199 7542
00019a 2073      	.DB  0x76,0x65,0x64,0x0,0x42,0x75,0x73,0x20
00019b 6974
00019c 656d
00019d 756f
00019e 0074      	.DB  0x74,0x69,0x6D,0x65,0x6F,0x75,0x74,0x0
00019f 6146
0001a0 6c69
0001a1 5500
0001a2 6b6e      	.DB  0x46,0x61,0x69,0x6C,0x0,0x55,0x6E,0x6B
0001a3 6f6e
0001a4 6e77
0001a5 6520
0001a6 7272      	.DB  0x6E,0x6F,0x77,0x6E,0x20,0x65,0x72,0x72
0001a7 726f
C:\Users\Viktor\Documents\Projekte\Bluematics Robby\BlueMatics-Robby\Roboterprojekt-avr\Debug\List\project.asm(1249): warning: .cseg .db misalignment - padding zero byte
0001a8 0000      	.DB  0x6F,0x72,0x0
                 _0x2000060:
C:\Users\Viktor\Documents\Projekte\Bluematics Robby\BlueMatics-Robby\Roboterprojekt-avr\Debug\List\project.asm(1251): warning: .cseg .db misalignment - padding zero byte
0001a9 0001      	.DB  0x1
                 _0x2000000:
0001aa 4e2d
0001ab 4e41
0001ac 4900
0001ad 464e      	.DB  0x2D,0x4E,0x41,0x4E,0x0,0x49,0x4E,0x46
C:\Users\Viktor\Documents\Projekte\Bluematics Robby\BlueMatics-Robby\Roboterprojekt-avr\Debug\List\project.asm(1254): warning: .cseg .db misalignment - padding zero byte
0001ae 0000      	.DB  0x0
                 _0x2060003:
C:\Users\Viktor\Documents\Projekte\Bluematics Robby\BlueMatics-Robby\Roboterprojekt-avr\Debug\List\project.asm(1256): warning: .cseg .db misalignment - padding zero byte
0001af 0007      	.DB  0x7
                 _0x2080003:
0001b0 c080      	.DB  0x80,0xC0
                 
                 __GLOBAL_INI_TBL:
0001b1 0001      	.DW  0x01
0001b2 0002      	.DW  0x02
0001b3 009e      	.DW  __REG_BIT_VARS*2
                 
0001b4 000a      	.DW  0x0A
0001b5 0004      	.DW  0x04
0001b6 00a0      	.DW  __REG_VARS*2
                 
0001b7 0001      	.DW  0x01
0001b8 07b3      	.DW  _state
0001b9 00aa      	.DW  _0x3*2
                 
0001ba 0005      	.DW  0x05
0001bb 0500      	.DW  _0x28
0001bc 00ae      	.DW  _0x0*2
                 
0001bd 000f      	.DW  0x0F
0001be 0505      	.DW  _0x38
0001bf 00b3      	.DW  _0x0*2+5
                 
0001c0 0008      	.DW  0x08
0001c1 0514      	.DW  _0x65
0001c2 00c2      	.DW  _0x0*2+20
                 
0001c3 0008      	.DW  0x08
0001c4 051c      	.DW  _0x65+8
0001c5 00ca      	.DW  _0x0*2+28
                 
0001c6 000a      	.DW  0x0A
0001c7 0524      	.DW  _0x65+16
0001c8 00d2      	.DW  _0x0*2+36
                 
0001c9 000a      	.DW  0x0A
0001ca 052e      	.DW  _0x65+26
0001cb 00dc      	.DW  _0x0*2+46
                 
0001cc 0009      	.DW  0x09
0001cd 0538      	.DW  _0x65+36
0001ce 00e6      	.DW  _0x0*2+56
                 
0001cf 0009      	.DW  0x09
0001d0 0541      	.DW  _0x65+45
0001d1 00ef      	.DW  _0x0*2+65
                 
0001d2 0009      	.DW  0x09
0001d3 054a      	.DW  _0x65+54
0001d4 00f8      	.DW  _0x0*2+74
                 
0001d5 0009      	.DW  0x09
0001d6 0553      	.DW  _0x65+63
0001d7 0101      	.DW  _0x0*2+83
                 
0001d8 0011      	.DW  0x11
0001d9 055c      	.DW  _0x6E
0001da 010a      	.DW  _0x0*2+92
                 
0001db 0011      	.DW  0x11
0001dc 056d      	.DW  _0x6E+17
0001dd 011b      	.DW  _0x0*2+109
                 
0001de 0003      	.DW  0x03
0001df 057e      	.DW  _0x6E+34
0001e0 012c      	.DW  _0x0*2+126
                 
0001e1 0004      	.DW  0x04
0001e2 0581      	.DW  _0x6E+37
0001e3 012f      	.DW  _0x0*2+129
                 
0001e4 0010      	.DW  0x10
0001e5 0585      	.DW  _0x7A
0001e6 0133      	.DW  _0x0*2+133
                 
0001e7 000f      	.DW  0x0F
0001e8 0595      	.DW  _0x7A+16
0001e9 0143      	.DW  _0x0*2+149
                 
0001ea 0003      	.DW  0x03
0001eb 05a4      	.DW  _0x7A+31
0001ec 012c      	.DW  _0x0*2+126
                 
0001ed 0004      	.DW  0x04
0001ee 05a7      	.DW  _0x7A+34
0001ef 012f      	.DW  _0x0*2+129
                 
0001f0 0008      	.DW  0x08
0001f1 05ab      	.DW  _0x86
0001f2 00c2      	.DW  _0x0*2+20
                 
0001f3 0008      	.DW  0x08
0001f4 05b3      	.DW  _0x86+8
0001f5 00ca      	.DW  _0x0*2+28
                 
0001f6 000a      	.DW  0x0A
0001f7 05bb      	.DW  _0x86+16
0001f8 00d2      	.DW  _0x0*2+36
                 
0001f9 000a      	.DW  0x0A
0001fa 05c5      	.DW  _0x86+26
0001fb 00dc      	.DW  _0x0*2+46
                 
0001fc 0009      	.DW  0x09
0001fd 05cf      	.DW  _0x86+36
0001fe 0152      	.DW  _0x0*2+164
                 
0001ff 0009      	.DW  0x09
000200 05d8      	.DW  _0x86+45
000201 015b      	.DW  _0x0*2+173
                 
000202 0009      	.DW  0x09
000203 05e1      	.DW  _0x86+54
000204 0164      	.DW  _0x0*2+182
                 
000205 0009      	.DW  0x09
000206 05ea      	.DW  _0x86+63
000207 016d      	.DW  _0x0*2+191
                 
000208 0006      	.DW  0x06
000209 05f3      	.DW  _0x8E
00020a 0176      	.DW  _0x0*2+200
                 
00020b 0007      	.DW  0x07
00020c 05f9      	.DW  _0x8E+6
00020d 017c      	.DW  _0x0*2+206
                 
00020e 0003      	.DW  0x03
00020f 0600      	.DW  _0xB8
000210 012c      	.DW  _0x0*2+126
                 
000211 0004      	.DW  0x04
000212 0603      	.DW  _0xB8+3
000213 012f      	.DW  _0x0*2+129
                 
000214 0003      	.DW  0x03
000215 0607      	.DW  _0xC0
000216 012c      	.DW  _0x0*2+126
                 
000217 0004      	.DW  0x04
000218 060a      	.DW  _0xC0+3
000219 012f      	.DW  _0x0*2+129
                 
00021a 0003      	.DW  0x03
00021b 060e      	.DW  _0x1EE
00021c 012c      	.DW  _0x0*2+126
                 
00021d 0004      	.DW  0x04
00021e 0611      	.DW  _0x1EE+3
00021f 012f      	.DW  _0x0*2+129
                 
000220 0003      	.DW  0x03
000221 0615      	.DW  _0x1F8
000222 012c      	.DW  _0x0*2+126
                 
000223 0004      	.DW  0x04
000224 0618      	.DW  _0x1F8+3
000225 012f      	.DW  _0x0*2+129
                 
000226 0003      	.DW  0x03
000227 061c      	.DW  _0x1F8+7
000228 012c      	.DW  _0x0*2+126
                 
000229 0004      	.DW  0x04
00022a 061f      	.DW  _0x1F8+10
00022b 012f      	.DW  _0x0*2+129
                 
00022c 0003      	.DW  0x03
00022d 0623      	.DW  _0x1F8+14
00022e 012c      	.DW  _0x0*2+126
                 
00022f 0004      	.DW  0x04
000230 0626      	.DW  _0x1F8+17
000231 012f      	.DW  _0x0*2+129
                 
000232 0003      	.DW  0x03
000233 062a      	.DW  _0x1F8+21
000234 012c      	.DW  _0x0*2+126
                 
000235 0004      	.DW  0x04
000236 062d      	.DW  _0x1F8+24
000237 012f      	.DW  _0x0*2+129
                 
000238 0011      	.DW  0x11
000239 0631      	.DW  _0x223
00023a 019f      	.DW  _0x0*2+241
                 
00023b 0010      	.DW  0x10
00023c 0642      	.DW  _0x223+17
00023d 01b0      	.DW  _0x0*2+258
                 
00023e 0012      	.DW  0x12
00023f 0652      	.DW  _0x223+33
000240 01c0      	.DW  _0x0*2+274
                 
000241 0011      	.DW  0x11
000242 0664      	.DW  _0x223+51
000243 01d2      	.DW  _0x0*2+292
                 
000244 0011      	.DW  0x11
000245 0675      	.DW  _0x223+68
000246 01e3      	.DW  _0x0*2+309
                 
000247 0010      	.DW  0x10
000248 0686      	.DW  _0x223+85
000249 01f4      	.DW  _0x0*2+326
                 
00024a 0011      	.DW  0x11
00024b 0696      	.DW  _0x223+101
00024c 0204      	.DW  _0x0*2+342
                 
00024d 000f      	.DW  0x0F
00024e 06a7      	.DW  _0x223+118
00024f 0215      	.DW  _0x0*2+359
                 
000250 0010      	.DW  0x10
000251 06b6      	.DW  _0x223+133
000252 0224      	.DW  _0x0*2+374
                 
000253 0010      	.DW  0x10
000254 06c6      	.DW  _0x223+149
000255 0234      	.DW  _0x0*2+390
                 
000256 0012      	.DW  0x12
000257 06d6      	.DW  _0x223+165
000258 0244      	.DW  _0x0*2+406
                 
000259 0011      	.DW  0x11
00025a 06e8      	.DW  _0x223+183
00025b 0256      	.DW  _0x0*2+424
                 
00025c 0010      	.DW  0x10
00025d 06f9      	.DW  _0x223+200
00025e 0267      	.DW  _0x0*2+441
                 
00025f 0012      	.DW  0x12
000260 0709      	.DW  _0x223+216
000261 0277      	.DW  _0x0*2+457
                 
000262 0011      	.DW  0x11
000263 071b      	.DW  _0x223+234
000264 0289      	.DW  _0x0*2+475
                 
000265 000d      	.DW  0x0D
000266 072c      	.DW  _0x223+251
000267 029a      	.DW  _0x0*2+492
                 
000268 0012      	.DW  0x12
000269 0739      	.DW  _0x223+264
00026a 02a7      	.DW  _0x0*2+505
                 
00026b 0012      	.DW  0x12
00026c 074b      	.DW  _0x223+282
00026d 02b9      	.DW  _0x0*2+523
                 
00026e 0012      	.DW  0x12
00026f 075d      	.DW  _0x223+300
000270 02cb      	.DW  _0x0*2+541
                 
000271 000e      	.DW  0x0E
000272 076f      	.DW  _0x223+318
000273 02dd      	.DW  _0x0*2+559
                 
000274 000b      	.DW  0x0B
000275 077d      	.DW  _0x223+332
000276 02eb      	.DW  _0x0*2+573
                 
000277 0001      	.DW  0x01
000278 0875      	.DW  __seed_G100
000279 0352      	.DW  _0x2000060*2
                 
00027a 0001      	.DW  0x01
00027b 078a      	.DW  _twi_result
00027c 035e      	.DW  _0x2060003*2
                 
00027d 0002      	.DW  0x02
00027e 0885      	.DW  __base_y_G104
00027f 0360      	.DW  _0x2080003*2
                 
                 _0xFFFFFFFF:
000280 0000      	.DW  0
                 
                 #define __GLOBAL_INI_TBL_PRESENT 1
                 
                 __RESET:
000281 94f8      	CLI
000282 27ee      	CLR  R30
000283 bbec      	OUT  EECR,R30
                 
                 ;INTERRUPT VECTORS ARE PLACED
                 ;AT THE START OF FLASH
000284 e0f1      	LDI  R31,1
000285 bff5      	OUT  MCUCR,R31
000286 bfe5      	OUT  MCUCR,R30
000287 93e0 006c 	STS  XMCRB,R30
                 
                 ;CLEAR R2-R14
000289 e08d      	LDI  R24,(14-2)+1
00028a e0a2      	LDI  R26,2
00028b 27bb      	CLR  R27
                 __CLEAR_REG:
00028c 93ed      	ST   X+,R30
00028d 958a      	DEC  R24
00028e f7e9      	BRNE __CLEAR_REG
                 
                 ;CLEAR SRAM
00028f e080      	LDI  R24,LOW(__CLEAR_SRAM_SIZE)
000290 e190      	LDI  R25,HIGH(__CLEAR_SRAM_SIZE)
000291 e0a0      	LDI  R26,LOW(__SRAM_START)
000292 e0b1      	LDI  R27,HIGH(__SRAM_START)
                 __CLEAR_SRAM:
000293 93ed      	ST   X+,R30
000294 9701      	SBIW R24,1
000295 f7e9      	BRNE __CLEAR_SRAM
                 
                 ;GLOBAL VARIABLES INITIALIZATION
000296 e6e2      	LDI  R30,LOW(__GLOBAL_INI_TBL*2)
000297 e0f3      	LDI  R31,HIGH(__GLOBAL_INI_TBL*2)
                 __GLOBAL_INI_NEXT:
000298 9185      	LPM  R24,Z+
000299 9195      	LPM  R25,Z+
00029a 9700      	SBIW R24,0
00029b f061      	BREQ __GLOBAL_INI_END
00029c 91a5      	LPM  R26,Z+
00029d 91b5      	LPM  R27,Z+
00029e 9005      	LPM  R0,Z+
00029f 9015      	LPM  R1,Z+
0002a0 01bf      	MOVW R22,R30
0002a1 01f0      	MOVW R30,R0
                 __GLOBAL_INI_LOOP:
0002a2 9005      	LPM  R0,Z+
0002a3 920d      	ST   X+,R0
0002a4 9701      	SBIW R24,1
0002a5 f7e1      	BRNE __GLOBAL_INI_LOOP
0002a6 01fb      	MOVW R30,R22
0002a7 cff0      	RJMP __GLOBAL_INI_NEXT
                 __GLOBAL_INI_END:
                 
0002a8 bf8b      	OUT  RAMPZ,R24
                 
                 ;HARDWARE STACK POINTER INITIALIZATION
0002a9 efef      	LDI  R30,LOW(__SRAM_END-__HEAP_SIZE)
0002aa bfed      	OUT  SPL,R30
0002ab e1e0      	LDI  R30,HIGH(__SRAM_END-__HEAP_SIZE)
0002ac bfee      	OUT  SPH,R30
                 
                 ;DATA STACK POINTER INITIALIZATION
0002ad e0c0      	LDI  R28,LOW(__SRAM_START+__DSTACK_SIZE)
0002ae e0d5      	LDI  R29,HIGH(__SRAM_START+__DSTACK_SIZE)
                 
0002af 940c 106e 	JMP  _main
                 
                 	.ESEG
                 	.ORG 0
                 
                 	.DSEG
                 	.ORG 0x500
                 
                 	.CSEG
                 ;/*******************************************************
                 ;This program was created by the
                 ;CodeWizardAVR V3.17 UL Advanced
                 ;Automatic Program Generator
                 ; Copyright 1998-2014 Pavel Haiduc, HP InfoTech s.r.l.
                 ;http://www.hpinfotech.com
                 ;
                 ;Project : BlueMatics
                 ;Version : 0.0.8
                 ;Date    : 28.11.2017
                 ;Author  : Viktor Lau
                 ;Company : https://lauviktor.de
                 ;Comments:
                 ;
                 ;
                 ;Chip type               : ATmega128
                 ;Program type            : Application
                 ;AVR Core Clock frequency: 16,000000 MHz
                 ;Memory model            : Small
                 ;External RAM size       : 0
                 ;Data Stack size         : 1024
                 ;*******************************************************/
                 ;
                 ;//Header includes
                 ;#include <mega128.h>
                 	#ifndef __SLEEP_DEFINED__
                 	#define __SLEEP_DEFINED__
                 	.EQU __se_bit=0x20
                 	.EQU __sm_mask=0x1C
                 	.EQU __sm_powerdown=0x10
                 	.EQU __sm_powersave=0x18
                 	.EQU __sm_standby=0x14
                 	.EQU __sm_ext_standby=0x1C
                 	.EQU __sm_adc_noise_red=0x08
                 	.SET power_ctrl_reg=mcucr
                 	#endif
                 ;#include <delay.h>
                 ;#include <stdlib.h>
                 ;#include <string.h>
                 ;#include <stdint.h>
                 ;#include <stdio.h>
                 ;#include <twi.h>
                 ;#include <i2c.h>
                 ;#include <io.h>
                 ;
                 ;#define puts lcd_puts
                 ;//STATES
                 ;#define state_linedetector  0
                 ;#define state_engine  1
                 ;#define state_engine_dir  2
                 ;#define state_distance_sensor  3
                 ;#define state_lightsensor  4
                 ;#define state_wiicam  5
                 ;#define state_irtower  6
                 ;#define state_servo  7
                 ;#define state_ultrasonic  8
                 ;#define state_vor  9
                 ;#define state_zur  10
                 ;#define state_links  11
                 ;#define state_rechts  12
                 ;#define state_90links  13
                 ;#define state_90rechts  14
                 ;#define state_drehung  15
                 ;#define state_meterlinksmeterrechts  16
                 ;#define state_2  17
                 ;#define state_3  18
                 ;#define state_stop 19
                 ;
                 ;
                 ;#include "modules/variables.h"
                 
                 	.DSEG
                 ;#include "modules/port_init.h"
                 
                 	.CSEG
                 _adc_isr:
                 ; .FSTART _adc_isr
0002b1 938a      	ST   -Y,R24
0002b2 93aa      	ST   -Y,R26
0002b3 93ba      	ST   -Y,R27
0002b4 93ea      	ST   -Y,R30
0002b5 93fa      	ST   -Y,R31
0002b6 b7ef      	IN   R30,SREG
0002b7 93ea      	ST   -Y,R30
0002b8 91e0 0868 	LDS  R30,_input_index_S0000000000
0002ba e5ac      	LDI  R26,LOW(_adc_data)
0002bb e0b8      	LDI  R27,HIGH(_adc_data)
0002bc e0f0      	LDI  R31,0
0002bd 0fee      	LSL  R30
0002be 1fff      	ROL  R31
0002bf 0fae      	ADD  R26,R30
0002c0 1fbf      	ADC  R27,R31
0002c1 b1e4      	IN   R30,0x4
0002c2 b1f5      	IN   R31,0x4+1
0002c3 93ed      	ST   X+,R30
0002c4 93fc      	ST   X,R31
0002c5 91a0 0868 	LDS  R26,_input_index_S0000000000
0002c7 5faf      	SUBI R26,-LOW(1)
0002c8 93a0 0868 	STS  _input_index_S0000000000,R26
0002ca 30a6      	CPI  R26,LOW(0x6)
0002cb f018      	BRLO _0x5
0002cc e0e0      	LDI  R30,LOW(0)
0002cd 93e0 0868 	STS  _input_index_S0000000000,R30
                 _0x5:
0002cf 91e0 0868 	LDS  R30,_input_index_S0000000000
0002d1 5ce0      	SUBI R30,-LOW(64)
0002d2 b9e7      	OUT  0x7,R30
                +
0002d3 e385     +LDI R24 , LOW ( 53 )
                +__DELAY_USB_LOOP :
0002d4 958a     +DEC R24
0002d5 f7f1     +BRNE __DELAY_USB_LOOP
                 	__DELAY_USB 53
0002d6 9a36      	SBI  0x6,6
0002d7 91e9      	LD   R30,Y+
0002d8 bfef      	OUT  SREG,R30
0002d9 91f9      	LD   R31,Y+
0002da 91e9      	LD   R30,Y+
0002db 91b9      	LD   R27,Y+
0002dc 91a9      	LD   R26,Y+
0002dd 9189      	LD   R24,Y+
0002de 9518      	RETI
                 ; .FEND
                 _ext_int4_isr:
                 ; .FSTART _ext_int4_isr
0002df 940e 135d 	CALL SUBOPT_0x0
0002e1 940e 1364 	CALL SUBOPT_0x1
0002e3 32a0      	CPI  R26,LOW(0x4E20)
0002e4 e4ee      	LDI  R30,HIGH(0x4E20)
0002e5 07be      	CPC  R27,R30
0002e6 f42c      	BRGE _0x6
0002e7 e6ab      	LDI  R26,LOW(_wheelEncoderCounter_right)
0002e8 e0b8      	LDI  R27,HIGH(_wheelEncoderCounter_right)
0002e9 940e 1369 	CALL SUBOPT_0x2
0002eb c002      	RJMP _0x7
                 _0x6:
0002ec 940e 136f 	CALL SUBOPT_0x3
                 _0x7:
0002ee c36f      	RJMP _0x269
                 ; .FEND
                 _ext_int6_isr:
                 ; .FSTART _ext_int6_isr
0002ef 940e 135d 	CALL SUBOPT_0x0
0002f1 940e 1375 	CALL SUBOPT_0x4
0002f3 32a0      	CPI  R26,LOW(0x4E20)
0002f4 e4ee      	LDI  R30,HIGH(0x4E20)
0002f5 07be      	CPC  R27,R30
0002f6 f42c      	BRGE _0x8
0002f7 e6a9      	LDI  R26,LOW(_wheelEncoderCounter_left)
0002f8 e0b8      	LDI  R27,HIGH(_wheelEncoderCounter_left)
0002f9 940e 1369 	CALL SUBOPT_0x2
0002fb c002      	RJMP _0x9
                 _0x8:
0002fc 940e 137a 	CALL SUBOPT_0x5
                 _0x9:
0002fe c35f      	RJMP _0x269
                 ; .FEND
                    .equ __lcd_port=0x15 ;PORTC
                 _port_init:
                 ; .FSTART _port_init
0002ff e8ea      	LDI  R30,LOW(138)
000300 bbea      	OUT  0x1A,R30
000301 e0e2      	LDI  R30,LOW(2)
000302 bbe7      	OUT  0x17,R30
000303 eae1      	LDI  R30,LOW(161)
000304 bbe1      	OUT  0x11,R30
000305 e0e4      	LDI  R30,LOW(4)
000306 b9e2      	OUT  0x2,R30
000307 e2e0      	LDI  R30,LOW(32)
000308 93e0 0061 	STS  97,R30
00030a e1a0      	LDI  R26,LOW(16)
00030b 940e 1329 	CALL _lcd_init
00030d e4e0      	LDI  R30,LOW(64)
00030e b9e7      	OUT  0x7,R30
00030f ecef      	LDI  R30,LOW(207)
000310 b9e6      	OUT  0x6,R30
000311 e0e0      	LDI  R30,LOW(0)
000312 bde0      	OUT  0x20,R30
000313 e8e0      	LDI  R30,LOW(128)
000314 b9e8      	OUT  0x8,R30
000315 e0e0      	LDI  R30,LOW(0)
000316 93e0 006a 	STS  106,R30
000318 e1e1      	LDI  R30,LOW(17)
000319 bfea      	OUT  0x3A,R30
00031a e5e0      	LDI  R30,LOW(80)
00031b bfe9      	OUT  0x39,R30
00031c e0e0      	LDI  R30,LOW(0)
00031d bfe8      	OUT  0x38,R30
00031e bfe0      	OUT  0x30,R30
00031f e0e6      	LDI  R30,LOW(6)
000320 bfe3      	OUT  0x33,R30
000321 e8e3      	LDI  R30,LOW(131)
000322 bfe2      	OUT  0x32,R30
000323 e0e0      	LDI  R30,LOW(0)
000324 bfe1      	OUT  0x31,R30
000325 e0e1      	LDI  R30,LOW(1)
000326 bdef      	OUT  0x2F,R30
000327 e0ea      	LDI  R30,LOW(10)
000328 bdee      	OUT  0x2E,R30
000329 e0e0      	LDI  R30,LOW(0)
00032a bded      	OUT  0x2D,R30
00032b bdec      	OUT  0x2C,R30
00032c bde7      	OUT  0x27,R30
00032d bde6      	OUT  0x26,R30
00032e bdeb      	OUT  0x2B,R30
00032f bdea      	OUT  0x2A,R30
000330 bde9      	OUT  0x29,R30
000331 bde8      	OUT  0x28,R30
000332 93e0 0079 	STS  121,R30
000334 93e0 0078 	STS  120,R30
000336 e0e4      	LDI  R30,LOW(4)
000337 bde5      	OUT  0x25,R30
000338 e0e0      	LDI  R30,LOW(0)
000339 bde4      	OUT  0x24,R30
00033a bde3      	OUT  0x23,R30
00033b 93e0 008b 	STS  139,R30
00033d eceb      	LDI  R30,LOW(203)
00033e 93e0 008a 	STS  138,R30
000340 e0e0      	LDI  R30,LOW(0)
000341 93e0 0089 	STS  137,R30
000343 93e0 0088 	STS  136,R30
000345 93e0 0081 	STS  129,R30
000347 93e0 0080 	STS  128,R30
000349 e6e1      	LDI  R30,LOW(97)
00034a 93e0 0087 	STS  135,R30
00034c eae8      	LDI  R30,LOW(168)
00034d 93e0 0086 	STS  134,R30
00034f e0e0      	LDI  R30,LOW(0)
000350 93e0 0085 	STS  133,R30
000352 93e0 0084 	STS  132,R30
000354 93e0 0083 	STS  131,R30
000356 93e0 0082 	STS  130,R30
000358 e4e5      	LDI  R30,LOW(69)
000359 bfe7      	OUT  0x37,R30
00035a e3e0      	LDI  R30,LOW(48)
00035b 93e0 007d 	STS  125,R30
00035d 9478      	sei
00035e 9508      	RET
                 ; .FEND
                 ;#include "modules/pwm.h"
                 _timer1_ovf_isr:
                 ; .FSTART _timer1_ovf_isr
00035f 940e 135d 	CALL SUBOPT_0x0
000361 e9ec      	LDI  R30,LOW(156)
000362 bdec      	OUT  0x2C,R30
000363 eca9      	LDI  R26,LOW(_ipwmcounter)
000364 e0b7      	LDI  R27,HIGH(_ipwmcounter)
000365 940e 1369 	CALL SUBOPT_0x2
000367 940e 1380 	CALL SUBOPT_0x6
000369 30a0      	CPI  R26,LOW(0x100)
00036a e0e1      	LDI  R30,HIGH(0x100)
00036b 07be      	CPC  R27,R30
00036c f02c      	BRLT _0xA
00036d e0e0      	LDI  R30,LOW(0)
00036e 93e0 07c9 	STS  _ipwmcounter,R30
000370 93e0 07ca 	STS  _ipwmcounter+1,R30
                 _0xA:
000372 91e0 07cb 	LDS  R30,_ipwmcompareleft
000374 91f0 07cc 	LDS  R31,_ipwmcompareleft+1
000376 940e 1380 	CALL SUBOPT_0x6
000378 17ae      	CP   R26,R30
000379 07bf      	CPC  R27,R31
00037a f014      	BRLT _0xB
00037b 98db      	CBI  0x1B,3
00037c c001      	RJMP _0xE
                 _0xB:
00037d 9adb      	SBI  0x1B,3
                 _0xE:
00037e 91e0 07cd 	LDS  R30,_ipwmcompareright
000380 91f0 07ce 	LDS  R31,_ipwmcompareright+1
000382 940e 1380 	CALL SUBOPT_0x6
000384 17ae      	CP   R26,R30
000385 07bf      	CPC  R27,R31
000386 f014      	BRLT _0x11
000387 98d9      	CBI  0x1B,1
000388 c001      	RJMP _0x14
                 _0x11:
000389 9ad9      	SBI  0x1B,1
                 _0x14:
00038a c2d3      	RJMP _0x269
                 ; .FEND
                 _movement:
                 ; .FSTART _movement
00038b 93ba      	ST   -Y,R27
00038c 93aa      	ST   -Y,R26
                 ;	left -> Y+6
                 ;	right -> Y+4
                 ;	dir_left -> Y+2
                 ;	dir_right -> Y+0
00038d 81ee      	LDD  R30,Y+6
00038e 81ff      	LDD  R31,Y+6+1
00038f 940e 1385 	CALL SUBOPT_0x7
000391 81ec      	LDD  R30,Y+4
000392 81fd      	LDD  R31,Y+4+1
000393 940e 138a 	CALL SUBOPT_0x8
000395 81ea      	LDD  R30,Y+2
000396 30e0      	CPI  R30,0
000397 f411      	BRNE _0x17
000398 98df      	CBI  0x1B,7
000399 c001      	RJMP _0x18
                 _0x17:
00039a 9adf      	SBI  0x1B,7
                 _0x18:
00039b 81e8      	LD   R30,Y
00039c 30e0      	CPI  R30,0
00039d f411      	BRNE _0x19
00039e 98dd      	CBI  0x1B,5
00039f c001      	RJMP _0x1A
                 _0x19:
0003a0 9add      	SBI  0x1B,5
                 _0x1A:
0003a1 c08f      	RJMP _0x20E0007
                 ; .FEND
                 ;#include "modules/ir.h"
                 _timer0_ovf_isr:
                 ; .FSTART _timer0_ovf_isr
0003a2 940e 135d 	CALL SUBOPT_0x0
0003a4 efee      	LDI  R30,LOW(254)
0003a5 bfe2      	OUT  0x32,R30
0003a6 91a0 07cf 	LDS  R26,_rc5_time
0003a8 5faf      	SUBI R26,-LOW(1)
0003a9 93a0 07cf 	STS  _rc5_time,R26
0003ab 34a4      	CPI  R26,LOW(0x44)
0003ac f0a0      	BRLO _0x1B
                +
0003ad 91e0 07d3+LDS R30 , _tmp + ( 1 )
                 	__GETB1MN _tmp,1
0003af 74e0      	ANDI R30,LOW(0x40)
0003b0 f421      	BRNE _0x1D
                +
0003b1 91e0 07d3+LDS R30 , _tmp + ( 1 )
                 	__GETB1MN _tmp,1
0003b3 72e0      	ANDI R30,LOW(0x20)
0003b4 f409      	BRNE _0x1E
                 _0x1D:
0003b5 c006      	RJMP _0x1C
                 _0x1E:
0003b6 940e 138f 	CALL SUBOPT_0x9
0003b8 93e0 07d0 	STS  _rc5_data,R30
0003ba 93f0 07d1 	STS  _rc5_data+1,R31
                 _0x1C:
0003bc e0e0      	LDI  R30,LOW(0)
0003bd 93e0 07d2 	STS  _tmp,R30
0003bf 93e0 07d3 	STS  _tmp+1,R30
                 _0x1B:
0003c1 e0a0      	LDI  R26,0
0003c2 fc20      	SBRC R2,0
0003c3 e0a1      	LDI  R26,1
0003c4 e0e0      	LDI  R30,0
0003c5 99ca      	SBIC 0x19,2
0003c6 e0e1      	LDI  R30,1
0003c7 e0b0      	LDI  R27,0
0003c8 e0f0      	LDI  R31,0
0003c9 fde7      	SBRC R30,7
0003ca efff      	SER  R31
0003cb 17ea      	CP   R30,R26
0003cc 07fb      	CPC  R31,R27
0003cd f159      	BREQ _0x1F
0003ce e0e1      	LDI  R30,LOW(1)
0003cf 262e      	EOR  R2,R30
0003d0 91a0 07cf 	LDS  R26,_rc5_time
0003d2 30ab      	CPI  R26,LOW(0xB)
0003d3 f428      	BRSH _0x20
0003d4 e0e0      	LDI  R30,LOW(0)
0003d5 93e0 07d2 	STS  _tmp,R30
0003d7 93e0 07d3 	STS  _tmp+1,R30
                 _0x20:
0003d9 940e 138f 	CALL SUBOPT_0x9
0003db 9730      	SBIW R30,0
0003dc f021      	BREQ _0x22
0003dd 91a0 07cf 	LDS  R26,_rc5_time
0003df 32ad      	CPI  R26,LOW(0x2D)
0003e0 f0c0      	BRLO _0x21
                 _0x22:
                +
0003e1 91e0 07d3+LDS R30 , _tmp + ( 1 )
                 	__GETB1MN _tmp,1
0003e3 74e0      	ANDI R30,LOW(0x40)
0003e4 f441      	BRNE _0x24
0003e5 940e 138f 	CALL SUBOPT_0x9
0003e7 0fee      	LSL  R30
0003e8 1fff      	ROL  R31
0003e9 93e0 07d2 	STS  _tmp,R30
0003eb 93f0 07d3 	STS  _tmp+1,R31
                 _0x24:
0003ed fc20      	SBRC R2,0
0003ee c007      	RJMP _0x25
0003ef 940e 138f 	CALL SUBOPT_0x9
0003f1 60e1      	ORI  R30,1
0003f2 93e0 07d2 	STS  _tmp,R30
0003f4 93f0 07d3 	STS  _tmp+1,R31
                 _0x25:
0003f6 e0e0      	LDI  R30,LOW(0)
0003f7 93e0 07cf 	STS  _rc5_time,R30
                 _0x21:
                 _0x1F:
0003f9 c264      	RJMP _0x269
                 ; .FEND
                 _rc5_receive:
                 ; .FSTART _rc5_receive
0003fa 93ba      	ST   -Y,R27
0003fb 93aa      	ST   -Y,R26
0003fc 931a      	ST   -Y,R17
0003fd 930a      	ST   -Y,R16
                 ;	*ucToggle -> Y+6
                 ;	*ucAdress -> Y+4
                 ;	*ucData -> Y+2
                 ;	i -> R16,R17
0003fe 94f8      	cli
                +
0003ff 9100 07d0+LDS R16 , 0 + ( _rc5_data )
000401 9110 07d1+LDS R17 , 0 + ( _rc5_data ) + 1
                 	__GETWRMN 16,17,0,_rc5_data
000403 e0e0      	LDI  R30,LOW(0)
000404 93e0 07d0 	STS  _rc5_data,R30
000406 93e0 07d1 	STS  _rc5_data+1,R30
000408 9478      	sei
000409 2e00      	MOV  R0,R16
00040a 2a01      	OR   R0,R17
00040b f109      	BREQ _0x26
00040c 01d8      	MOVW R26,R16
00040d e0eb      	LDI  R30,LOW(11)
00040e 940e 1652 	CALL __LSRW12
000410 70e1      	ANDI R30,LOW(0x1)
000411 81ae      	LDD  R26,Y+6
000412 81bf      	LDD  R27,Y+6+1
000413 93ec      	ST   X,R30
000414 01d8      	MOVW R26,R16
000415 e0e6      	LDI  R30,LOW(6)
000416 940e 1652 	CALL __LSRW12
000418 71ef      	ANDI R30,LOW(0x1F)
000419 81ac      	LDD  R26,Y+4
00041a 81bd      	LDD  R27,Y+4+1
00041b 93ec      	ST   X,R30
00041c 2fe0      	MOV  R30,R16
00041d 73ef      	ANDI R30,LOW(0x3F)
00041e 2fae      	MOV  R26,R30
00041f 01f8      	MOVW R30,R16
000420 95e0      	COM  R30
000421 95f0      	COM  R31
000422 940e 1666 	CALL __LSRW3
000424 940e 1664 	CALL __LSRW4
000426 74e0      	ANDI R30,LOW(0x40)
000427 2bea      	OR   R30,R26
000428 81aa      	LDD  R26,Y+2
000429 81bb      	LDD  R27,Y+2+1
00042a 93ec      	ST   X,R30
00042b 01f8      	MOVW R30,R16
00042c c002      	RJMP _0x20E0006
                 _0x26:
00042d e0e0      	LDI  R30,LOW(0)
00042e e0f0      	LDI  R31,HIGH(0)
                 _0x20E0006:
00042f 8119      	LDD  R17,Y+1
000430 8108      	LDD  R16,Y+0
                 _0x20E0007:
000431 9628      	ADIW R28,8
000432 9508      	RET
                 ; .FEND
                 _rc5_display:
                 ; .FSTART _rc5_display
000433 940e 12ba 	CALL _lcd_clear
                +
000435 e0a0     +LDI R26 , LOW ( _0x28 + ( 0 ) )
000436 e0b5     +LDI R27 , HIGH ( _0x28 + ( 0 ) )
                 	__POINTW2MN _0x28,0
000437 940e 1394 	CALL SUBOPT_0xA
000439 91a0 07d4 	LDS  R26,_ucToggle
00043b 5da0      	SUBI R26,-LOW(48)
00043c 940e 12cf 	CALL _lcd_putchar
00043e e2a0      	LDI  R26,LOW(32)
00043f 940e 12cf 	CALL _lcd_putchar
000441 91e0 07d5 	LDS  R30,_ucAdress
000443 940e 139b 	CALL SUBOPT_0xB
000445 e2a0      	LDI  R26,LOW(32)
000446 940e 12cf 	CALL _lcd_putchar
000448 91e0 07d6 	LDS  R30,_ucData
00044a 940e 139b 	CALL SUBOPT_0xB
00044c 9508      	RET
                 ; .FEND
                 
                 	.DSEG
                 _0x28:
000500           	.BYTE 0x5
                 
                 	.CSEG
                 _ondata:
                 ; .FSTART _ondata
00044d ede4      	LDI  R30,LOW(_ucToggle)
00044e e0f7      	LDI  R31,HIGH(_ucToggle)
00044f 93fa      	ST   -Y,R31
000450 93ea      	ST   -Y,R30
000451 ede5      	LDI  R30,LOW(_ucAdress)
000452 e0f7      	LDI  R31,HIGH(_ucAdress)
000453 93fa      	ST   -Y,R31
000454 93ea      	ST   -Y,R30
000455 eda6      	LDI  R26,LOW(_ucData)
000456 e0b7      	LDI  R27,HIGH(_ucData)
000457 dfa2      	RCALL _rc5_receive
000458 9730      	SBIW R30,0
000459 f0e9      	BREQ _0x29
00045a 91e0 07d6 	LDS  R30,_ucData
00045c e0f0      	LDI  R31,0
00045d 9730      	SBIW R30,0
00045e f419      	BRNE _0x2D
00045f e1e3      	LDI  R30,LOW(19)
000460 e0f0      	LDI  R31,HIGH(19)
000461 c00d      	RJMP _0x252
                 _0x2D:
000462 30e1      	CPI  R30,LOW(0x1)
000463 e0a0      	LDI  R26,HIGH(0x1)
000464 07fa      	CPC  R31,R26
000465 f419      	BRNE _0x2E
000466 e0ef      	LDI  R30,LOW(15)
000467 e0f0      	LDI  R31,HIGH(15)
000468 c006      	RJMP _0x252
                 _0x2E:
000469 30e2      	CPI  R30,LOW(0x2)
00046a e0a0      	LDI  R26,HIGH(0x2)
00046b 07fa      	CPC  R31,R26
00046c f451      	BRNE _0x2C
00046d e1e0      	LDI  R30,LOW(16)
00046e e0f0      	LDI  R31,HIGH(16)
                 _0x252:
00046f 93e0 07b3 	STS  _state,R30
000471 93f0 07b4 	STS  _state+1,R31
000473 e6a4      	LDI  R26,LOW(100)
000474 e0b0      	LDI  R27,0
000475 940e 1543 	CALL _delay_ms
                 _0x2C:
                 _0x29:
000477 9508      	RET
                 ; .FEND
                 ;#include "modules/servo.h"
                 _timer2_ovf_isr:
                 ; .FSTART _timer2_ovf_isr
000478 93ea      	ST   -Y,R30
000479 93fa      	ST   -Y,R31
00047a b7ef      	IN   R30,SREG
00047b 93ea      	ST   -Y,R30
00047c 9897      	CBI  0x12,7
                +
00047d 1486     +CP R8 , R6
00047e 0497     +CPC R9 , R7
                 	__CPWRR 8,9,6,7
00047f f429      	BRNE _0x33
000480 e0e5      	LDI  R30,LOW(5)
000481 e0f0      	LDI  R31,HIGH(5)
000482 15e4      	CP   R30,R4
000483 05f5      	CPC  R31,R5
000484 f439      	BRNE _0x32
                 _0x33:
000485 0143      	MOVW R8,R6
000486 e0e1      	LDI  R30,LOW(1)
000487 e0f0      	LDI  R31,HIGH(1)
000488 012f      	MOVW R4,R30
000489 bc64      	OUT  0x24,R6
00048a 9a97      	SBI  0x12,7
00048b c005      	RJMP _0x37
                 _0x32:
00048c 01f2      	MOVW R30,R4
00048d 9631      	ADIW R30,1
00048e 012f      	MOVW R4,R30
00048f e0e0      	LDI  R30,LOW(0)
000490 bde4      	OUT  0x24,R30
                 _0x37:
000491 91e9      	LD   R30,Y+
000492 bfef      	OUT  SREG,R30
000493 91f9      	LD   R31,Y+
000494 91e9      	LD   R30,Y+
000495 9518      	RETI
                 ; .FEND
                 _fnDisplay:
                 ; .FSTART _fnDisplay
000496 972a      	SBIW R28,10
                 ;	str -> Y+0
000497 940e 12ba 	CALL _lcd_clear
                +
000499 e0a5     +LDI R26 , LOW ( _0x38 + ( 0 ) )
00049a e0b5     +LDI R27 , HIGH ( _0x38 + ( 0 ) )
                 	__POINTW2MN _0x38,0
00049b 940e 1394 	CALL SUBOPT_0xA
00049d 01f3      	MOVW R30,R6
00049e 5aea      	SUBI R30,LOW(170)
00049f 40f0      	SBCI R31,HIGH(170)
0004a0 93fa      	ST   -Y,R31
0004a1 93ea      	ST   -Y,R30
0004a2 e8ab      	LDI  R26,LOW(_strTemp)
0004a3 e0b7      	LDI  R27,HIGH(_strTemp)
0004a4 940e 1080 	CALL _itoa
0004a6 e8ab      	LDI  R26,LOW(_strTemp)
0004a7 e0b7      	LDI  R27,HIGH(_strTemp)
0004a8 940e 12f6 	CALL _lcd_puts
0004aa c22f      	RJMP _0x20E0005
                 ; .FEND
                 
                 	.DSEG
                 _0x38:
000505           	.BYTE 0xF
                 ;#include "modules/esp_main_func.h"
                 
                 	.CSEG
                 _esp_states:
                 ; .FSTART _esp_states
0004ab 940e 13a6 	CALL SUBOPT_0xC
0004ad 9754      	SBIW R26,20
0004ae f441      	BRNE _0x39
0004af edec      	LDI  R30,LOW(220)
0004b0 e0f0      	LDI  R31,HIGH(220)
0004b1 166e      	CP   R6,R30
0004b2 067f      	CPC  R7,R31
0004b3 f41c      	BRGE _0x3A
0004b4 01f3      	MOVW R30,R6
0004b5 9631      	ADIW R30,1
0004b6 013f      	MOVW R6,R30
                 _0x3A:
                 _0x39:
0004b7 940e 13a6 	CALL SUBOPT_0xC
0004b9 9755      	SBIW R26,21
0004ba f441      	BRNE _0x3B
0004bb e7e8      	LDI  R30,LOW(120)
0004bc e0f0      	LDI  R31,HIGH(120)
0004bd 15e6      	CP   R30,R6
0004be 05f7      	CPC  R31,R7
0004bf f41c      	BRGE _0x3C
0004c0 01f3      	MOVW R30,R6
0004c1 9731      	SBIW R30,1
0004c2 013f      	MOVW R6,R30
                 _0x3C:
                 _0x3B:
0004c3 940e 13a6 	CALL SUBOPT_0xC
0004c5 9710      	SBIW R26,0
0004c6 f419      	BRNE _0x3D
0004c7 e1e3      	LDI  R30,LOW(19)
0004c8 e0f0      	LDI  R31,HIGH(19)
0004c9 c005      	RJMP _0x253
                 _0x3D:
0004ca 91e0 07b1 	LDS  R30,_currstate
0004cc 91f0 07b2 	LDS  R31,_currstate+1
0004ce 9731      	SBIW R30,1
                 _0x253:
0004cf 93e0 07b3 	STS  _state,R30
0004d1 93f0 07b4 	STS  _state+1,R31
0004d3 9508      	RET
                 ; .FEND
                 _esp_mainfunctions:
                 ; .FSTART _esp_mainfunctions
0004d4 9900      	SBIC 0x0,0
0004d5 c003      	RJMP _0x40
0004d6 e0e1      	LDI  R30,LOW(1)
0004d7 e0f0      	LDI  R31,HIGH(1)
0004d8 c002      	RJMP _0x254
                 _0x40:
0004d9 e0e0      	LDI  R30,LOW(0)
0004da e0f0      	LDI  R31,HIGH(0)
                 _0x254:
0004db 93e0 07b5 	STS  _line_left,R30
0004dd 93f0 07b6 	STS  _line_left+1,R31
0004df 9902      	SBIC 0x0,2
0004e0 c003      	RJMP _0x43
0004e1 e0e1      	LDI  R30,LOW(1)
0004e2 e0f0      	LDI  R31,HIGH(1)
0004e3 c002      	RJMP _0x255
                 _0x43:
0004e4 e0e0      	LDI  R30,LOW(0)
0004e5 e0f0      	LDI  R31,HIGH(0)
                 _0x255:
0004e6 93e0 07b7 	STS  _line_mleft,R30
0004e8 93f0 07b8 	STS  _line_mleft+1,R31
0004ea 9904      	SBIC 0x0,4
0004eb c003      	RJMP _0x46
0004ec e0e1      	LDI  R30,LOW(1)
0004ed e0f0      	LDI  R31,HIGH(1)
0004ee c002      	RJMP _0x256
                 _0x46:
0004ef e0e0      	LDI  R30,LOW(0)
0004f0 e0f0      	LDI  R31,HIGH(0)
                 _0x256:
0004f1 93e0 07b9 	STS  _line_mright,R30
0004f3 93f0 07ba 	STS  _line_mright+1,R31
0004f5 9906      	SBIC 0x0,6
0004f6 c003      	RJMP _0x49
0004f7 e0e1      	LDI  R30,LOW(1)
0004f8 e0f0      	LDI  R31,HIGH(1)
0004f9 c002      	RJMP _0x257
                 _0x49:
0004fa e0e0      	LDI  R30,LOW(0)
0004fb e0f0      	LDI  R31,HIGH(0)
                 _0x257:
0004fc 93e0 07bb 	STS  _line_right,R30
0004fe 93f0 07bc 	STS  _line_right+1,R31
000500 91e0 07b5 	LDS  R30,_line_left
000502 91f0 07b6 	LDS  R31,_line_left+1
000504 eea8      	LDI  R26,LOW(1000)
000505 e0b3      	LDI  R27,HIGH(1000)
000506 940e 1684 	CALL __MULW12
000508 01bf      	MOVW R22,R30
000509 91e0 07b7 	LDS  R30,_line_mleft
00050b 91f0 07b8 	LDS  R31,_line_mleft+1
00050d 940e 13ab 	CALL SUBOPT_0xD
00050f 91e0 07b9 	LDS  R30,_line_mright
000511 91f0 07ba 	LDS  R31,_line_mright+1
000513 940e 13b2 	CALL SUBOPT_0xE
000515 91a0 07bb 	LDS  R26,_line_right
000517 91b0 07bc 	LDS  R27,_line_right+1
000519 0fea      	ADD  R30,R26
00051a 1ffb      	ADC  R31,R27
00051b 93e0 07c5 	STS  _linesensorvaluetemp,R30
00051d 93f0 07c6 	STS  _linesensorvaluetemp+1,R31
00051f 99b0      	SBIC 0x16,0
000520 c003      	RJMP _0x4C
000521 e0e1      	LDI  R30,LOW(1)
000522 e0f0      	LDI  R31,HIGH(1)
000523 c002      	RJMP _0x258
                 _0x4C:
000524 e0e0      	LDI  R30,LOW(0)
000525 e0f0      	LDI  R31,HIGH(0)
                 _0x258:
000526 93e0 07bd 	STS  _dist_left,R30
000528 93f0 07be 	STS  _dist_left+1,R31
00052a 99b2      	SBIC 0x16,2
00052b c003      	RJMP _0x4F
00052c e0e1      	LDI  R30,LOW(1)
00052d e0f0      	LDI  R31,HIGH(1)
00052e c002      	RJMP _0x259
                 _0x4F:
00052f e0e0      	LDI  R30,LOW(0)
000530 e0f0      	LDI  R31,HIGH(0)
                 _0x259:
000531 93e0 07bf 	STS  _dist_fleft,R30
000533 93f0 07c0 	STS  _dist_fleft+1,R31
000535 99b4      	SBIC 0x16,4
000536 c003      	RJMP _0x52
000537 e0e1      	LDI  R30,LOW(1)
000538 e0f0      	LDI  R31,HIGH(1)
000539 c002      	RJMP _0x25A
                 _0x52:
00053a e0e0      	LDI  R30,LOW(0)
00053b e0f0      	LDI  R31,HIGH(0)
                 _0x25A:
00053c 93e0 07c1 	STS  _dist_fright,R30
00053e 93f0 07c2 	STS  _dist_fright+1,R31
000540 99b6      	SBIC 0x16,6
000541 c003      	RJMP _0x55
000542 e0e1      	LDI  R30,LOW(1)
000543 e0f0      	LDI  R31,HIGH(1)
000544 c002      	RJMP _0x25B
                 _0x55:
000545 e0e0      	LDI  R30,LOW(0)
000546 e0f0      	LDI  R31,HIGH(0)
                 _0x25B:
000547 93e0 07c3 	STS  _dist_right,R30
000549 93f0 07c4 	STS  _dist_right+1,R31
00054b 91e0 07bd 	LDS  R30,_dist_left
00054d 91f0 07be 	LDS  R31,_dist_left+1
00054f eea8      	LDI  R26,LOW(1000)
000550 e0b3      	LDI  R27,HIGH(1000)
000551 940e 1684 	CALL __MULW12
000553 01bf      	MOVW R22,R30
000554 91e0 07bf 	LDS  R30,_dist_fleft
000556 91f0 07c0 	LDS  R31,_dist_fleft+1
000558 940e 13ab 	CALL SUBOPT_0xD
00055a 91e0 07c1 	LDS  R30,_dist_fright
00055c 91f0 07c2 	LDS  R31,_dist_fright+1
00055e 940e 13b2 	CALL SUBOPT_0xE
000560 91a0 07c3 	LDS  R26,_dist_right
000562 91b0 07c4 	LDS  R27,_dist_right+1
000564 0fea      	ADD  R30,R26
000565 1ffb      	ADC  R31,R27
000566 93e0 07c7 	STS  _distanzsensorvaluetemp,R30
000568 93f0 07c8 	STS  _distanzsensorvaluetemp+1,R31
00056a 9508      	RET
                 ; .FEND
                 ;#include "modules/wiicam.h"
                 _wii_cam_init:
                 ; .FSTART _wii_cam_init
00056b e3e0      	LDI  R30,LOW(48)
00056c 93ea      	ST   -Y,R30
00056d e0a1      	LDI  R26,LOW(1)
00056e d016      	RCALL _write2Byte
00056f e3e0      	LDI  R30,LOW(48)
000570 93ea      	ST   -Y,R30
000571 e0a8      	LDI  R26,LOW(8)
000572 d012      	RCALL _write2Byte
000573 e0e6      	LDI  R30,LOW(6)
000574 93ea      	ST   -Y,R30
000575 e9a0      	LDI  R26,LOW(144)
000576 d00e      	RCALL _write2Byte
000577 e0e8      	LDI  R30,LOW(8)
000578 93ea      	ST   -Y,R30
000579 eca0      	LDI  R26,LOW(192)
00057a d00a      	RCALL _write2Byte
00057b e1ea      	LDI  R30,LOW(26)
00057c 93ea      	ST   -Y,R30
00057d e4a0      	LDI  R26,LOW(64)
00057e d006      	RCALL _write2Byte
00057f e3e3      	LDI  R30,LOW(51)
000580 93ea      	ST   -Y,R30
000581 e3a3      	LDI  R26,LOW(51)
000582 d002      	RCALL _write2Byte
000583 e6a4      	LDI  R26,LOW(100)
000584 c222      	RJMP _0x20E0004
                 ; .FEND
                 _write2Byte:
                 ; .FSTART _write2Byte
000585 93aa      	ST   -Y,R26
                 ;	b1 -> Y+1
                 ;	b2 -> Y+0
000586 940e 14f7 	CALL _i2c_start
000588 eba0      	LDI  R26,LOW(176)
000589 940e 152b 	CALL _i2c_write
00058b 81a9      	LDD  R26,Y+1
00058c 940e 152b 	CALL _i2c_write
00058e 81a8      	LD   R26,Y
00058f 940e 152b 	CALL _i2c_write
000591 940e 1506 	CALL _i2c_stop
000593 e0aa      	LDI  R26,LOW(10)
000594 e0b0      	LDI  R27,0
000595 940e 1543 	CALL _delay_ms
000597 9622      	ADIW R28,2
000598 9508      	RET
                 ; .FEND
                 _readData:
                 ; .FSTART _readData
000599 931a      	ST   -Y,R17
                 ;	i -> R17
00059a e010      	LDI  R17,0
00059b 940e 14f7 	CALL _i2c_start
00059d eba0      	LDI  R26,LOW(176)
00059e 940e 152b 	CALL _i2c_write
0005a0 e3a6      	LDI  R26,LOW(54)
0005a1 940e 152b 	CALL _i2c_write
0005a3 940e 1506 	CALL _i2c_stop
0005a5 e0a1      	LDI  R26,LOW(1)
0005a6 e0b0      	LDI  R27,0
0005a7 940e 1543 	CALL _delay_ms
0005a9 940e 14f7 	CALL _i2c_start
0005ab eba1      	LDI  R26,LOW(177)
0005ac 940e 152b 	CALL _i2c_write
0005ae e010      	LDI  R17,LOW(0)
                 _0x59:
0005af 301f      	CPI  R17,15
0005b0 f490      	BRSH _0x5A
0005b1 2fe1      	MOV  R30,R17
0005b2 e2a1      	LDI  R26,LOW(_data)
0005b3 e0b8      	LDI  R27,HIGH(_data)
0005b4 e0f0      	LDI  R31,0
0005b5 940e 13b9 	CALL SUBOPT_0xF
0005b7 93ff      	PUSH R31
0005b8 93ef      	PUSH R30
0005b9 e0a1      	LDI  R26,LOW(1)
0005ba 940e 1510 	CALL _i2c_read
0005bc 91af      	POP  R26
0005bd 91bf      	POP  R27
0005be e0f0      	LDI  R31,0
0005bf 93ed      	ST   X+,R30
0005c0 93fc      	ST   X,R31
0005c1 5f1f      	SUBI R17,-1
0005c2 cfec      	RJMP _0x59
                 _0x5A:
0005c3 e0a0      	LDI  R26,LOW(0)
0005c4 940e 1510 	CALL _i2c_read
                +
0005c6 e3af     +LDI R26 , LOW ( _data + ( 30 ) )
0005c7 e0b8     +LDI R27 , HIGH ( _data + ( 30 ) )
                 	__POINTW2MN _data,30
0005c8 e0f0      	LDI  R31,0
0005c9 93ed      	ST   X+,R30
0005ca 93fc      	ST   X,R31
0005cb 940e 1506 	CALL _i2c_stop
0005cd 9119      	LD   R17,Y+
0005ce 9508      	RET
                 ; .FEND
                 _convertdata:
                 ; .FSTART _convertdata
0005cf 931a      	ST   -Y,R17
0005d0 930a      	ST   -Y,R16
                 ;	i -> R16,R17
                +
0005d1 e000     +LDI R16 , LOW ( 0 )
0005d2 e010     +LDI R17 , HIGH ( 0 )
                 	__GETWRN 16,17,0
                +
0005d3 e000     +LDI R16 , LOW ( 0 )
0005d4 e010     +LDI R17 , HIGH ( 0 )
                 	__GETWRN 16,17,0
                 _0x5C:
                +
0005d5 3004     +CPI R16 , LOW ( 4 )
0005d6 e0e0     +LDI R30 , HIGH ( 4 )
0005d7 071e     +CPC R17 , R30
                 	__CPWRN 16,17,4
0005d8 f00c      	BRLT PC+2
0005d9 c048      	RJMP _0x5D
0005da 940e 13be 	CALL SUBOPT_0x10
0005dc 940e 13c4 	CALL SUBOPT_0x11
0005de 73e0      	ANDI R30,LOW(0x30)
0005df 70f0      	ANDI R31,HIGH(0x30)
0005e0 940e 165b 	CALL __LSLW4
0005e2 93e0 085a 	STS  _temp,R30
0005e4 93f0 085b 	STS  _temp+1,R31
0005e6 01f8      	MOVW R30,R16
0005e7 e4a6      	LDI  R26,LOW(_x)
0005e8 e0b8      	LDI  R27,HIGH(_x)
0005e9 940e 13b9 	CALL SUBOPT_0xF
0005eb 01bf      	MOVW R22,R30
0005ec 940e 13be 	CALL SUBOPT_0x10
0005ee 01df      	MOVW R26,R30
0005ef 0faa      	LSL  R26
0005f0 1fbb      	ROL  R27
                +
0005f1 5dad     +SUBI R26 , LOW ( - _data - ( 2 ) )
0005f2 4fb7     +SBCI R27 , HIGH ( - _data - ( 2 ) )
                 	__ADDW2MN _data,2
0005f3 940e 13cc 	CALL SUBOPT_0x12
0005f5 940e 13be 	CALL SUBOPT_0x10
0005f7 940e 13c4 	CALL SUBOPT_0x11
0005f9 7ce0      	ANDI R30,LOW(0xC0)
0005fa 70f0      	ANDI R31,HIGH(0xC0)
0005fb 940e 165f 	CALL __LSLW2
0005fd 93e0 085a 	STS  _temp,R30
0005ff 93f0 085b 	STS  _temp+1,R31
000601 01f8      	MOVW R30,R16
000602 e4ae      	LDI  R26,LOW(_y)
000603 e0b8      	LDI  R27,HIGH(_y)
000604 940e 13b9 	CALL SUBOPT_0xF
000606 01bf      	MOVW R22,R30
000607 940e 13be 	CALL SUBOPT_0x10
000609 01df      	MOVW R26,R30
00060a 0faa      	LSL  R26
00060b 1fbb      	ROL  R27
                +
00060c 5dab     +SUBI R26 , LOW ( - _data - ( 4 ) )
00060d 4fb7     +SBCI R27 , HIGH ( - _data - ( 4 ) )
                 	__ADDW2MN _data,4
00060e 940e 13cc 	CALL SUBOPT_0x12
000610 01f8      	MOVW R30,R16
000611 5aea      	SUBI R30,LOW(-_sWIICAM)
000612 4ff7      	SBCI R31,HIGH(-_sWIICAM)
000613 01bf      	MOVW R22,R30
000614 940e 13be 	CALL SUBOPT_0x10
000616 01df      	MOVW R26,R30
000617 0faa      	LSL  R26
000618 1fbb      	ROL  R27
                +
000619 5da9     +SUBI R26 , LOW ( - _data - ( 6 ) )
00061a 4fb7     +SBCI R27 , HIGH ( - _data - ( 6 ) )
                 	__ADDW2MN _data,6
00061b 91ec      	LD   R30,X
00061c 70ef      	ANDI R30,LOW(0xF)
00061d 01db      	MOVW R26,R22
00061e 93ec      	ST   X,R30
                +
00061f 5f0f     +SUBI R16 , LOW ( - 1 )
000620 4f1f     +SBCI R17 , HIGH ( - 1 )
                 	__ADDWRN 16,17,1
000621 cfb3      	RJMP _0x5C
                 _0x5D:
000622 9109      	LD   R16,Y+
000623 9119      	LD   R17,Y+
000624 9508      	RET
                 ; .FEND
                 ;#include "modules/ultrasonic.h"
                 _timer3_capt_isr:
                 ; .FSTART _timer3_capt_isr
000625 940e 135d 	CALL SUBOPT_0x0
000627 91e0 0080 	LDS  R30,128
000629 93e0 081f 	STS  _icr3,R30
00062b 91e0 0081 	LDS  R30,129
                +
00062d 93e0 0820+STS _icr3 + ( 1 ) , R30
                 	__PUTB1MN _icr3,1
00062f 9b0f      	SBIS 0x1,7
000630 c00e      	RJMP _0x5E
000631 91e0 081f 	LDS  R30,_icr3
000633 91f0 0820 	LDS  R31,_icr3+1
000635 93e0 0819 	STS  _iRisingEdge,R30
000637 93f0 081a 	STS  _iRisingEdge+1,R31
000639 91e0 008a 	LDS  R30,138
00063b 7bef      	ANDI R30,0xBF
00063c 93e0 008a 	STS  138,R30
00063e c01f      	RJMP _0x5F
                 _0x5E:
00063f 91e0 081f 	LDS  R30,_icr3
000641 91f0 0820 	LDS  R31,_icr3+1
000643 93e0 081b 	STS  _iFallingEdge,R30
000645 93f0 081c 	STS  _iFallingEdge+1,R31
000647 91e0 008a 	LDS  R30,138
000649 64e0      	ORI  R30,0x40
00064a 93e0 008a 	STS  138,R30
00064c 91a0 0819 	LDS  R26,_iRisingEdge
00064e 91b0 081a 	LDS  R27,_iRisingEdge+1
000650 91e0 081b 	LDS  R30,_iFallingEdge
000652 91f0 081c 	LDS  R31,_iFallingEdge+1
000654 1bea      	SUB  R30,R26
000655 0bfb      	SBC  R31,R27
000656 940e 165f 	CALL __LSLW2
000658 93e0 081d 	STS  _iTime,R30
00065a 93f0 081e 	STS  _iTime+1,R31
00065c 9468      	SET
00065d f822      	BLD  R2,2
                 _0x5F:
                 _0x269:
00065e 91e9      	LD   R30,Y+
00065f bfef      	OUT  SREG,R30
000660 91f9      	LD   R31,Y+
000661 91e9      	LD   R30,Y+
000662 91b9      	LD   R27,Y+
000663 91a9      	LD   R26,Y+
000664 9518      	RETI
                 ; .FEND
                 _timer3_compa_isr:
                 ; .FSTART _timer3_compa_isr
000665 938a      	ST   -Y,R24
000666 93ea      	ST   -Y,R30
000667 b7ef      	IN   R30,SREG
000668 9ac1      	SBI  0x18,1
                +
000669 e385     +LDI R24 , LOW ( 53 )
                +__DELAY_USB_LOOP :
00066a 958a     +DEC R24
00066b f7f1     +BRNE __DELAY_USB_LOOP
                 	__DELAY_USB 53
00066c 98c1      	CBI  0x18,1
00066d bfef      	OUT  SREG,R30
00066e 91e9      	LD   R30,Y+
00066f 9189      	LD   R24,Y+
000670 9518      	RETI
                 ; .FEND
                 ;#include "modules/states/states.h"
                 _STATE_LINE_SENSOR:
                 ; .FSTART _STATE_LINE_SENSOR
000671 940e 12ba 	CALL _lcd_clear
000673 9900      	SBIC 0x0,0
000674 c003      	RJMP _0x64
                +
000675 e1a4     +LDI R26 , LOW ( _0x65 + ( 0 ) )
000676 e0b5     +LDI R27 , HIGH ( _0x65 + ( 0 ) )
                 	__POINTW2MN _0x65,0
000677 c002      	RJMP _0x25C
                 _0x64:
                +
000678 e1ac     +LDI R26 , LOW ( _0x65 + ( 8 ) )
000679 e0b5     +LDI R27 , HIGH ( _0x65 + ( 8 ) )
                 	__POINTW2MN _0x65,8
                 _0x25C:
00067a 940e 12f6 	CALL _lcd_puts
00067c 9906      	SBIC 0x0,6
00067d c003      	RJMP _0x67
                +
00067e e2a4     +LDI R26 , LOW ( _0x65 + ( 16 ) )
00067f e0b5     +LDI R27 , HIGH ( _0x65 + ( 16 ) )
                 	__POINTW2MN _0x65,16
000680 c002      	RJMP _0x25D
                 _0x67:
                +
000681 e2ae     +LDI R26 , LOW ( _0x65 + ( 26 ) )
000682 e0b5     +LDI R27 , HIGH ( _0x65 + ( 26 ) )
                 	__POINTW2MN _0x65,26
                 _0x25D:
000683 940e 12f6 	CALL _lcd_puts
000685 940e 13d8 	CALL SUBOPT_0x13
000687 9902      	SBIC 0x0,2
000688 c003      	RJMP _0x69
                +
000689 e3a8     +LDI R26 , LOW ( _0x65 + ( 36 ) )
00068a e0b5     +LDI R27 , HIGH ( _0x65 + ( 36 ) )
                 	__POINTW2MN _0x65,36
00068b c002      	RJMP _0x25E
                 _0x69:
                +
00068c e4a1     +LDI R26 , LOW ( _0x65 + ( 45 ) )
00068d e0b5     +LDI R27 , HIGH ( _0x65 + ( 45 ) )
                 	__POINTW2MN _0x65,45
                 _0x25E:
00068e 940e 12f6 	CALL _lcd_puts
000690 9904      	SBIC 0x0,4
000691 c003      	RJMP _0x6B
                +
000692 e4aa     +LDI R26 , LOW ( _0x65 + ( 54 ) )
000693 e0b5     +LDI R27 , HIGH ( _0x65 + ( 54 ) )
                 	__POINTW2MN _0x65,54
000694 c002      	RJMP _0x25F
                 _0x6B:
                +
000695 e5a3     +LDI R26 , LOW ( _0x65 + ( 63 ) )
000696 e0b5     +LDI R27 , HIGH ( _0x65 + ( 63 ) )
                 	__POINTW2MN _0x65,63
                 _0x25F:
000697 940e 12f6 	CALL _lcd_puts
000699 9508      	RET
                 ; .FEND
                 
                 	.DSEG
                 _0x65:
000514           	.BYTE 0x48
                 
                 	.CSEG
                 _STATE_ENGINE:
                 ; .FSTART _STATE_ENGINE
00069a 9761      	SBIW R28,17
                 ;	str -> Y+0
00069b 940e 13dd 	CALL SUBOPT_0x14
00069d f439      	BRNE _0x6D
                +
00069e e5ac     +LDI R26 , LOW ( _0x6E + ( 0 ) )
00069f e0b5     +LDI R27 , HIGH ( _0x6E + ( 0 ) )
                 	__POINTW2MN _0x6E,0
0006a0 940e 12f6 	CALL _lcd_puts
0006a2 98df      	CBI  0x1B,7
0006a3 98dd      	CBI  0x1B,5
0006a4 c006      	RJMP _0x73
                 _0x6D:
                +
0006a5 e6ad     +LDI R26 , LOW ( _0x6E + ( 17 ) )
0006a6 e0b5     +LDI R27 , HIGH ( _0x6E + ( 17 ) )
                 	__POINTW2MN _0x6E,17
0006a7 940e 12f6 	CALL _lcd_puts
0006a9 9adf      	SBI  0x1B,7
0006aa 9add      	SBI  0x1B,5
                 _0x73:
0006ab 940e 13d8 	CALL SUBOPT_0x13
                +
0006ad e7ae     +LDI R26 , LOW ( _0x6E + ( 34 ) )
0006ae e0b5     +LDI R27 , HIGH ( _0x6E + ( 34 ) )
                 	__POINTW2MN _0x6E,34
0006af 940e 13eb 	CALL SUBOPT_0x15
                +
0006b1 e8a1     +LDI R26 , LOW ( _0x6E + ( 37 ) )
0006b2 e0b5     +LDI R27 , HIGH ( _0x6E + ( 37 ) )
                 	__POINTW2MN _0x6E,37
0006b3 940e 13fa 	CALL SUBOPT_0x16
0006b5 99ce      	SBIC 0x19,6
0006b6 c002      	RJMP _0x78
0006b7 940e 1409 	CALL SUBOPT_0x17
                 _0x78:
0006b9 9661      	ADIW R28,17
0006ba 9508      	RET
                 ; .FEND
                 
                 	.DSEG
                 _0x6E:
00055c           	.BYTE 0x29
                 
                 	.CSEG
                 _STATE_ENGINE_DIR:
                 ; .FSTART _STATE_ENGINE_DIR
0006bb 972a      	SBIW R28,10
                 ;	str -> Y+0
0006bc 940e 13dd 	CALL SUBOPT_0x14
0006be f439      	BRNE _0x79
                +
0006bf e8a5     +LDI R26 , LOW ( _0x7A + ( 0 ) )
0006c0 e0b5     +LDI R27 , HIGH ( _0x7A + ( 0 ) )
                 	__POINTW2MN _0x7A,0
0006c1 940e 12f6 	CALL _lcd_puts
0006c3 98df      	CBI  0x1B,7
0006c4 9add      	SBI  0x1B,5
0006c5 c006      	RJMP _0x7F
                 _0x79:
                +
0006c6 e9a5     +LDI R26 , LOW ( _0x7A + ( 16 ) )
0006c7 e0b5     +LDI R27 , HIGH ( _0x7A + ( 16 ) )
                 	__POINTW2MN _0x7A,16
0006c8 940e 12f6 	CALL _lcd_puts
0006ca 9adf      	SBI  0x1B,7
0006cb 98dd      	CBI  0x1B,5
                 _0x7F:
0006cc 940e 13d8 	CALL SUBOPT_0x13
                +
0006ce eaa4     +LDI R26 , LOW ( _0x7A + ( 31 ) )
0006cf e0b5     +LDI R27 , HIGH ( _0x7A + ( 31 ) )
                 	__POINTW2MN _0x7A,31
0006d0 940e 13eb 	CALL SUBOPT_0x15
                +
0006d2 eaa7     +LDI R26 , LOW ( _0x7A + ( 34 ) )
0006d3 e0b5     +LDI R27 , HIGH ( _0x7A + ( 34 ) )
                 	__POINTW2MN _0x7A,34
0006d4 940e 13fa 	CALL SUBOPT_0x16
0006d6 99ce      	SBIC 0x19,6
0006d7 c002      	RJMP _0x84
0006d8 940e 1409 	CALL SUBOPT_0x17
                 _0x84:
                 _0x20E0005:
0006da 962a      	ADIW R28,10
0006db 9508      	RET
                 ; .FEND
                 
                 	.DSEG
                 _0x7A:
000585           	.BYTE 0x26
                 
                 	.CSEG
                 _STATE_DISTANCE_SENSOR:
                 ; .FSTART _STATE_DISTANCE_SENSOR
0006dc 940e 12ba 	CALL _lcd_clear
0006de 99b0      	SBIC 0x16,0
0006df c003      	RJMP _0x85
                +
0006e0 eaab     +LDI R26 , LOW ( _0x86 + ( 0 ) )
0006e1 e0b5     +LDI R27 , HIGH ( _0x86 + ( 0 ) )
                 	__POINTW2MN _0x86,0
0006e2 c002      	RJMP _0x260
                 _0x85:
                +
0006e3 eba3     +LDI R26 , LOW ( _0x86 + ( 8 ) )
0006e4 e0b5     +LDI R27 , HIGH ( _0x86 + ( 8 ) )
                 	__POINTW2MN _0x86,8
                 _0x260:
0006e5 940e 12f6 	CALL _lcd_puts
0006e7 99b6      	SBIC 0x16,6
0006e8 c003      	RJMP _0x88
                +
0006e9 ebab     +LDI R26 , LOW ( _0x86 + ( 16 ) )
0006ea e0b5     +LDI R27 , HIGH ( _0x86 + ( 16 ) )
                 	__POINTW2MN _0x86,16
0006eb c002      	RJMP _0x261
                 _0x88:
                +
0006ec eca5     +LDI R26 , LOW ( _0x86 + ( 26 ) )
0006ed e0b5     +LDI R27 , HIGH ( _0x86 + ( 26 ) )
                 	__POINTW2MN _0x86,26
                 _0x261:
0006ee 940e 12f6 	CALL _lcd_puts
0006f0 940e 13d8 	CALL SUBOPT_0x13
0006f2 99b2      	SBIC 0x16,2
0006f3 c003      	RJMP _0x8A
                +
0006f4 ecaf     +LDI R26 , LOW ( _0x86 + ( 36 ) )
0006f5 e0b5     +LDI R27 , HIGH ( _0x86 + ( 36 ) )
                 	__POINTW2MN _0x86,36
0006f6 c002      	RJMP _0x262
                 _0x8A:
                +
0006f7 eda8     +LDI R26 , LOW ( _0x86 + ( 45 ) )
0006f8 e0b5     +LDI R27 , HIGH ( _0x86 + ( 45 ) )
                 	__POINTW2MN _0x86,45
                 _0x262:
0006f9 940e 12f6 	CALL _lcd_puts
0006fb 99b4      	SBIC 0x16,4
0006fc c003      	RJMP _0x8C
                +
0006fd eea1     +LDI R26 , LOW ( _0x86 + ( 54 ) )
0006fe e0b5     +LDI R27 , HIGH ( _0x86 + ( 54 ) )
                 	__POINTW2MN _0x86,54
0006ff c002      	RJMP _0x263
                 _0x8C:
                +
000700 eeaa     +LDI R26 , LOW ( _0x86 + ( 63 ) )
000701 e0b5     +LDI R27 , HIGH ( _0x86 + ( 63 ) )
                 	__POINTW2MN _0x86,63
                 _0x263:
000702 940e 12f6 	CALL _lcd_puts
000704 9508      	RET
                 ; .FEND
                 
                 	.DSEG
                 _0x86:
0005ab           	.BYTE 0x48
                 
                 	.CSEG
                 _STATE_LIGHTSENSOR:
                 ; .FSTART _STATE_LIGHTSENSOR
000705 972a      	SBIW R28,10
000706 940e 169d 	CALL __SAVELOCR4
                 ;	right -> R16,R17
                 ;	left -> R18,R19
                 ;	str -> Y+4
                +
000708 91e0 0862+LDS R30 , _adc_data + ( 6 )
00070a 91f0 0863+LDS R31 , _adc_data + ( 6 ) + 1
                 	__GETW1MN _adc_data,6
00070c 018f      	MOVW R16,R30
                +
00070d 91e0 085e+LDS R30 , _adc_data + ( 2 )
00070f 91f0 085f+LDS R31 , _adc_data + ( 2 ) + 1
                 	__GETW1MN _adc_data,2
000711 019f      	MOVW R18,R30
000712 940e 12ba 	CALL _lcd_clear
                +
000714 efa3     +LDI R26 , LOW ( _0x8E + ( 0 ) )
000715 e0b5     +LDI R27 , HIGH ( _0x8E + ( 0 ) )
                 	__POINTW2MN _0x8E,0
000716 940e 12f6 	CALL _lcd_puts
000718 933a      	ST   -Y,R19
000719 932a      	ST   -Y,R18
00071a 940e 1419 	CALL SUBOPT_0x18
00071c 940e 1394 	CALL SUBOPT_0xA
                +
00071e efa9     +LDI R26 , LOW ( _0x8E + ( 6 ) )
00071f e0b5     +LDI R27 , HIGH ( _0x8E + ( 6 ) )
                 	__POINTW2MN _0x8E,6
000720 940e 12f6 	CALL _lcd_puts
000722 931a      	ST   -Y,R17
000723 930a      	ST   -Y,R16
000724 940e 1419 	CALL SUBOPT_0x18
000726 940e 12f6 	CALL _lcd_puts
000728 940e 16a4 	CALL __LOADLOCR4
00072a 962e      	ADIW R28,14
00072b 9508      	RET
                 ; .FEND
                 
                 	.DSEG
                 _0x8E:
0005f3           	.BYTE 0xD
                 
                 	.CSEG
                 _STATE_WIICAM:
                 ; .FSTART _STATE_WIICAM
00072c 940e 169d 	CALL __SAVELOCR4
                 ;	iWII -> R17
                 ;	pwmleft -> R16
                 ;	pwmright -> R19
00072e e010      	LDI  R17,0
00072f de69      	RCALL _readData
000730 de9e      	RCALL _convertdata
000731 e010      	LDI  R17,LOW(0)
                 _0x90:
000732 3014      	CPI  R17,4
000733 f008      	BRLO PC+2
000734 c05f      	RJMP _0x91
000735 3014      	CPI  R17,4
000736 f558      	BRSH _0x92
000737 940e 1420 	CALL SUBOPT_0x19
000739 3fef      	CPI  R30,LOW(0x3FF)
00073a e0a3      	LDI  R26,HIGH(0x3FF)
00073b 07fa      	CPC  R31,R26
00073c f031      	BREQ _0x94
00073d 940e 142b 	CALL SUBOPT_0x1A
00073f 3fef      	CPI  R30,LOW(0x3FF)
000740 e0a3      	LDI  R26,HIGH(0x3FF)
000741 07fa      	CPC  R31,R26
000742 f409      	BRNE _0x93
                 _0x94:
000743 c01d      	RJMP _0x96
                 _0x93:
000744 940e 1420 	CALL SUBOPT_0x19
000746 940e 1436 	CALL SUBOPT_0x1B
000748 e1a4      	LDI  R26,LOW(20)
000749 021a      	MULS R17,R26
00074a 920a      	ST   -Y,R0
00074b 940e 143e 	CALL SUBOPT_0x1C
00074d 940e 142b 	CALL SUBOPT_0x1A
00074f 940e 1445 	CALL SUBOPT_0x1D
000751 e1a4      	LDI  R26,LOW(20)
000752 021a      	MULS R17,R26
000753 01f0      	MOVW R30,R0
000754 5fe8      	SUBI R30,-LOW(8)
000755 93ea      	ST   -Y,R30
000756 940e 143e 	CALL SUBOPT_0x1C
000758 940e 144d 	CALL SUBOPT_0x1E
00075a e1a4      	LDI  R26,LOW(20)
00075b 021a      	MULS R17,R26
00075c 01f0      	MOVW R30,R0
00075d 5fe0      	SUBI R30,-LOW(16)
00075e 93ea      	ST   -Y,R30
00075f 940e 143e 	CALL SUBOPT_0x1C
                 _0x96:
000761 c030      	RJMP _0x97
                 _0x92:
000762 940e 1420 	CALL SUBOPT_0x19
000764 3fef      	CPI  R30,LOW(0x3FF)
000765 e0a3      	LDI  R26,HIGH(0x3FF)
000766 07fa      	CPC  R31,R26
000767 f031      	BREQ _0x99
000768 940e 142b 	CALL SUBOPT_0x1A
00076a 3fef      	CPI  R30,LOW(0x3FF)
00076b e0a3      	LDI  R26,HIGH(0x3FF)
00076c 07fa      	CPC  R31,R26
00076d f409      	BRNE _0x98
                 _0x99:
00076e c023      	RJMP _0x9B
                 _0x98:
00076f 940e 1420 	CALL SUBOPT_0x19
000771 940e 1436 	CALL SUBOPT_0x1B
000773 2fe1      	MOV  R30,R17
000774 50e2      	SUBI R30,LOW(2)
000775 e1a4      	LDI  R26,LOW(20)
000776 02ea      	MULS R30,R26
000777 920a      	ST   -Y,R0
000778 940e 1459 	CALL SUBOPT_0x1F
00077a 940e 142b 	CALL SUBOPT_0x1A
00077c 940e 1445 	CALL SUBOPT_0x1D
00077e 2fe1      	MOV  R30,R17
00077f 50e2      	SUBI R30,LOW(2)
000780 e1a4      	LDI  R26,LOW(20)
000781 02ea      	MULS R30,R26
000782 01f0      	MOVW R30,R0
000783 5fe8      	SUBI R30,-LOW(8)
000784 93ea      	ST   -Y,R30
000785 940e 1459 	CALL SUBOPT_0x1F
000787 940e 144d 	CALL SUBOPT_0x1E
000789 2fe1      	MOV  R30,R17
00078a 50e2      	SUBI R30,LOW(2)
00078b e1a4      	LDI  R26,LOW(20)
00078c 02ea      	MULS R30,R26
00078d 01f0      	MOVW R30,R0
00078e 5fe0      	SUBI R30,-LOW(16)
00078f 93ea      	ST   -Y,R30
000790 940e 1459 	CALL SUBOPT_0x1F
                 _0x9B:
                 _0x97:
000792 5f1f      	SUBI R17,-1
000793 cf9e      	RJMP _0x90
                 _0x91:
000794 e1ae      	LDI  R26,LOW(30)
000795 e0b0      	LDI  R27,0
000796 940e 1543 	CALL _delay_ms
000798 9bc3      	SBIS 0x18,3
000799 c002      	RJMP _0x9C
00079a 98c3      	CBI  0x18,3
00079b c001      	RJMP _0x9D
                 _0x9C:
00079c 9ac3      	SBI  0x18,3
                 _0x9D:
00079d 940e 16a4 	CALL __LOADLOCR4
00079f 9624      	ADIW R28,4
0007a0 9508      	RET
                 ; .FEND
                 _STATE_IRTOWER:
                 ; .FSTART _STATE_IRTOWER
0007a1 dc91      	RCALL _rc5_display
0007a2 9508      	RET
                 ; .FEND
                 _STATE_SERVO:
                 ; .FSTART _STATE_SERVO
0007a3 940e 12ba 	CALL _lcd_clear
0007a5 dcf0      	RCALL _fnDisplay
0007a6 eca8      	LDI  R26,LOW(200)
                 _0x20E0004:
0007a7 e0b0      	LDI  R27,0
0007a8 940e 1543 	CALL _delay_ms
0007aa 9508      	RET
                 ; .FEND
                 _STATE_ULTRASONIC:
                 ; .FSTART _STATE_ULTRASONIC
0007ab fe22      	SBRS R2,2
0007ac c029      	RJMP _0x9E
0007ad 940e 13d8 	CALL SUBOPT_0x13
0007af 91a0 081d 	LDS  R26,_iTime
0007b1 91b0 081e 	LDS  R27,_iTime+1
0007b3 37a1      	CPI  R26,LOW(0x1771)
0007b4 e1e7      	LDI  R30,HIGH(0x1771)
0007b5 07be      	CPC  R27,R30
0007b6 f4b8      	BRSH _0x9F
0007b7 940e 12ba 	CALL _lcd_clear
                +
0007b9 e8a3     +LDI R26 , LOW ( 2 * _0x0 + ( 213 ) )
0007ba e0b1     +LDI R27 , HIGH ( 2 * _0x0 + ( 213 ) )
                 	__POINTW2FN _0x0,213
0007bb 940e 1305 	CALL _lcd_putsf
0007bd 940e 13d8 	CALL SUBOPT_0x13
0007bf 940e 1460 	CALL SUBOPT_0x20
0007c1 940e 157c 	CALL __CFD1
0007c3 93fa      	ST   -Y,R31
0007c4 93ea      	ST   -Y,R30
0007c5 e0a8      	LDI  R26,LOW(_strULTRA)
0007c6 e0b8      	LDI  R27,HIGH(_strULTRA)
0007c7 940e 1080 	CALL _itoa
0007c9 e0a8      	LDI  R26,LOW(_strULTRA)
0007ca e0b8      	LDI  R27,HIGH(_strULTRA)
0007cb 940e 12f6 	CALL _lcd_puts
0007cd c006      	RJMP _0xA0
                 _0x9F:
0007ce 940e 12ba 	CALL _lcd_clear
                +
0007d0 e9a3     +LDI R26 , LOW ( 2 * _0x0 + ( 229 ) )
0007d1 e0b1     +LDI R27 , HIGH ( 2 * _0x0 + ( 229 ) )
                 	__POINTW2FN _0x0,229
0007d2 940e 1305 	CALL _lcd_putsf
                 _0xA0:
0007d4 94e8      	CLT
0007d5 f822      	BLD  R2,2
                 _0x9E:
0007d6 9508      	RET
                 ; .FEND
                 _STATE_VOR:
                 ; .FSTART _STATE_VOR
0007d7 940e 1471 	CALL SUBOPT_0x21
0007d9 c00a      	RJMP _0x20E0003
                 ; .FEND
                 _STATE_ZUR:
                 ; .FSTART _STATE_ZUR
0007da 940e 1471 	CALL SUBOPT_0x21
0007dc 9adf      	SBI  0x1B,7
0007dd 9add      	SBI  0x1B,5
0007de 9508      	RET
                 ; .FEND
                 _STATE_LINKS:
                 ; .FSTART _STATE_LINKS
0007df 940e 1477 	CALL SUBOPT_0x22
0007e1 c002      	RJMP _0x20E0003
                 ; .FEND
                 _STATE_RECHTS:
                 ; .FSTART _STATE_RECHTS
0007e2 940e 147f 	CALL SUBOPT_0x23
                 _0x20E0003:
0007e4 98df      	CBI  0x1B,7
0007e5 98dd      	CBI  0x1B,5
0007e6 9508      	RET
                 ; .FEND
                 _STATE_90RECHTS:
                 ; .FSTART _STATE_90RECHTS
0007e7 940e 137a 	CALL SUBOPT_0x5
0007e9 940e 136f 	CALL SUBOPT_0x3
                 _0xB2:
0007eb 940e 1477 	CALL SUBOPT_0x22
0007ed 940e 1488 	CALL SUBOPT_0x24
                +
0007ef e0a0     +LDI R26 , LOW ( _0xB8 + ( 0 ) )
0007f0 e0b6     +LDI R27 , HIGH ( _0xB8 + ( 0 ) )
                 	__POINTW2MN _0xB8,0
0007f1 940e 148d 	CALL SUBOPT_0x25
                +
0007f3 e0a3     +LDI R26 , LOW ( _0xB8 + ( 3 ) )
0007f4 e0b6     +LDI R27 , HIGH ( _0xB8 + ( 3 ) )
                 	__POINTW2MN _0xB8,3
0007f5 940e 149d 	CALL SUBOPT_0x26
0007f7 940e 1364 	CALL SUBOPT_0x1
0007f9 9751      	SBIW R26,17
0007fa f384      	BRLT _0xB2
0007fb 9508      	RET
                 ; .FEND
                 
                 	.DSEG
                 _0xB8:
000600           	.BYTE 0x7
                 
                 	.CSEG
                 _STATE_90LINKS:
                 ; .FSTART _STATE_90LINKS
0007fc 940e 137a 	CALL SUBOPT_0x5
0007fe 940e 136f 	CALL SUBOPT_0x3
                 _0xBA:
000800 940e 147f 	CALL SUBOPT_0x23
000802 940e 14ad 	CALL SUBOPT_0x27
                +
000804 e0a7     +LDI R26 , LOW ( _0xC0 + ( 0 ) )
000805 e0b6     +LDI R27 , HIGH ( _0xC0 + ( 0 ) )
                 	__POINTW2MN _0xC0,0
000806 940e 148d 	CALL SUBOPT_0x25
                +
000808 e0aa     +LDI R26 , LOW ( _0xC0 + ( 3 ) )
000809 e0b6     +LDI R27 , HIGH ( _0xC0 + ( 3 ) )
                 	__POINTW2MN _0xC0,3
00080a 940e 149d 	CALL SUBOPT_0x26
00080c 940e 1375 	CALL SUBOPT_0x4
00080e 9751      	SBIW R26,17
00080f f384      	BRLT _0xBA
000810 9508      	RET
                 ; .FEND
                 
                 	.DSEG
                 _0xC0:
000607           	.BYTE 0x7
                 
                 	.CSEG
                 _detector:
                 ; .FSTART _detector
000811 9bcc      	SBIS 0x19,4
000812 c00a      	RJMP _0xC2
000813 9bce      	SBIS 0x19,6
000814 c008      	RJMP _0xC2
000815 9bb0      	SBIS 0x16,0
000816 c006      	RJMP _0xC2
000817 9bb6      	SBIS 0x16,6
000818 c004      	RJMP _0xC2
000819 9bb2      	SBIS 0x16,2
00081a c002      	RJMP _0xC2
00081b 99b4      	SBIC 0x16,4
00081c c001      	RJMP _0xC3
                 _0xC2:
00081d c005      	RJMP _0xC1
                 _0xC3:
00081e e0e0      	LDI  R30,LOW(0)
00081f 93e0 086d 	STS  _detector_value,R30
000821 93e0 086e 	STS  _detector_value+1,R30
                 _0xC1:
000823 9bcc      	SBIS 0x19,4
000824 c00a      	RJMP _0xC5
000825 9bce      	SBIS 0x19,6
000826 c008      	RJMP _0xC5
000827 9bb0      	SBIS 0x16,0
000828 c006      	RJMP _0xC5
000829 9bb6      	SBIS 0x16,6
00082a c004      	RJMP _0xC5
00082b 9bb2      	SBIS 0x16,2
00082c c002      	RJMP _0xC5
00082d 9bb4      	SBIS 0x16,4
00082e c001      	RJMP _0xC6
                 _0xC5:
00082f c004      	RJMP _0xC4
                 _0xC6:
000830 e0e1      	LDI  R30,LOW(1)
000831 e0f0      	LDI  R31,HIGH(1)
000832 940e 14b2 	CALL SUBOPT_0x28
                 _0xC4:
000834 9bcc      	SBIS 0x19,4
000835 c00a      	RJMP _0xC8
000836 9bce      	SBIS 0x19,6
000837 c008      	RJMP _0xC8
000838 9bb0      	SBIS 0x16,0
000839 c006      	RJMP _0xC8
00083a 9bb6      	SBIS 0x16,6
00083b c004      	RJMP _0xC8
00083c 99b2      	SBIC 0x16,2
00083d c002      	RJMP _0xC8
00083e 99b4      	SBIC 0x16,4
00083f c001      	RJMP _0xC9
                 _0xC8:
000840 c004      	RJMP _0xC7
                 _0xC9:
000841 e0e2      	LDI  R30,LOW(2)
000842 e0f0      	LDI  R31,HIGH(2)
000843 940e 14b2 	CALL SUBOPT_0x28
                 _0xC7:
000845 9bcc      	SBIS 0x19,4
000846 c00a      	RJMP _0xCB
000847 9bce      	SBIS 0x19,6
000848 c008      	RJMP _0xCB
000849 9bb0      	SBIS 0x16,0
00084a c006      	RJMP _0xCB
00084b 99b6      	SBIC 0x16,6
00084c c004      	RJMP _0xCB
00084d 9bb2      	SBIS 0x16,2
00084e c002      	RJMP _0xCB
00084f 99b4      	SBIC 0x16,4
000850 c001      	RJMP _0xCC
                 _0xCB:
000851 c004      	RJMP _0xCA
                 _0xCC:
000852 e0e3      	LDI  R30,LOW(3)
000853 e0f0      	LDI  R31,HIGH(3)
000854 940e 14b2 	CALL SUBOPT_0x28
                 _0xCA:
000856 9bcc      	SBIS 0x19,4
000857 c00a      	RJMP _0xCE
000858 9bce      	SBIS 0x19,6
000859 c008      	RJMP _0xCE
00085a 99b0      	SBIC 0x16,0
00085b c006      	RJMP _0xCE
00085c 9bb6      	SBIS 0x16,6
00085d c004      	RJMP _0xCE
00085e 9bb2      	SBIS 0x16,2
00085f c002      	RJMP _0xCE
000860 99b4      	SBIC 0x16,4
000861 c001      	RJMP _0xCF
                 _0xCE:
000862 c004      	RJMP _0xCD
                 _0xCF:
000863 e0e4      	LDI  R30,LOW(4)
000864 e0f0      	LDI  R31,HIGH(4)
000865 940e 14b2 	CALL SUBOPT_0x28
                 _0xCD:
000867 9bcc      	SBIS 0x19,4
000868 c00a      	RJMP _0xD1
000869 99ce      	SBIC 0x19,6
00086a c008      	RJMP _0xD1
00086b 9bb0      	SBIS 0x16,0
00086c c006      	RJMP _0xD1
00086d 9bb6      	SBIS 0x16,6
00086e c004      	RJMP _0xD1
00086f 9bb2      	SBIS 0x16,2
000870 c002      	RJMP _0xD1
000871 99b4      	SBIC 0x16,4
000872 c001      	RJMP _0xD2
                 _0xD1:
000873 c004      	RJMP _0xD0
                 _0xD2:
000874 e0e5      	LDI  R30,LOW(5)
000875 e0f0      	LDI  R31,HIGH(5)
000876 940e 14b2 	CALL SUBOPT_0x28
                 _0xD0:
000878 99cc      	SBIC 0x19,4
000879 c00a      	RJMP _0xD4
00087a 9bce      	SBIS 0x19,6
00087b c008      	RJMP _0xD4
00087c 9bb0      	SBIS 0x16,0
00087d c006      	RJMP _0xD4
00087e 9bb6      	SBIS 0x16,6
00087f c004      	RJMP _0xD4
000880 9bb2      	SBIS 0x16,2
000881 c002      	RJMP _0xD4
000882 99b4      	SBIC 0x16,4
000883 c001      	RJMP _0xD5
                 _0xD4:
000884 c004      	RJMP _0xD3
                 _0xD5:
000885 e0e6      	LDI  R30,LOW(6)
000886 e0f0      	LDI  R31,HIGH(6)
000887 940e 14b2 	CALL SUBOPT_0x28
                 _0xD3:
000889 9bcc      	SBIS 0x19,4
00088a c00a      	RJMP _0xD7
00088b 9bce      	SBIS 0x19,6
00088c c008      	RJMP _0xD7
00088d 9bb0      	SBIS 0x16,0
00088e c006      	RJMP _0xD7
00088f 9bb6      	SBIS 0x16,6
000890 c004      	RJMP _0xD7
000891 99b2      	SBIC 0x16,2
000892 c002      	RJMP _0xD7
000893 9bb4      	SBIS 0x16,4
000894 c001      	RJMP _0xD8
                 _0xD7:
000895 c004      	RJMP _0xD6
                 _0xD8:
000896 e0e7      	LDI  R30,LOW(7)
000897 e0f0      	LDI  R31,HIGH(7)
000898 940e 14b2 	CALL SUBOPT_0x28
                 _0xD6:
00089a 9bcc      	SBIS 0x19,4
00089b c00a      	RJMP _0xDA
00089c 9bce      	SBIS 0x19,6
00089d c008      	RJMP _0xDA
00089e 9bb0      	SBIS 0x16,0
00089f c006      	RJMP _0xDA
0008a0 99b6      	SBIC 0x16,6
0008a1 c004      	RJMP _0xDA
0008a2 99b2      	SBIC 0x16,2
0008a3 c002      	RJMP _0xDA
0008a4 99b4      	SBIC 0x16,4
0008a5 c001      	RJMP _0xDB
                 _0xDA:
0008a6 c004      	RJMP _0xD9
                 _0xDB:
0008a7 e0e8      	LDI  R30,LOW(8)
0008a8 e0f0      	LDI  R31,HIGH(8)
0008a9 940e 14b2 	CALL SUBOPT_0x28
                 _0xD9:
0008ab 9bcc      	SBIS 0x19,4
0008ac c00a      	RJMP _0xDD
0008ad 9bce      	SBIS 0x19,6
0008ae c008      	RJMP _0xDD
0008af 99b0      	SBIC 0x16,0
0008b0 c006      	RJMP _0xDD
0008b1 99b6      	SBIC 0x16,6
0008b2 c004      	RJMP _0xDD
0008b3 9bb2      	SBIS 0x16,2
0008b4 c002      	RJMP _0xDD
0008b5 99b4      	SBIC 0x16,4
0008b6 c001      	RJMP _0xDE
                 _0xDD:
0008b7 c004      	RJMP _0xDC
                 _0xDE:
0008b8 e0e9      	LDI  R30,LOW(9)
0008b9 e0f0      	LDI  R31,HIGH(9)
0008ba 940e 14b2 	CALL SUBOPT_0x28
                 _0xDC:
0008bc 9bcc      	SBIS 0x19,4
0008bd c00a      	RJMP _0xE0
0008be 99ce      	SBIC 0x19,6
0008bf c008      	RJMP _0xE0
0008c0 99b0      	SBIC 0x16,0
0008c1 c006      	RJMP _0xE0
0008c2 9bb6      	SBIS 0x16,6
0008c3 c004      	RJMP _0xE0
0008c4 9bb2      	SBIS 0x16,2
0008c5 c002      	RJMP _0xE0
0008c6 99b4      	SBIC 0x16,4
0008c7 c001      	RJMP _0xE1
                 _0xE0:
0008c8 c004      	RJMP _0xDF
                 _0xE1:
0008c9 e0ea      	LDI  R30,LOW(10)
0008ca e0f0      	LDI  R31,HIGH(10)
0008cb 940e 14b2 	CALL SUBOPT_0x28
                 _0xDF:
0008cd 99cc      	SBIC 0x19,4
0008ce c00a      	RJMP _0xE3
0008cf 99ce      	SBIC 0x19,6
0008d0 c008      	RJMP _0xE3
0008d1 9bb0      	SBIS 0x16,0
0008d2 c006      	RJMP _0xE3
0008d3 9bb6      	SBIS 0x16,6
0008d4 c004      	RJMP _0xE3
0008d5 9bb2      	SBIS 0x16,2
0008d6 c002      	RJMP _0xE3
0008d7 99b4      	SBIC 0x16,4
0008d8 c001      	RJMP _0xE4
                 _0xE3:
0008d9 c004      	RJMP _0xE2
                 _0xE4:
0008da e0eb      	LDI  R30,LOW(11)
0008db e0f0      	LDI  R31,HIGH(11)
0008dc 940e 14b2 	CALL SUBOPT_0x28
                 _0xE2:
0008de 9bcc      	SBIS 0x19,4
0008df c00a      	RJMP _0xE6
0008e0 9bce      	SBIS 0x19,6
0008e1 c008      	RJMP _0xE6
0008e2 9bb0      	SBIS 0x16,0
0008e3 c006      	RJMP _0xE6
0008e4 99b6      	SBIC 0x16,6
0008e5 c004      	RJMP _0xE6
0008e6 99b2      	SBIC 0x16,2
0008e7 c002      	RJMP _0xE6
0008e8 9bb4      	SBIS 0x16,4
0008e9 c001      	RJMP _0xE7
                 _0xE6:
0008ea c004      	RJMP _0xE5
                 _0xE7:
0008eb e0ec      	LDI  R30,LOW(12)
0008ec e0f0      	LDI  R31,HIGH(12)
0008ed 940e 14b2 	CALL SUBOPT_0x28
                 _0xE5:
0008ef 9bcc      	SBIS 0x19,4
0008f0 c00a      	RJMP _0xE9
0008f1 9bce      	SBIS 0x19,6
0008f2 c008      	RJMP _0xE9
0008f3 99b0      	SBIC 0x16,0
0008f4 c006      	RJMP _0xE9
0008f5 99b6      	SBIC 0x16,6
0008f6 c004      	RJMP _0xE9
0008f7 99b2      	SBIC 0x16,2
0008f8 c002      	RJMP _0xE9
0008f9 99b4      	SBIC 0x16,4
0008fa c001      	RJMP _0xEA
                 _0xE9:
0008fb c004      	RJMP _0xE8
                 _0xEA:
0008fc e0ed      	LDI  R30,LOW(13)
0008fd e0f0      	LDI  R31,HIGH(13)
0008fe 940e 14b2 	CALL SUBOPT_0x28
                 _0xE8:
000900 9bcc      	SBIS 0x19,4
000901 c00a      	RJMP _0xEC
000902 99ce      	SBIC 0x19,6
000903 c008      	RJMP _0xEC
000904 99b0      	SBIC 0x16,0
000905 c006      	RJMP _0xEC
000906 99b6      	SBIC 0x16,6
000907 c004      	RJMP _0xEC
000908 9bb2      	SBIS 0x16,2
000909 c002      	RJMP _0xEC
00090a 99b4      	SBIC 0x16,4
00090b c001      	RJMP _0xED
                 _0xEC:
00090c c004      	RJMP _0xEB
                 _0xED:
00090d e0ee      	LDI  R30,LOW(14)
00090e e0f0      	LDI  R31,HIGH(14)
00090f 940e 14b2 	CALL SUBOPT_0x28
                 _0xEB:
000911 99cc      	SBIC 0x19,4
000912 c00a      	RJMP _0xEF
000913 99ce      	SBIC 0x19,6
000914 c008      	RJMP _0xEF
000915 99b0      	SBIC 0x16,0
000916 c006      	RJMP _0xEF
000917 9bb6      	SBIS 0x16,6
000918 c004      	RJMP _0xEF
000919 9bb2      	SBIS 0x16,2
00091a c002      	RJMP _0xEF
00091b 99b4      	SBIC 0x16,4
00091c c001      	RJMP _0xF0
                 _0xEF:
00091d c004      	RJMP _0xEE
                 _0xF0:
00091e e0ef      	LDI  R30,LOW(15)
00091f e0f0      	LDI  R31,HIGH(15)
000920 940e 14b2 	CALL SUBOPT_0x28
                 _0xEE:
000922 9bcc      	SBIS 0x19,4
000923 c00a      	RJMP _0xF2
000924 9bce      	SBIS 0x19,6
000925 c008      	RJMP _0xF2
000926 99b0      	SBIC 0x16,0
000927 c006      	RJMP _0xF2
000928 99b6      	SBIC 0x16,6
000929 c004      	RJMP _0xF2
00092a 99b2      	SBIC 0x16,2
00092b c002      	RJMP _0xF2
00092c 9bb4      	SBIS 0x16,4
00092d c001      	RJMP _0xF3
                 _0xF2:
00092e c004      	RJMP _0xF1
                 _0xF3:
00092f e1e0      	LDI  R30,LOW(16)
000930 e0f0      	LDI  R31,HIGH(16)
000931 940e 14b2 	CALL SUBOPT_0x28
                 _0xF1:
000933 9bcc      	SBIS 0x19,4
000934 c00a      	RJMP _0xF5
000935 99ce      	SBIC 0x19,6
000936 c008      	RJMP _0xF5
000937 99b0      	SBIC 0x16,0
000938 c006      	RJMP _0xF5
000939 99b6      	SBIC 0x16,6
00093a c004      	RJMP _0xF5
00093b 99b2      	SBIC 0x16,2
00093c c002      	RJMP _0xF5
00093d 99b4      	SBIC 0x16,4
00093e c001      	RJMP _0xF6
                 _0xF5:
00093f c004      	RJMP _0xF4
                 _0xF6:
000940 e1e1      	LDI  R30,LOW(17)
000941 e0f0      	LDI  R31,HIGH(17)
000942 940e 14b2 	CALL SUBOPT_0x28
                 _0xF4:
000944 99cc      	SBIC 0x19,4
000945 c00a      	RJMP _0xF8
000946 99ce      	SBIC 0x19,6
000947 c008      	RJMP _0xF8
000948 99b0      	SBIC 0x16,0
000949 c006      	RJMP _0xF8
00094a 99b6      	SBIC 0x16,6
00094b c004      	RJMP _0xF8
00094c 9bb2      	SBIS 0x16,2
00094d c002      	RJMP _0xF8
00094e 99b4      	SBIC 0x16,4
00094f c001      	RJMP _0xF9
                 _0xF8:
000950 c004      	RJMP _0xF7
                 _0xF9:
000951 e1e2      	LDI  R30,LOW(18)
000952 e0f0      	LDI  R31,HIGH(18)
000953 940e 14b2 	CALL SUBOPT_0x28
                 _0xF7:
000955 9bcc      	SBIS 0x19,4
000956 c00a      	RJMP _0xFB
000957 99ce      	SBIC 0x19,6
000958 c008      	RJMP _0xFB
000959 99b0      	SBIC 0x16,0
00095a c006      	RJMP _0xFB
00095b 99b6      	SBIC 0x16,6
00095c c004      	RJMP _0xFB
00095d 99b2      	SBIC 0x16,2
00095e c002      	RJMP _0xFB
00095f 9bb4      	SBIS 0x16,4
000960 c001      	RJMP _0xFC
                 _0xFB:
000961 c004      	RJMP _0xFA
                 _0xFC:
000962 e1e3      	LDI  R30,LOW(19)
000963 e0f0      	LDI  R31,HIGH(19)
000964 940e 14b2 	CALL SUBOPT_0x28
                 _0xFA:
000966 99cc      	SBIC 0x19,4
000967 c00a      	RJMP _0xFE
000968 99ce      	SBIC 0x19,6
000969 c008      	RJMP _0xFE
00096a 99b0      	SBIC 0x16,0
00096b c006      	RJMP _0xFE
00096c 99b6      	SBIC 0x16,6
00096d c004      	RJMP _0xFE
00096e 99b2      	SBIC 0x16,2
00096f c002      	RJMP _0xFE
000970 99b4      	SBIC 0x16,4
000971 c001      	RJMP _0xFF
                 _0xFE:
000972 c004      	RJMP _0xFD
                 _0xFF:
000973 e1e4      	LDI  R30,LOW(20)
000974 e0f0      	LDI  R31,HIGH(20)
000975 940e 14b2 	CALL SUBOPT_0x28
                 _0xFD:
000977 99cc      	SBIC 0x19,4
000978 c00a      	RJMP _0x101
000979 99ce      	SBIC 0x19,6
00097a c008      	RJMP _0x101
00097b 99b0      	SBIC 0x16,0
00097c c006      	RJMP _0x101
00097d 99b6      	SBIC 0x16,6
00097e c004      	RJMP _0x101
00097f 99b2      	SBIC 0x16,2
000980 c002      	RJMP _0x101
000981 9bb4      	SBIS 0x16,4
000982 c001      	RJMP _0x102
                 _0x101:
000983 c004      	RJMP _0x100
                 _0x102:
000984 e1e5      	LDI  R30,LOW(21)
000985 e0f0      	LDI  R31,HIGH(21)
000986 940e 14b2 	CALL SUBOPT_0x28
                 _0x100:
000988 9bcc      	SBIS 0x19,4
000989 c00a      	RJMP _0x104
00098a 9bce      	SBIS 0x19,6
00098b c008      	RJMP _0x104
00098c 9bb0      	SBIS 0x16,0
00098d c006      	RJMP _0x104
00098e 99b6      	SBIC 0x16,6
00098f c004      	RJMP _0x104
000990 9bb2      	SBIS 0x16,2
000991 c002      	RJMP _0x104
000992 9bb4      	SBIS 0x16,4
000993 c001      	RJMP _0x105
                 _0x104:
000994 c004      	RJMP _0x103
                 _0x105:
000995 e1e6      	LDI  R30,LOW(22)
000996 e0f0      	LDI  R31,HIGH(22)
000997 940e 14b2 	CALL SUBOPT_0x28
                 _0x103:
000999 9bcc      	SBIS 0x19,4
00099a c00a      	RJMP _0x107
00099b 9bce      	SBIS 0x19,6
00099c c008      	RJMP _0x107
00099d 99b0      	SBIC 0x16,0
00099e c006      	RJMP _0x107
00099f 9bb6      	SBIS 0x16,6
0009a0 c004      	RJMP _0x107
0009a1 99b2      	SBIC 0x16,2
0009a2 c002      	RJMP _0x107
0009a3 99b4      	SBIC 0x16,4
0009a4 c001      	RJMP _0x108
                 _0x107:
0009a5 c004      	RJMP _0x106
                 _0x108:
0009a6 e1e7      	LDI  R30,LOW(23)
0009a7 e0f0      	LDI  R31,HIGH(23)
0009a8 940e 14b2 	CALL SUBOPT_0x28
                 _0x106:
0009aa 9bcc      	SBIS 0x19,4
0009ab c00a      	RJMP _0x10A
0009ac 99ce      	SBIC 0x19,6
0009ad c008      	RJMP _0x10A
0009ae 9bb0      	SBIS 0x16,0
0009af c006      	RJMP _0x10A
0009b0 99b6      	SBIC 0x16,6
0009b1 c004      	RJMP _0x10A
0009b2 9bb2      	SBIS 0x16,2
0009b3 c002      	RJMP _0x10A
0009b4 99b4      	SBIC 0x16,4
0009b5 c001      	RJMP _0x10B
                 _0x10A:
0009b6 c004      	RJMP _0x109
                 _0x10B:
0009b7 e1e8      	LDI  R30,LOW(24)
0009b8 e0f0      	LDI  R31,HIGH(24)
0009b9 940e 14b2 	CALL SUBOPT_0x28
                 _0x109:
0009bb 99cc      	SBIC 0x19,4
0009bc c00a      	RJMP _0x10D
0009bd 9bce      	SBIS 0x19,6
0009be c008      	RJMP _0x10D
0009bf 99b0      	SBIC 0x16,0
0009c0 c006      	RJMP _0x10D
0009c1 9bb6      	SBIS 0x16,6
0009c2 c004      	RJMP _0x10D
0009c3 9bb2      	SBIS 0x16,2
0009c4 c002      	RJMP _0x10D
0009c5 99b4      	SBIC 0x16,4
0009c6 c001      	RJMP _0x10E
                 _0x10D:
0009c7 c004      	RJMP _0x10C
                 _0x10E:
0009c8 e1e9      	LDI  R30,LOW(25)
0009c9 e0f0      	LDI  R31,HIGH(25)
0009ca 940e 14b2 	CALL SUBOPT_0x28
                 _0x10C:
0009cc 9bcc      	SBIS 0x19,4
0009cd c00a      	RJMP _0x110
0009ce 9bce      	SBIS 0x19,6
0009cf c008      	RJMP _0x110
0009d0 99b0      	SBIC 0x16,0
0009d1 c006      	RJMP _0x110
0009d2 9bb6      	SBIS 0x16,6
0009d3 c004      	RJMP _0x110
0009d4 9bb2      	SBIS 0x16,2
0009d5 c002      	RJMP _0x110
0009d6 9bb4      	SBIS 0x16,4
0009d7 c001      	RJMP _0x111
                 _0x110:
0009d8 c004      	RJMP _0x10F
                 _0x111:
0009d9 e1ea      	LDI  R30,LOW(26)
0009da e0f0      	LDI  R31,HIGH(26)
0009db 940e 14b2 	CALL SUBOPT_0x28
                 _0x10F:
0009dd 9bcc      	SBIS 0x19,4
0009de c00a      	RJMP _0x113
0009df 99ce      	SBIC 0x19,6
0009e0 c008      	RJMP _0x113
0009e1 9bb0      	SBIS 0x16,0
0009e2 c006      	RJMP _0x113
0009e3 9bb6      	SBIS 0x16,6
0009e4 c004      	RJMP _0x113
0009e5 99b2      	SBIC 0x16,2
0009e6 c002      	RJMP _0x113
0009e7 99b4      	SBIC 0x16,4
0009e8 c001      	RJMP _0x114
                 _0x113:
0009e9 c004      	RJMP _0x112
                 _0x114:
0009ea e1eb      	LDI  R30,LOW(27)
0009eb e0f0      	LDI  R31,HIGH(27)
0009ec 940e 14b2 	CALL SUBOPT_0x28
                 _0x112:
0009ee 99cc      	SBIC 0x19,4
0009ef c00a      	RJMP _0x116
0009f0 9bce      	SBIS 0x19,6
0009f1 c008      	RJMP _0x116
0009f2 9bb0      	SBIS 0x16,0
0009f3 c006      	RJMP _0x116
0009f4 99b6      	SBIC 0x16,6
0009f5 c004      	RJMP _0x116
0009f6 9bb2      	SBIS 0x16,2
0009f7 c002      	RJMP _0x116
0009f8 99b4      	SBIC 0x16,4
0009f9 c001      	RJMP _0x117
                 _0x116:
0009fa c004      	RJMP _0x115
                 _0x117:
0009fb e1ec      	LDI  R30,LOW(28)
0009fc e0f0      	LDI  R31,HIGH(28)
0009fd 940e 14b2 	CALL SUBOPT_0x28
                 _0x115:
0009ff 9bcc      	SBIS 0x19,4
000a00 c00a      	RJMP _0x119
000a01 99ce      	SBIC 0x19,6
000a02 c008      	RJMP _0x119
000a03 9bb0      	SBIS 0x16,0
000a04 c006      	RJMP _0x119
000a05 9bb6      	SBIS 0x16,6
000a06 c004      	RJMP _0x119
000a07 9bb2      	SBIS 0x16,2
000a08 c002      	RJMP _0x119
000a09 9bb4      	SBIS 0x16,4
000a0a c001      	RJMP _0x11A
                 _0x119:
000a0b c004      	RJMP _0x118
                 _0x11A:
000a0c e1ed      	LDI  R30,LOW(29)
000a0d e0f0      	LDI  R31,HIGH(29)
000a0e 940e 14b2 	CALL SUBOPT_0x28
                 _0x118:
000a10 99cc      	SBIC 0x19,4
000a11 c00a      	RJMP _0x11C
000a12 9bce      	SBIS 0x19,6
000a13 c008      	RJMP _0x11C
000a14 9bb0      	SBIS 0x16,0
000a15 c006      	RJMP _0x11C
000a16 9bb6      	SBIS 0x16,6
000a17 c004      	RJMP _0x11C
000a18 99b2      	SBIC 0x16,2
000a19 c002      	RJMP _0x11C
000a1a 99b4      	SBIC 0x16,4
000a1b c001      	RJMP _0x11D
                 _0x11C:
000a1c c004      	RJMP _0x11B
                 _0x11D:
000a1d e1ee      	LDI  R30,LOW(30)
000a1e e0f0      	LDI  R31,HIGH(30)
000a1f 940e 14b2 	CALL SUBOPT_0x28
                 _0x11B:
000a21 99cc      	SBIC 0x19,4
000a22 c00a      	RJMP _0x11F
000a23 9bce      	SBIS 0x19,6
000a24 c008      	RJMP _0x11F
000a25 9bb0      	SBIS 0x16,0
000a26 c006      	RJMP _0x11F
000a27 9bb6      	SBIS 0x16,6
000a28 c004      	RJMP _0x11F
000a29 9bb2      	SBIS 0x16,2
000a2a c002      	RJMP _0x11F
000a2b 9bb4      	SBIS 0x16,4
000a2c c001      	RJMP _0x120
                 _0x11F:
000a2d c004      	RJMP _0x11E
                 _0x120:
000a2e e1ef      	LDI  R30,LOW(31)
000a2f e0f0      	LDI  R31,HIGH(31)
000a30 940e 14b2 	CALL SUBOPT_0x28
                 _0x11E:
000a32 99cc      	SBIC 0x19,4
000a33 c00a      	RJMP _0x122
000a34 99ce      	SBIC 0x19,6
000a35 c008      	RJMP _0x122
000a36 99b0      	SBIC 0x16,0
000a37 c006      	RJMP _0x122
000a38 99b6      	SBIC 0x16,6
000a39 c004      	RJMP _0x122
000a3a 9bb2      	SBIS 0x16,2
000a3b c002      	RJMP _0x122
000a3c 9bb4      	SBIS 0x16,4
000a3d c001      	RJMP _0x123
                 _0x122:
000a3e c004      	RJMP _0x121
                 _0x123:
000a3f e2e0      	LDI  R30,LOW(32)
000a40 e0f0      	LDI  R31,HIGH(32)
000a41 940e 14b2 	CALL SUBOPT_0x28
                 _0x121:
000a43 99cc      	SBIC 0x19,4
000a44 c00a      	RJMP _0x125
000a45 99ce      	SBIC 0x19,6
000a46 c008      	RJMP _0x125
000a47 99b0      	SBIC 0x16,0
000a48 c006      	RJMP _0x125
000a49 9bb6      	SBIS 0x16,6
000a4a c004      	RJMP _0x125
000a4b 99b2      	SBIC 0x16,2
000a4c c002      	RJMP _0x125
000a4d 9bb4      	SBIS 0x16,4
000a4e c001      	RJMP _0x126
                 _0x125:
000a4f c004      	RJMP _0x124
                 _0x126:
000a50 e2e1      	LDI  R30,LOW(33)
000a51 e0f0      	LDI  R31,HIGH(33)
000a52 940e 14b2 	CALL SUBOPT_0x28
                 _0x124:
000a54 99cc      	SBIC 0x19,4
000a55 c00a      	RJMP _0x128
000a56 99ce      	SBIC 0x19,6
000a57 c008      	RJMP _0x128
000a58 9bb0      	SBIS 0x16,0
000a59 c006      	RJMP _0x128
000a5a 99b6      	SBIC 0x16,6
000a5b c004      	RJMP _0x128
000a5c 99b2      	SBIC 0x16,2
000a5d c002      	RJMP _0x128
000a5e 9bb4      	SBIS 0x16,4
000a5f c001      	RJMP _0x129
                 _0x128:
000a60 c004      	RJMP _0x127
                 _0x129:
000a61 e2e2      	LDI  R30,LOW(34)
000a62 e0f0      	LDI  R31,HIGH(34)
000a63 940e 14b2 	CALL SUBOPT_0x28
                 _0x127:
000a65 99cc      	SBIC 0x19,4
000a66 c00a      	RJMP _0x12B
000a67 9bce      	SBIS 0x19,6
000a68 c008      	RJMP _0x12B
000a69 99b0      	SBIC 0x16,0
000a6a c006      	RJMP _0x12B
000a6b 99b6      	SBIC 0x16,6
000a6c c004      	RJMP _0x12B
000a6d 99b2      	SBIC 0x16,2
000a6e c002      	RJMP _0x12B
000a6f 9bb4      	SBIS 0x16,4
000a70 c001      	RJMP _0x12C
                 _0x12B:
000a71 c004      	RJMP _0x12A
                 _0x12C:
000a72 e2e3      	LDI  R30,LOW(35)
000a73 e0f0      	LDI  R31,HIGH(35)
000a74 940e 14b2 	CALL SUBOPT_0x28
                 _0x12A:
000a76 99cc      	SBIC 0x19,4
000a77 c00a      	RJMP _0x12E
000a78 99ce      	SBIC 0x19,6
000a79 c008      	RJMP _0x12E
000a7a 99b0      	SBIC 0x16,0
000a7b c006      	RJMP _0x12E
000a7c 9bb6      	SBIS 0x16,6
000a7d c004      	RJMP _0x12E
000a7e 9bb2      	SBIS 0x16,2
000a7f c002      	RJMP _0x12E
000a80 9bb4      	SBIS 0x16,4
000a81 c001      	RJMP _0x12F
                 _0x12E:
000a82 c004      	RJMP _0x12D
                 _0x12F:
000a83 e2e4      	LDI  R30,LOW(36)
000a84 e0f0      	LDI  R31,HIGH(36)
000a85 940e 14b2 	CALL SUBOPT_0x28
                 _0x12D:
000a87 99cc      	SBIC 0x19,4
000a88 c00a      	RJMP _0x131
000a89 99ce      	SBIC 0x19,6
000a8a c008      	RJMP _0x131
000a8b 9bb0      	SBIS 0x16,0
000a8c c006      	RJMP _0x131
000a8d 9bb6      	SBIS 0x16,6
000a8e c004      	RJMP _0x131
000a8f 99b2      	SBIC 0x16,2
000a90 c002      	RJMP _0x131
000a91 9bb4      	SBIS 0x16,4
000a92 c001      	RJMP _0x132
                 _0x131:
000a93 c004      	RJMP _0x130
                 _0x132:
000a94 e2e5      	LDI  R30,LOW(37)
000a95 e0f0      	LDI  R31,HIGH(37)
000a96 940e 14b2 	CALL SUBOPT_0x28
                 _0x130:
000a98 99cc      	SBIC 0x19,4
000a99 c00a      	RJMP _0x134
000a9a 9bce      	SBIS 0x19,6
000a9b c008      	RJMP _0x134
000a9c 9bb0      	SBIS 0x16,0
000a9d c006      	RJMP _0x134
000a9e 99b6      	SBIC 0x16,6
000a9f c004      	RJMP _0x134
000aa0 99b2      	SBIC 0x16,2
000aa1 c002      	RJMP _0x134
000aa2 9bb4      	SBIS 0x16,4
000aa3 c001      	RJMP _0x135
                 _0x134:
000aa4 c004      	RJMP _0x133
                 _0x135:
000aa5 e2e6      	LDI  R30,LOW(38)
000aa6 e0f0      	LDI  R31,HIGH(38)
000aa7 940e 14b2 	CALL SUBOPT_0x28
                 _0x133:
000aa9 99cc      	SBIC 0x19,4
000aaa c00a      	RJMP _0x137
000aab 9bce      	SBIS 0x19,6
000aac c008      	RJMP _0x137
000aad 99b0      	SBIC 0x16,0
000aae c006      	RJMP _0x137
000aaf 9bb6      	SBIS 0x16,6
000ab0 c004      	RJMP _0x137
000ab1 99b2      	SBIC 0x16,2
000ab2 c002      	RJMP _0x137
000ab3 99b4      	SBIC 0x16,4
000ab4 c001      	RJMP _0x138
                 _0x137:
000ab5 c004      	RJMP _0x136
                 _0x138:
000ab6 e2e7      	LDI  R30,LOW(39)
000ab7 e0f0      	LDI  R31,HIGH(39)
000ab8 940e 14b2 	CALL SUBOPT_0x28
                 _0x136:
000aba 9bcc      	SBIS 0x19,4
000abb c00a      	RJMP _0x13A
000abc 99ce      	SBIC 0x19,6
000abd c008      	RJMP _0x13A
000abe 9bb0      	SBIS 0x16,0
000abf c006      	RJMP _0x13A
000ac0 99b6      	SBIC 0x16,6
000ac1 c004      	RJMP _0x13A
000ac2 9bb2      	SBIS 0x16,2
000ac3 c002      	RJMP _0x13A
000ac4 9bb4      	SBIS 0x16,4
000ac5 c001      	RJMP _0x13B
                 _0x13A:
000ac6 c004      	RJMP _0x139
                 _0x13B:
000ac7 e2e8      	LDI  R30,LOW(40)
000ac8 e0f0      	LDI  R31,HIGH(40)
000ac9 940e 14b2 	CALL SUBOPT_0x28
                 _0x139:
000acb 99cc      	SBIC 0x19,4
000acc c00a      	RJMP _0x13D
000acd 9bce      	SBIS 0x19,6
000ace c008      	RJMP _0x13D
000acf 9bb0      	SBIS 0x16,0
000ad0 c006      	RJMP _0x13D
000ad1 99b6      	SBIC 0x16,6
000ad2 c004      	RJMP _0x13D
000ad3 99b2      	SBIC 0x16,2
000ad4 c002      	RJMP _0x13D
000ad5 99b4      	SBIC 0x16,4
000ad6 c001      	RJMP _0x13E
                 _0x13D:
000ad7 c004      	RJMP _0x13C
                 _0x13E:
000ad8 e2e9      	LDI  R30,LOW(41)
000ad9 e0f0      	LDI  R31,HIGH(41)
000ada 940e 14b2 	CALL SUBOPT_0x28
                 _0x13C:
000adc 9bcc      	SBIS 0x19,4
000add c00a      	RJMP _0x140
000ade 99ce      	SBIC 0x19,6
000adf c008      	RJMP _0x140
000ae0 99b0      	SBIC 0x16,0
000ae1 c006      	RJMP _0x140
000ae2 9bb6      	SBIS 0x16,6
000ae3 c004      	RJMP _0x140
000ae4 9bb2      	SBIS 0x16,2
000ae5 c002      	RJMP _0x140
000ae6 9bb4      	SBIS 0x16,4
000ae7 c001      	RJMP _0x141
                 _0x140:
000ae8 c004      	RJMP _0x13F
                 _0x141:
000ae9 e2ea      	LDI  R30,LOW(42)
000aea e0f0      	LDI  R31,HIGH(42)
000aeb 940e 14b2 	CALL SUBOPT_0x28
                 _0x13F:
000aed 99cc      	SBIC 0x19,4
000aee c00a      	RJMP _0x143
000aef 99ce      	SBIC 0x19,6
000af0 c008      	RJMP _0x143
000af1 9bb0      	SBIS 0x16,0
000af2 c006      	RJMP _0x143
000af3 99b6      	SBIC 0x16,6
000af4 c004      	RJMP _0x143
000af5 9bb2      	SBIS 0x16,2
000af6 c002      	RJMP _0x143
000af7 9bb4      	SBIS 0x16,4
000af8 c001      	RJMP _0x144
                 _0x143:
000af9 c004      	RJMP _0x142
                 _0x144:
000afa e2eb      	LDI  R30,LOW(43)
000afb e0f0      	LDI  R31,HIGH(43)
000afc 940e 14b2 	CALL SUBOPT_0x28
                 _0x142:
000afe 99cc      	SBIC 0x19,4
000aff c00a      	RJMP _0x146
000b00 99ce      	SBIC 0x19,6
000b01 c008      	RJMP _0x146
000b02 9bb0      	SBIS 0x16,0
000b03 c006      	RJMP _0x146
000b04 99b6      	SBIC 0x16,6
000b05 c004      	RJMP _0x146
000b06 99b2      	SBIC 0x16,2
000b07 c002      	RJMP _0x146
000b08 99b4      	SBIC 0x16,4
000b09 c001      	RJMP _0x147
                 _0x146:
000b0a c004      	RJMP _0x145
                 _0x147:
000b0b e2ec      	LDI  R30,LOW(44)
000b0c e0f0      	LDI  R31,HIGH(44)
000b0d 940e 14b2 	CALL SUBOPT_0x28
                 _0x145:
000b0f 99cc      	SBIC 0x19,4
000b10 c00a      	RJMP _0x149
000b11 9bce      	SBIS 0x19,6
000b12 c008      	RJMP _0x149
000b13 99b0      	SBIC 0x16,0
000b14 c006      	RJMP _0x149
000b15 99b6      	SBIC 0x16,6
000b16 c004      	RJMP _0x149
000b17 9bb2      	SBIS 0x16,2
000b18 c002      	RJMP _0x149
000b19 9bb4      	SBIS 0x16,4
000b1a c001      	RJMP _0x14A
                 _0x149:
000b1b c004      	RJMP _0x148
                 _0x14A:
000b1c e2ed      	LDI  R30,LOW(45)
000b1d e0f0      	LDI  R31,HIGH(45)
000b1e 940e 14b2 	CALL SUBOPT_0x28
                 _0x148:
000b20 99cc      	SBIC 0x19,4
000b21 c00a      	RJMP _0x14C
000b22 9bce      	SBIS 0x19,6
000b23 c008      	RJMP _0x14C
000b24 99b0      	SBIC 0x16,0
000b25 c006      	RJMP _0x14C
000b26 99b6      	SBIC 0x16,6
000b27 c004      	RJMP _0x14C
000b28 99b2      	SBIC 0x16,2
000b29 c002      	RJMP _0x14C
000b2a 99b4      	SBIC 0x16,4
000b2b c001      	RJMP _0x14D
                 _0x14C:
000b2c c004      	RJMP _0x14B
                 _0x14D:
000b2d e2ee      	LDI  R30,LOW(46)
000b2e e0f0      	LDI  R31,HIGH(46)
000b2f 940e 14b2 	CALL SUBOPT_0x28
                 _0x14B:
000b31 9bcc      	SBIS 0x19,4
000b32 c00a      	RJMP _0x14F
000b33 99ce      	SBIC 0x19,6
000b34 c008      	RJMP _0x14F
000b35 99b0      	SBIC 0x16,0
000b36 c006      	RJMP _0x14F
000b37 99b6      	SBIC 0x16,6
000b38 c004      	RJMP _0x14F
000b39 9bb2      	SBIS 0x16,2
000b3a c002      	RJMP _0x14F
000b3b 9bb4      	SBIS 0x16,4
000b3c c001      	RJMP _0x150
                 _0x14F:
000b3d c004      	RJMP _0x14E
                 _0x150:
000b3e e2ef      	LDI  R30,LOW(47)
000b3f e0f0      	LDI  R31,HIGH(47)
000b40 940e 14b2 	CALL SUBOPT_0x28
                 _0x14E:
000b42 9bcc      	SBIS 0x19,4
000b43 c00a      	RJMP _0x152
000b44 99ce      	SBIC 0x19,6
000b45 c008      	RJMP _0x152
000b46 99b0      	SBIC 0x16,0
000b47 c006      	RJMP _0x152
000b48 9bb6      	SBIS 0x16,6
000b49 c004      	RJMP _0x152
000b4a 99b2      	SBIC 0x16,2
000b4b c002      	RJMP _0x152
000b4c 9bb4      	SBIS 0x16,4
000b4d c001      	RJMP _0x153
                 _0x152:
000b4e c004      	RJMP _0x151
                 _0x153:
000b4f e3e0      	LDI  R30,LOW(48)
000b50 e0f0      	LDI  R31,HIGH(48)
000b51 940e 14b2 	CALL SUBOPT_0x28
                 _0x151:
000b53 99cc      	SBIC 0x19,4
000b54 c00a      	RJMP _0x155
000b55 99ce      	SBIC 0x19,6
000b56 c008      	RJMP _0x155
000b57 9bb0      	SBIS 0x16,0
000b58 c006      	RJMP _0x155
000b59 9bb6      	SBIS 0x16,6
000b5a c004      	RJMP _0x155
000b5b 99b2      	SBIC 0x16,2
000b5c c002      	RJMP _0x155
000b5d 99b4      	SBIC 0x16,4
000b5e c001      	RJMP _0x156
                 _0x155:
000b5f c004      	RJMP _0x154
                 _0x156:
000b60 e3e1      	LDI  R30,LOW(49)
000b61 e0f0      	LDI  R31,HIGH(49)
000b62 940e 14b2 	CALL SUBOPT_0x28
                 _0x154:
000b64 9bcc      	SBIS 0x19,4
000b65 c00a      	RJMP _0x158
000b66 99ce      	SBIC 0x19,6
000b67 c008      	RJMP _0x158
000b68 99b0      	SBIC 0x16,0
000b69 c006      	RJMP _0x158
000b6a 9bb6      	SBIS 0x16,6
000b6b c004      	RJMP _0x158
000b6c 9bb2      	SBIS 0x16,2
000b6d c002      	RJMP _0x158
000b6e 9bb4      	SBIS 0x16,4
000b6f c001      	RJMP _0x159
                 _0x158:
000b70 c004      	RJMP _0x157
                 _0x159:
000b71 e3e2      	LDI  R30,LOW(50)
000b72 e0f0      	LDI  R31,HIGH(50)
000b73 940e 14b2 	CALL SUBOPT_0x28
                 _0x157:
000b75 99cc      	SBIC 0x19,4
000b76 c00a      	RJMP _0x15B
000b77 99ce      	SBIC 0x19,6
000b78 c008      	RJMP _0x15B
000b79 9bb0      	SBIS 0x16,0
000b7a c006      	RJMP _0x15B
000b7b 9bb6      	SBIS 0x16,6
000b7c c004      	RJMP _0x15B
000b7d 99b2      	SBIC 0x16,2
000b7e c002      	RJMP _0x15B
000b7f 99b4      	SBIC 0x16,4
000b80 c001      	RJMP _0x15C
                 _0x15B:
000b81 c004      	RJMP _0x15A
                 _0x15C:
000b82 e3e3      	LDI  R30,LOW(51)
000b83 e0f0      	LDI  R31,HIGH(51)
000b84 940e 14b2 	CALL SUBOPT_0x28
                 _0x15A:
000b86 99cc      	SBIC 0x19,4
000b87 c00a      	RJMP _0x15E
000b88 99ce      	SBIC 0x19,6
000b89 c008      	RJMP _0x15E
000b8a 9bb0      	SBIS 0x16,0
000b8b c006      	RJMP _0x15E
000b8c 99b6      	SBIC 0x16,6
000b8d c004      	RJMP _0x15E
000b8e 9bb2      	SBIS 0x16,2
000b8f c002      	RJMP _0x15E
000b90 99b4      	SBIC 0x16,4
000b91 c001      	RJMP _0x15F
                 _0x15E:
000b92 c004      	RJMP _0x15D
                 _0x15F:
000b93 e3e4      	LDI  R30,LOW(52)
000b94 e0f0      	LDI  R31,HIGH(52)
000b95 940e 14b2 	CALL SUBOPT_0x28
                 _0x15D:
000b97 99cc      	SBIC 0x19,4
000b98 c00a      	RJMP _0x161
000b99 99ce      	SBIC 0x19,6
000b9a c008      	RJMP _0x161
000b9b 99b0      	SBIC 0x16,0
000b9c c006      	RJMP _0x161
000b9d 9bb6      	SBIS 0x16,6
000b9e c004      	RJMP _0x161
000b9f 99b2      	SBIC 0x16,2
000ba0 c002      	RJMP _0x161
000ba1 99b4      	SBIC 0x16,4
000ba2 c001      	RJMP _0x162
                 _0x161:
000ba3 c004      	RJMP _0x160
                 _0x162:
000ba4 e3e5      	LDI  R30,LOW(53)
000ba5 e0f0      	LDI  R31,HIGH(53)
000ba6 940e 14b2 	CALL SUBOPT_0x28
                 _0x160:
000ba8 9bcc      	SBIS 0x19,4
000ba9 c00a      	RJMP _0x164
000baa 9bce      	SBIS 0x19,6
000bab c008      	RJMP _0x164
000bac 99b0      	SBIC 0x16,0
000bad c006      	RJMP _0x164
000bae 99b6      	SBIC 0x16,6
000baf c004      	RJMP _0x164
000bb0 9bb2      	SBIS 0x16,2
000bb1 c002      	RJMP _0x164
000bb2 9bb4      	SBIS 0x16,4
000bb3 c001      	RJMP _0x165
                 _0x164:
000bb4 c004      	RJMP _0x163
                 _0x165:
000bb5 e3e6      	LDI  R30,LOW(54)
000bb6 e0f0      	LDI  R31,HIGH(54)
000bb7 940e 14b2 	CALL SUBOPT_0x28
                 _0x163:
000bb9 99cc      	SBIC 0x19,4
000bba c00a      	RJMP _0x167
000bbb 9bce      	SBIS 0x19,6
000bbc c008      	RJMP _0x167
000bbd 9bb0      	SBIS 0x16,0
000bbe c006      	RJMP _0x167
000bbf 9bb6      	SBIS 0x16,6
000bc0 c004      	RJMP _0x167
000bc1 99b2      	SBIC 0x16,2
000bc2 c002      	RJMP _0x167
000bc3 9bb4      	SBIS 0x16,4
000bc4 c001      	RJMP _0x168
                 _0x167:
000bc5 c004      	RJMP _0x166
                 _0x168:
000bc6 e3e7      	LDI  R30,LOW(55)
000bc7 e0f0      	LDI  R31,HIGH(55)
000bc8 940e 14b2 	CALL SUBOPT_0x28
                 _0x166:
000bca 99cc      	SBIC 0x19,4
000bcb c00a      	RJMP _0x16A
000bcc 9bce      	SBIS 0x19,6
000bcd c008      	RJMP _0x16A
000bce 99b0      	SBIC 0x16,0
000bcf c006      	RJMP _0x16A
000bd0 9bb6      	SBIS 0x16,6
000bd1 c004      	RJMP _0x16A
000bd2 99b2      	SBIC 0x16,2
000bd3 c002      	RJMP _0x16A
000bd4 9bb4      	SBIS 0x16,4
000bd5 c001      	RJMP _0x16B
                 _0x16A:
000bd6 c004      	RJMP _0x169
                 _0x16B:
000bd7 e3e8      	LDI  R30,LOW(56)
000bd8 e0f0      	LDI  R31,HIGH(56)
000bd9 940e 14b2 	CALL SUBOPT_0x28
                 _0x169:
000bdb 9bcc      	SBIS 0x19,4
000bdc c00a      	RJMP _0x16D
000bdd 9bce      	SBIS 0x19,6
000bde c008      	RJMP _0x16D
000bdf 99b0      	SBIC 0x16,0
000be0 c006      	RJMP _0x16D
000be1 9bb6      	SBIS 0x16,6
000be2 c004      	RJMP _0x16D
000be3 99b2      	SBIC 0x16,2
000be4 c002      	RJMP _0x16D
000be5 9bb4      	SBIS 0x16,4
000be6 c001      	RJMP _0x16E
                 _0x16D:
000be7 c004      	RJMP _0x16C
                 _0x16E:
000be8 e3e9      	LDI  R30,LOW(57)
000be9 e0f0      	LDI  R31,HIGH(57)
000bea 940e 14b2 	CALL SUBOPT_0x28
                 _0x16C:
000bec 9bcc      	SBIS 0x19,4
000bed c00a      	RJMP _0x170
000bee 99ce      	SBIC 0x19,6
000bef c008      	RJMP _0x170
000bf0 9bb0      	SBIS 0x16,0
000bf1 c006      	RJMP _0x170
000bf2 99b6      	SBIC 0x16,6
000bf3 c004      	RJMP _0x170
000bf4 99b2      	SBIC 0x16,2
000bf5 c002      	RJMP _0x170
000bf6 9bb4      	SBIS 0x16,4
000bf7 c001      	RJMP _0x171
                 _0x170:
000bf8 c004      	RJMP _0x16F
                 _0x171:
000bf9 e3ea      	LDI  R30,LOW(58)
000bfa e0f0      	LDI  R31,HIGH(58)
000bfb 940e 14b2 	CALL SUBOPT_0x28
                 _0x16F:
000bfd 9bcc      	SBIS 0x19,4
000bfe c00a      	RJMP _0x173
000bff 99ce      	SBIC 0x19,6
000c00 c008      	RJMP _0x173
000c01 9bb0      	SBIS 0x16,0
000c02 c006      	RJMP _0x173
000c03 9bb6      	SBIS 0x16,6
000c04 c004      	RJMP _0x173
000c05 99b2      	SBIC 0x16,2
000c06 c002      	RJMP _0x173
000c07 9bb4      	SBIS 0x16,4
000c08 c001      	RJMP _0x174
                 _0x173:
000c09 c004      	RJMP _0x172
                 _0x174:
000c0a e3eb      	LDI  R30,LOW(59)
000c0b e0f0      	LDI  R31,HIGH(59)
000c0c 940e 14b2 	CALL SUBOPT_0x28
                 _0x172:
000c0e 99cc      	SBIC 0x19,4
000c0f c00a      	RJMP _0x176
000c10 9bce      	SBIS 0x19,6
000c11 c008      	RJMP _0x176
000c12 99b0      	SBIC 0x16,0
000c13 c006      	RJMP _0x176
000c14 99b6      	SBIC 0x16,6
000c15 c004      	RJMP _0x176
000c16 9bb2      	SBIS 0x16,2
000c17 c002      	RJMP _0x176
000c18 99b4      	SBIC 0x16,4
000c19 c001      	RJMP _0x177
                 _0x176:
000c1a c004      	RJMP _0x175
                 _0x177:
000c1b e3ec      	LDI  R30,LOW(60)
000c1c e0f0      	LDI  R31,HIGH(60)
000c1d 940e 14b2 	CALL SUBOPT_0x28
                 _0x175:
000c1f 940e 1460 	CALL SUBOPT_0x20
000c21 01df      	MOVW R26,R30
000c22 01cb      	MOVW R24,R22
                +
000c23 e0e0     +LDI R30 , LOW ( 0x41200000 )
000c24 e0f0     +LDI R31 , HIGH ( 0x41200000 )
000c25 e260     +LDI R22 , BYTE3 ( 0x41200000 )
000c26 e471     +LDI R23 , BYTE4 ( 0x41200000 )
                 	__GETD1N 0x41200000
000c27 940e 1626 	CALL __CMPF12
000c29 f420      	BRSH _0x178
000c2a e4e0      	LDI  R30,LOW(64)
000c2b e0f0      	LDI  R31,HIGH(64)
000c2c 940e 14b2 	CALL SUBOPT_0x28
                 _0x178:
000c2e 9508      	RET
                 ; .FEND
                 _detectorcase:
                 ; .FSTART _detectorcase
000c2f 91e0 086d 	LDS  R30,_detector_value
000c31 91f0 086e 	LDS  R31,_detector_value+1
000c33 9730      	SBIW R30,0
000c34 f439      	BRNE _0x1A9
000c35 940e 14b7 	CALL SUBOPT_0x29
000c37 940e 14b7 	CALL SUBOPT_0x29
000c39 940e 14bc 	CALL SUBOPT_0x2A
000c3b c1e7      	RJMP _0x265
                 _0x1A9:
000c3c 30e1      	CPI  R30,LOW(0x1)
000c3d e0a0      	LDI  R26,HIGH(0x1)
000c3e 07fa      	CPC  R31,R26
000c3f f429      	BRNE _0x1AA
000c40 940e 14b7 	CALL SUBOPT_0x29
000c42 e4e6      	LDI  R30,LOW(70)
000c43 e0f0      	LDI  R31,HIGH(70)
000c44 c1d7      	RJMP _0x266
                 _0x1AA:
000c45 30e2      	CPI  R30,LOW(0x2)
000c46 e0a0      	LDI  R26,HIGH(0x2)
000c47 07fa      	CPC  R31,R26
000c48 f409      	BRNE _0x1AB
000c49 c1cc      	RJMP _0x267
                 _0x1AB:
000c4a 30e3      	CPI  R30,LOW(0x3)
000c4b e0a0      	LDI  R26,HIGH(0x3)
000c4c 07fa      	CPC  R31,R26
000c4d f439      	BRNE _0x1AC
000c4e 940e 14c2 	CALL SUBOPT_0x2B
000c50 940e 14b7 	CALL SUBOPT_0x29
000c52 940e 14bc 	CALL SUBOPT_0x2A
000c54 c1ce      	RJMP _0x265
                 _0x1AC:
000c55 30e4      	CPI  R30,LOW(0x4)
000c56 e0a0      	LDI  R26,HIGH(0x4)
000c57 07fa      	CPC  R31,R26
000c58 f439      	BRNE _0x1AD
000c59 940e 14b7 	CALL SUBOPT_0x29
000c5b 940e 14c2 	CALL SUBOPT_0x2B
000c5d 940e 14bc 	CALL SUBOPT_0x2A
000c5f c1c3      	RJMP _0x265
                 _0x1AD:
000c60 30e5      	CPI  R30,LOW(0x5)
000c61 e0a0      	LDI  R26,HIGH(0x5)
000c62 07fa      	CPC  R31,R26
000c63 f429      	BRNE _0x1AE
000c64 940e 14b7 	CALL SUBOPT_0x29
000c66 e4e6      	LDI  R30,LOW(70)
000c67 e0f0      	LDI  R31,HIGH(70)
000c68 c1b3      	RJMP _0x266
                 _0x1AE:
000c69 30e6      	CPI  R30,LOW(0x6)
000c6a e0a0      	LDI  R26,HIGH(0x6)
000c6b 07fa      	CPC  R31,R26
000c6c f409      	BRNE _0x1AF
000c6d c1a8      	RJMP _0x267
                 _0x1AF:
000c6e 30e7      	CPI  R30,LOW(0x7)
000c6f e0a0      	LDI  R26,HIGH(0x7)
000c70 07fa      	CPC  R31,R26
000c71 f419      	BRNE _0x1B0
000c72 e3e2      	LDI  R30,LOW(50)
000c73 e0f0      	LDI  R31,HIGH(50)
000c74 c1a3      	RJMP _0x268
                 _0x1B0:
000c75 30e8      	CPI  R30,LOW(0x8)
000c76 e0a0      	LDI  R26,HIGH(0x8)
000c77 07fa      	CPC  R31,R26
000c78 f429      	BRNE _0x1B1
000c79 940e 14b7 	CALL SUBOPT_0x29
000c7b e4e6      	LDI  R30,LOW(70)
000c7c e0f0      	LDI  R31,HIGH(70)
000c7d c19e      	RJMP _0x266
                 _0x1B1:
000c7e 30e9      	CPI  R30,LOW(0x9)
000c7f e0a0      	LDI  R26,HIGH(0x9)
000c80 07fa      	CPC  R31,R26
000c81 f439      	BRNE _0x1B2
000c82 940e 14c7 	CALL SUBOPT_0x2C
000c84 940e 14c7 	CALL SUBOPT_0x2C
000c86 940e 14bc 	CALL SUBOPT_0x2A
000c88 c19a      	RJMP _0x265
                 _0x1B2:
000c89 30ea      	CPI  R30,LOW(0xA)
000c8a e0a0      	LDI  R26,HIGH(0xA)
000c8b 07fa      	CPC  R31,R26
000c8c f429      	BRNE _0x1B3
000c8d 940e 14b7 	CALL SUBOPT_0x29
000c8f e4e6      	LDI  R30,LOW(70)
000c90 e0f0      	LDI  R31,HIGH(70)
000c91 c18a      	RJMP _0x266
                 _0x1B3:
000c92 30eb      	CPI  R30,LOW(0xB)
000c93 e0a0      	LDI  R26,HIGH(0xB)
000c94 07fa      	CPC  R31,R26
000c95 f429      	BRNE _0x1B4
000c96 940e 14b7 	CALL SUBOPT_0x29
000c98 e4e6      	LDI  R30,LOW(70)
000c99 e0f0      	LDI  R31,HIGH(70)
000c9a c181      	RJMP _0x266
                 _0x1B4:
000c9b 30ec      	CPI  R30,LOW(0xC)
000c9c e0a0      	LDI  R26,HIGH(0xC)
000c9d 07fa      	CPC  R31,R26
000c9e f429      	BRNE _0x1B5
000c9f 940e 14b7 	CALL SUBOPT_0x29
000ca1 e3e2      	LDI  R30,LOW(50)
000ca2 e0f0      	LDI  R31,HIGH(50)
000ca3 c178      	RJMP _0x266
                 _0x1B5:
000ca4 30ed      	CPI  R30,LOW(0xD)
000ca5 e0a0      	LDI  R26,HIGH(0xD)
000ca6 07fa      	CPC  R31,R26
000ca7 f419      	BRNE _0x1B6
000ca8 e3e2      	LDI  R30,LOW(50)
000ca9 e0f0      	LDI  R31,HIGH(50)
000caa c16d      	RJMP _0x268
                 _0x1B6:
000cab 30ee      	CPI  R30,LOW(0xE)
000cac e0a0      	LDI  R26,HIGH(0xE)
000cad 07fa      	CPC  R31,R26
000cae f429      	BRNE _0x1B7
000caf 940e 14b7 	CALL SUBOPT_0x29
000cb1 e5e0      	LDI  R30,LOW(80)
000cb2 e0f0      	LDI  R31,HIGH(80)
000cb3 c168      	RJMP _0x266
                 _0x1B7:
000cb4 30ef      	CPI  R30,LOW(0xF)
000cb5 e0a0      	LDI  R26,HIGH(0xF)
000cb6 07fa      	CPC  R31,R26
000cb7 f419      	BRNE _0x1B8
000cb8 e5e0      	LDI  R30,LOW(80)
000cb9 e0f0      	LDI  R31,HIGH(80)
000cba c15d      	RJMP _0x268
                 _0x1B8:
000cbb 31e0      	CPI  R30,LOW(0x10)
000cbc e0a0      	LDI  R26,HIGH(0x10)
000cbd 07fa      	CPC  R31,R26
000cbe f419      	BRNE _0x1B9
000cbf e5ea      	LDI  R30,LOW(90)
000cc0 e0f0      	LDI  R31,HIGH(90)
000cc1 c156      	RJMP _0x268
                 _0x1B9:
000cc2 31e1      	CPI  R30,LOW(0x11)
000cc3 e0a0      	LDI  R26,HIGH(0x11)
000cc4 07fa      	CPC  R31,R26
000cc5 f419      	BRNE _0x1BA
000cc6 e5ea      	LDI  R30,LOW(90)
000cc7 e0f0      	LDI  R31,HIGH(90)
000cc8 c14f      	RJMP _0x268
                 _0x1BA:
000cc9 31e2      	CPI  R30,LOW(0x12)
000cca e0a0      	LDI  R26,HIGH(0x12)
000ccb 07fa      	CPC  R31,R26
000ccc f419      	BRNE _0x1BB
000ccd e5ea      	LDI  R30,LOW(90)
000cce e0f0      	LDI  R31,HIGH(90)
000ccf c148      	RJMP _0x268
                 _0x1BB:
000cd0 31e3      	CPI  R30,LOW(0x13)
000cd1 e0a0      	LDI  R26,HIGH(0x13)
000cd2 07fa      	CPC  R31,R26
000cd3 f429      	BRNE _0x1BC
000cd4 940e 14c2 	CALL SUBOPT_0x2B
000cd6 e5e0      	LDI  R30,LOW(80)
000cd7 e0f0      	LDI  R31,HIGH(80)
000cd8 c143      	RJMP _0x266
                 _0x1BC:
000cd9 31e4      	CPI  R30,LOW(0x14)
000cda e0a0      	LDI  R26,HIGH(0x14)
000cdb 07fa      	CPC  R31,R26
000cdc f429      	BRNE _0x1BD
000cdd 940e 14c2 	CALL SUBOPT_0x2B
000cdf e5e0      	LDI  R30,LOW(80)
000ce0 e0f0      	LDI  R31,HIGH(80)
000ce1 c13a      	RJMP _0x266
                 _0x1BD:
000ce2 31e5      	CPI  R30,LOW(0x15)
000ce3 e0a0      	LDI  R26,HIGH(0x15)
000ce4 07fa      	CPC  R31,R26
000ce5 f429      	BRNE _0x1BE
000ce6 940e 14cc 	CALL SUBOPT_0x2D
000ce8 e5e5      	LDI  R30,LOW(85)
000ce9 e0f0      	LDI  R31,HIGH(85)
000cea c131      	RJMP _0x266
                 _0x1BE:
000ceb 31e6      	CPI  R30,LOW(0x16)
000cec e0a0      	LDI  R26,HIGH(0x16)
000ced 07fa      	CPC  R31,R26
000cee f429      	BRNE _0x1BF
000cef 940e 14b7 	CALL SUBOPT_0x29
000cf1 e4e6      	LDI  R30,LOW(70)
000cf2 e0f0      	LDI  R31,HIGH(70)
000cf3 c128      	RJMP _0x266
                 _0x1BF:
000cf4 31e7      	CPI  R30,LOW(0x17)
000cf5 e0a0      	LDI  R26,HIGH(0x17)
000cf6 07fa      	CPC  R31,R26
000cf7 f409      	BRNE _0x1C0
000cf8 c11d      	RJMP _0x267
                 _0x1C0:
000cf9 31e8      	CPI  R30,LOW(0x18)
000cfa e0a0      	LDI  R26,HIGH(0x18)
000cfb 07fa      	CPC  R31,R26
000cfc f429      	BRNE _0x1C1
000cfd 940e 14b7 	CALL SUBOPT_0x29
000cff e4e6      	LDI  R30,LOW(70)
000d00 e0f0      	LDI  R31,HIGH(70)
000d01 c11a      	RJMP _0x266
                 _0x1C1:
000d02 31e9      	CPI  R30,LOW(0x19)
000d03 e0a0      	LDI  R26,HIGH(0x19)
000d04 07fa      	CPC  R31,R26
000d05 f409      	BRNE _0x1C2
000d06 c10f      	RJMP _0x267
                 _0x1C2:
000d07 31ea      	CPI  R30,LOW(0x1A)
000d08 e0a0      	LDI  R26,HIGH(0x1A)
000d09 07fa      	CPC  R31,R26
000d0a f429      	BRNE _0x1C3
000d0b 940e 14b7 	CALL SUBOPT_0x29
000d0d e4e6      	LDI  R30,LOW(70)
000d0e e0f0      	LDI  R31,HIGH(70)
000d0f c10c      	RJMP _0x266
                 _0x1C3:
000d10 31eb      	CPI  R30,LOW(0x1B)
000d11 e0a0      	LDI  R26,HIGH(0x1B)
000d12 07fa      	CPC  R31,R26
000d13 f409      	BRNE _0x1C4
000d14 c101      	RJMP _0x267
                 _0x1C4:
000d15 31ec      	CPI  R30,LOW(0x1C)
000d16 e0a0      	LDI  R26,HIGH(0x1C)
000d17 07fa      	CPC  R31,R26
000d18 f429      	BRNE _0x1C5
000d19 940e 14b7 	CALL SUBOPT_0x29
000d1b e4e6      	LDI  R30,LOW(70)
000d1c e0f0      	LDI  R31,HIGH(70)
000d1d c0fe      	RJMP _0x266
                 _0x1C5:
000d1e 31ed      	CPI  R30,LOW(0x1D)
000d1f e0a0      	LDI  R26,HIGH(0x1D)
000d20 07fa      	CPC  R31,R26
000d21 f429      	BRNE _0x1C6
000d22 940e 14b7 	CALL SUBOPT_0x29
000d24 e4e6      	LDI  R30,LOW(70)
000d25 e0f0      	LDI  R31,HIGH(70)
000d26 c0f5      	RJMP _0x266
                 _0x1C6:
000d27 31ee      	CPI  R30,LOW(0x1E)
000d28 e0a0      	LDI  R26,HIGH(0x1E)
000d29 07fa      	CPC  R31,R26
000d2a f409      	BRNE _0x1C7
000d2b c0ea      	RJMP _0x267
                 _0x1C7:
000d2c 31ef      	CPI  R30,LOW(0x1F)
000d2d e0a0      	LDI  R26,HIGH(0x1F)
000d2e 07fa      	CPC  R31,R26
000d2f f409      	BRNE _0x1C8
000d30 c0e5      	RJMP _0x267
                 _0x1C8:
000d31 32e0      	CPI  R30,LOW(0x20)
000d32 e0a0      	LDI  R26,HIGH(0x20)
000d33 07fa      	CPC  R31,R26
000d34 f429      	BRNE _0x1C9
000d35 940e 14b7 	CALL SUBOPT_0x29
000d37 e5e5      	LDI  R30,LOW(85)
000d38 e0f0      	LDI  R31,HIGH(85)
000d39 c0e2      	RJMP _0x266
                 _0x1C9:
000d3a 32e1      	CPI  R30,LOW(0x21)
000d3b e0a0      	LDI  R26,HIGH(0x21)
000d3c 07fa      	CPC  R31,R26
000d3d f419      	BRNE _0x1CA
000d3e e5e5      	LDI  R30,LOW(85)
000d3f e0f0      	LDI  R31,HIGH(85)
000d40 c0d7      	RJMP _0x268
                 _0x1CA:
000d41 32e2      	CPI  R30,LOW(0x22)
000d42 e0a0      	LDI  R26,HIGH(0x22)
000d43 07fa      	CPC  R31,R26
000d44 f409      	BRNE _0x1CB
000d45 c0d0      	RJMP _0x267
                 _0x1CB:
000d46 32e3      	CPI  R30,LOW(0x23)
000d47 e0a0      	LDI  R26,HIGH(0x23)
000d48 07fa      	CPC  R31,R26
000d49 f419      	BRNE _0x1CC
000d4a e5e5      	LDI  R30,LOW(85)
000d4b e0f0      	LDI  R31,HIGH(85)
000d4c c0cb      	RJMP _0x268
                 _0x1CC:
000d4d 32e4      	CPI  R30,LOW(0x24)
000d4e e0a0      	LDI  R26,HIGH(0x24)
000d4f 07fa      	CPC  R31,R26
000d50 f429      	BRNE _0x1CD
000d51 940e 14b7 	CALL SUBOPT_0x29
000d53 e4e6      	LDI  R30,LOW(70)
000d54 e0f0      	LDI  R31,HIGH(70)
000d55 c0c6      	RJMP _0x266
                 _0x1CD:
000d56 32e5      	CPI  R30,LOW(0x25)
000d57 e0a0      	LDI  R26,HIGH(0x25)
000d58 07fa      	CPC  R31,R26
000d59 f409      	BRNE _0x1CE
000d5a c0bb      	RJMP _0x267
                 _0x1CE:
000d5b 32e6      	CPI  R30,LOW(0x26)
000d5c e0a0      	LDI  R26,HIGH(0x26)
000d5d 07fa      	CPC  R31,R26
000d5e f429      	BRNE _0x1CF
000d5f 940e 14b7 	CALL SUBOPT_0x29
000d61 e4e6      	LDI  R30,LOW(70)
000d62 e0f0      	LDI  R31,HIGH(70)
000d63 c0b8      	RJMP _0x266
                 _0x1CF:
000d64 32e7      	CPI  R30,LOW(0x27)
000d65 e0a0      	LDI  R26,HIGH(0x27)
000d66 07fa      	CPC  R31,R26
000d67 f409      	BRNE _0x1D0
000d68 c0ad      	RJMP _0x267
                 _0x1D0:
000d69 32e8      	CPI  R30,LOW(0x28)
000d6a e0a0      	LDI  R26,HIGH(0x28)
000d6b 07fa      	CPC  R31,R26
000d6c f429      	BRNE _0x1D1
000d6d 940e 14b7 	CALL SUBOPT_0x29
000d6f e4e6      	LDI  R30,LOW(70)
000d70 e0f0      	LDI  R31,HIGH(70)
000d71 c0aa      	RJMP _0x266
                 _0x1D1:
000d72 32e9      	CPI  R30,LOW(0x29)
000d73 e0a0      	LDI  R26,HIGH(0x29)
000d74 07fa      	CPC  R31,R26
000d75 f409      	BRNE _0x1D2
000d76 c09f      	RJMP _0x267
                 _0x1D2:
000d77 32ea      	CPI  R30,LOW(0x2A)
000d78 e0a0      	LDI  R26,HIGH(0x2A)
000d79 07fa      	CPC  R31,R26
000d7a f409      	BRNE _0x1D3
000d7b c09a      	RJMP _0x267
                 _0x1D3:
000d7c 32eb      	CPI  R30,LOW(0x2B)
000d7d e0a0      	LDI  R26,HIGH(0x2B)
000d7e 07fa      	CPC  R31,R26
000d7f f429      	BRNE _0x1D4
000d80 940e 14b7 	CALL SUBOPT_0x29
000d82 e4e6      	LDI  R30,LOW(70)
000d83 e0f0      	LDI  R31,HIGH(70)
000d84 c097      	RJMP _0x266
                 _0x1D4:
000d85 32ec      	CPI  R30,LOW(0x2C)
000d86 e0a0      	LDI  R26,HIGH(0x2C)
000d87 07fa      	CPC  R31,R26
000d88 f419      	BRNE _0x1D5
000d89 e4e1      	LDI  R30,LOW(65)
000d8a e0f0      	LDI  R31,HIGH(65)
000d8b c08c      	RJMP _0x268
                 _0x1D5:
000d8c 32ed      	CPI  R30,LOW(0x2D)
000d8d e0a0      	LDI  R26,HIGH(0x2D)
000d8e 07fa      	CPC  R31,R26
000d8f f429      	BRNE _0x1D6
000d90 940e 14c7 	CALL SUBOPT_0x2C
000d92 e5ea      	LDI  R30,LOW(90)
000d93 e0f0      	LDI  R31,HIGH(90)
000d94 c087      	RJMP _0x266
                 _0x1D6:
000d95 32ee      	CPI  R30,LOW(0x2E)
000d96 e0a0      	LDI  R26,HIGH(0x2E)
000d97 07fa      	CPC  R31,R26
000d98 f429      	BRNE _0x1D7
000d99 940e 14c7 	CALL SUBOPT_0x2C
000d9b e5ea      	LDI  R30,LOW(90)
000d9c e0f0      	LDI  R31,HIGH(90)
000d9d c07e      	RJMP _0x266
                 _0x1D7:
000d9e 32ef      	CPI  R30,LOW(0x2F)
000d9f e0a0      	LDI  R26,HIGH(0x2F)
000da0 07fa      	CPC  R31,R26
000da1 f429      	BRNE _0x1D8
000da2 940e 14cc 	CALL SUBOPT_0x2D
000da4 e5e0      	LDI  R30,LOW(80)
000da5 e0f0      	LDI  R31,HIGH(80)
000da6 c075      	RJMP _0x266
                 _0x1D8:
000da7 33e0      	CPI  R30,LOW(0x30)
000da8 e0a0      	LDI  R26,HIGH(0x30)
000da9 07fa      	CPC  R31,R26
000daa f429      	BRNE _0x1D9
000dab 940e 14cc 	CALL SUBOPT_0x2D
000dad e5e0      	LDI  R30,LOW(80)
000dae e0f0      	LDI  R31,HIGH(80)
000daf c06c      	RJMP _0x266
                 _0x1D9:
000db0 33e1      	CPI  R30,LOW(0x31)
000db1 e0a0      	LDI  R26,HIGH(0x31)
000db2 07fa      	CPC  R31,R26
000db3 f419      	BRNE _0x1DA
000db4 e4eb      	LDI  R30,LOW(75)
000db5 e0f0      	LDI  R31,HIGH(75)
000db6 c061      	RJMP _0x268
                 _0x1DA:
000db7 33e2      	CPI  R30,LOW(0x32)
000db8 e0a0      	LDI  R26,HIGH(0x32)
000db9 07fa      	CPC  R31,R26
000dba f429      	BRNE _0x1DB
000dbb 940e 14c7 	CALL SUBOPT_0x2C
000dbd e4e6      	LDI  R30,LOW(70)
000dbe e0f0      	LDI  R31,HIGH(70)
000dbf c05c      	RJMP _0x266
                 _0x1DB:
000dc0 33e3      	CPI  R30,LOW(0x33)
000dc1 e0a0      	LDI  R26,HIGH(0x33)
000dc2 07fa      	CPC  R31,R26
000dc3 f429      	BRNE _0x1DC
000dc4 940e 14b7 	CALL SUBOPT_0x29
000dc6 e5ea      	LDI  R30,LOW(90)
000dc7 e0f0      	LDI  R31,HIGH(90)
000dc8 c053      	RJMP _0x266
                 _0x1DC:
000dc9 33e4      	CPI  R30,LOW(0x34)
000dca e0a0      	LDI  R26,HIGH(0x34)
000dcb 07fa      	CPC  R31,R26
000dcc f429      	BRNE _0x1DD
000dcd 940e 14b7 	CALL SUBOPT_0x29
000dcf e4e6      	LDI  R30,LOW(70)
000dd0 e0f0      	LDI  R31,HIGH(70)
000dd1 c04a      	RJMP _0x266
                 _0x1DD:
000dd2 33e5      	CPI  R30,LOW(0x35)
000dd3 e0a0      	LDI  R26,HIGH(0x35)
000dd4 07fa      	CPC  R31,R26
000dd5 f419      	BRNE _0x1DE
000dd6 e4eb      	LDI  R30,LOW(75)
000dd7 e0f0      	LDI  R31,HIGH(75)
000dd8 c03f      	RJMP _0x268
                 _0x1DE:
000dd9 33e6      	CPI  R30,LOW(0x36)
000dda e0a0      	LDI  R26,HIGH(0x36)
000ddb 07fa      	CPC  R31,R26
000ddc f429      	BRNE _0x1DF
000ddd 940e 14c7 	CALL SUBOPT_0x2C
000ddf e4e1      	LDI  R30,LOW(65)
000de0 e0f0      	LDI  R31,HIGH(65)
000de1 c03a      	RJMP _0x266
                 _0x1DF:
000de2 33e7      	CPI  R30,LOW(0x37)
000de3 e0a0      	LDI  R26,HIGH(0x37)
000de4 07fa      	CPC  R31,R26
000de5 f419      	BRNE _0x1E0
000de6 e5e0      	LDI  R30,LOW(80)
000de7 e0f0      	LDI  R31,HIGH(80)
000de8 c02f      	RJMP _0x268
                 _0x1E0:
000de9 33e8      	CPI  R30,LOW(0x38)
000dea e0a0      	LDI  R26,HIGH(0x38)
000deb 07fa      	CPC  R31,R26
000dec f419      	BRNE _0x1E1
000ded e5e0      	LDI  R30,LOW(80)
000dee e0f0      	LDI  R31,HIGH(80)
000def c028      	RJMP _0x268
                 _0x1E1:
000df0 33e9      	CPI  R30,LOW(0x39)
000df1 e0a0      	LDI  R26,HIGH(0x39)
000df2 07fa      	CPC  R31,R26
000df3 f419      	BRNE _0x1E2
000df4 e5e0      	LDI  R30,LOW(80)
000df5 e0f0      	LDI  R31,HIGH(80)
000df6 c021      	RJMP _0x268
                 _0x1E2:
000df7 33ea      	CPI  R30,LOW(0x3A)
000df8 e0a0      	LDI  R26,HIGH(0x3A)
000df9 07fa      	CPC  R31,R26
000dfa f429      	BRNE _0x1E3
000dfb 940e 14b7 	CALL SUBOPT_0x29
000dfd e5e0      	LDI  R30,LOW(80)
000dfe e0f0      	LDI  R31,HIGH(80)
000dff c01c      	RJMP _0x266
                 _0x1E3:
000e00 33eb      	CPI  R30,LOW(0x3B)
000e01 e0a0      	LDI  R26,HIGH(0x3B)
000e02 07fa      	CPC  R31,R26
000e03 f429      	BRNE _0x1E4
000e04 940e 14b7 	CALL SUBOPT_0x29
000e06 e5e5      	LDI  R30,LOW(85)
000e07 e0f0      	LDI  R31,HIGH(85)
000e08 c013      	RJMP _0x266
                 _0x1E4:
000e09 33ec      	CPI  R30,LOW(0x3C)
000e0a e0a0      	LDI  R26,HIGH(0x3C)
000e0b 07fa      	CPC  R31,R26
000e0c f429      	BRNE _0x1E5
000e0d 940e 14c7 	CALL SUBOPT_0x2C
000e0f e4e6      	LDI  R30,LOW(70)
000e10 e0f0      	LDI  R31,HIGH(70)
000e11 c00a      	RJMP _0x266
                 _0x1E5:
000e12 34e0      	CPI  R30,LOW(0x40)
000e13 e0a0      	LDI  R26,HIGH(0x40)
000e14 07fa      	CPC  R31,R26
000e15 f481      	BRNE _0x1A8
                 _0x267:
000e16 e4e6      	LDI  R30,LOW(70)
000e17 e0f0      	LDI  R31,HIGH(70)
                 _0x268:
000e18 93fa      	ST   -Y,R31
000e19 93ea      	ST   -Y,R30
000e1a e6e4      	LDI  R30,LOW(100)
000e1b e0f0      	LDI  R31,HIGH(100)
                 _0x266:
000e1c 93fa      	ST   -Y,R31
000e1d 93ea      	ST   -Y,R30
000e1e e0e1      	LDI  R30,LOW(1)
000e1f e0f0      	LDI  R31,HIGH(1)
000e20 93fa      	ST   -Y,R31
000e21 93ea      	ST   -Y,R30
000e22 e0a1      	LDI  R26,LOW(1)
                 _0x265:
000e23 e0b0      	LDI  R27,0
000e24 940e 038b 	CALL _movement
                 _0x1A8:
000e26 9508      	RET
                 ; .FEND
                 _STATE_DREHUNG:
                 ; .FSTART _STATE_DREHUNG
000e27 940e 137a 	CALL SUBOPT_0x5
000e29 940e 136f 	CALL SUBOPT_0x3
                 _0x1E8:
000e2b 940e 1471 	CALL SUBOPT_0x21
000e2d 940e 14ad 	CALL SUBOPT_0x27
                +
000e2f e0ae     +LDI R26 , LOW ( _0x1EE + ( 0 ) )
000e30 e0b6     +LDI R27 , HIGH ( _0x1EE + ( 0 ) )
                 	__POINTW2MN _0x1EE,0
000e31 940e 148d 	CALL SUBOPT_0x25
                +
000e33 e1a1     +LDI R26 , LOW ( _0x1EE + ( 3 ) )
000e34 e0b6     +LDI R27 , HIGH ( _0x1EE + ( 3 ) )
                 	__POINTW2MN _0x1EE,3
000e35 940e 149d 	CALL SUBOPT_0x26
000e37 940e 1375 	CALL SUBOPT_0x4
000e39 34a0      	CPI  R26,LOW(0x40)
000e3a e0e0      	LDI  R30,HIGH(0x40)
000e3b 07be      	CPC  R27,R30
000e3c f434      	BRGE _0x1EF
000e3d 940e 1364 	CALL SUBOPT_0x1
000e3f 34a0      	CPI  R26,LOW(0x40)
000e40 e0e0      	LDI  R30,HIGH(0x40)
000e41 07be      	CPC  R27,R30
000e42 f00c      	BRLT _0x1F0
                 _0x1EF:
000e43 c001      	RJMP _0x1E9
                 _0x1F0:
000e44 cfe6      	RJMP _0x1E8
                 _0x1E9:
000e45 9508      	RET
                 ; .FEND
                 
                 	.DSEG
                 _0x1EE:
00060e           	.BYTE 0x7
                 
                 	.CSEG
                 _STATE_METERLINKSMETERRECHTS:
                 ; .FSTART _STATE_METERLINKSMETERRECHTS
000e46 940e 137a 	CALL SUBOPT_0x5
000e48 940e 136f 	CALL SUBOPT_0x3
                 _0x1F2:
000e4a 940e 1477 	CALL SUBOPT_0x22
000e4c 940e 14ad 	CALL SUBOPT_0x27
                +
000e4e e1a5     +LDI R26 , LOW ( _0x1F8 + ( 0 ) )
000e4f e0b6     +LDI R27 , HIGH ( _0x1F8 + ( 0 ) )
                 	__POINTW2MN _0x1F8,0
000e50 940e 148d 	CALL SUBOPT_0x25
                +
000e52 e1a8     +LDI R26 , LOW ( _0x1F8 + ( 3 ) )
000e53 e0b6     +LDI R27 , HIGH ( _0x1F8 + ( 3 ) )
                 	__POINTW2MN _0x1F8,3
000e54 940e 149d 	CALL SUBOPT_0x26
000e56 940e 1375 	CALL SUBOPT_0x4
000e58 9751      	SBIW R26,17
000e59 f384      	BRLT _0x1F2
000e5a 940e 14d1 	CALL SUBOPT_0x2E
000e5c 940e 136f 	CALL SUBOPT_0x3
                 _0x1FE:
000e5e 940e 1471 	CALL SUBOPT_0x21
000e60 940e 14d8 	CALL SUBOPT_0x2F
                +
000e62 e1ac     +LDI R26 , LOW ( _0x1F8 + ( 7 ) )
000e63 e0b6     +LDI R27 , HIGH ( _0x1F8 + ( 7 ) )
                 	__POINTW2MN _0x1F8,7
000e64 940e 148d 	CALL SUBOPT_0x25
                +
000e66 e1af     +LDI R26 , LOW ( _0x1F8 + ( 10 ) )
000e67 e0b6     +LDI R27 , HIGH ( _0x1F8 + ( 10 ) )
                 	__POINTW2MN _0x1F8,10
000e68 940e 149d 	CALL SUBOPT_0x26
000e6a 940e 1375 	CALL SUBOPT_0x4
000e6c 36a4      	CPI  R26,LOW(0x64)
000e6d e0e0      	LDI  R30,HIGH(0x64)
000e6e 07be      	CPC  R27,R30
000e6f f434      	BRGE _0x204
000e70 940e 1364 	CALL SUBOPT_0x1
000e72 36a4      	CPI  R26,LOW(0x64)
000e73 e0e0      	LDI  R30,HIGH(0x64)
000e74 07be      	CPC  R27,R30
000e75 f00c      	BRLT _0x205
                 _0x204:
000e76 c001      	RJMP _0x1FF
                 _0x205:
000e77 cfe6      	RJMP _0x1FE
                 _0x1FF:
000e78 940e 14d1 	CALL SUBOPT_0x2E
000e7a 940e 136f 	CALL SUBOPT_0x3
                 _0x20B:
000e7c 940e 147f 	CALL SUBOPT_0x23
000e7e 940e 1488 	CALL SUBOPT_0x24
                +
000e80 e2a3     +LDI R26 , LOW ( _0x1F8 + ( 14 ) )
000e81 e0b6     +LDI R27 , HIGH ( _0x1F8 + ( 14 ) )
                 	__POINTW2MN _0x1F8,14
000e82 940e 148d 	CALL SUBOPT_0x25
                +
000e84 e2a6     +LDI R26 , LOW ( _0x1F8 + ( 17 ) )
000e85 e0b6     +LDI R27 , HIGH ( _0x1F8 + ( 17 ) )
                 	__POINTW2MN _0x1F8,17
000e86 940e 149d 	CALL SUBOPT_0x26
000e88 940e 1364 	CALL SUBOPT_0x1
000e8a 9751      	SBIW R26,17
000e8b f384      	BRLT _0x20B
000e8c 940e 14d1 	CALL SUBOPT_0x2E
000e8e 940e 136f 	CALL SUBOPT_0x3
                 _0x216:
000e90 940e 1471 	CALL SUBOPT_0x21
000e92 940e 14d8 	CALL SUBOPT_0x2F
                +
000e94 e2aa     +LDI R26 , LOW ( _0x1F8 + ( 21 ) )
000e95 e0b6     +LDI R27 , HIGH ( _0x1F8 + ( 21 ) )
                 	__POINTW2MN _0x1F8,21
000e96 940e 148d 	CALL SUBOPT_0x25
                +
000e98 e2ad     +LDI R26 , LOW ( _0x1F8 + ( 24 ) )
000e99 e0b6     +LDI R27 , HIGH ( _0x1F8 + ( 24 ) )
                 	__POINTW2MN _0x1F8,24
000e9a 940e 149d 	CALL SUBOPT_0x26
000e9c 940e 1375 	CALL SUBOPT_0x4
000e9e 36a4      	CPI  R26,LOW(0x64)
000e9f e0e0      	LDI  R30,HIGH(0x64)
000ea0 07be      	CPC  R27,R30
000ea1 f434      	BRGE _0x21C
000ea2 940e 1364 	CALL SUBOPT_0x1
000ea4 36a4      	CPI  R26,LOW(0x64)
000ea5 e0e0      	LDI  R30,HIGH(0x64)
000ea6 07be      	CPC  R27,R30
000ea7 f00c      	BRLT _0x21D
                 _0x21C:
000ea8 c001      	RJMP _0x217
                 _0x21D:
000ea9 cfe6      	RJMP _0x216
                 _0x217:
000eaa 9508      	RET
                 ; .FEND
                 
                 	.DSEG
                 _0x1F8:
000615           	.BYTE 0x1C
                 
                 	.CSEG
                 _STATE_3:
                 ; .FSTART _STATE_3
000eab d965      	RCALL _detector
000eac dd82      	RCALL _detectorcase
000ead 9508      	RET
                 ; .FEND
                 _STATE_MACHINE:
                 ; .FSTART _STATE_MACHINE
000eae e0e0      	LDI  R30,LOW(0)
000eaf 93e0 07cb 	STS  _ipwmcompareleft,R30
000eb1 93e0 07cc 	STS  _ipwmcompareleft+1,R30
000eb3 93e0 07cd 	STS  _ipwmcompareright,R30
000eb5 93e0 07ce 	STS  _ipwmcompareright+1,R30
000eb7 91e0 07b3 	LDS  R30,_state
000eb9 91f0 07b4 	LDS  R31,_state+1
000ebb 9730      	SBIW R30,0
000ebc f461      	BRNE _0x221
000ebd 2c0c      	MOV  R0,R12
000ebe 280d      	OR   R0,R13
000ebf f431      	BRNE _0x222
000ec0 940e 12ba 	CALL _lcd_clear
                +
000ec2 e3a1     +LDI R26 , LOW ( _0x223 + ( 0 ) )
000ec3 e0b6     +LDI R27 , HIGH ( _0x223 + ( 0 ) )
                 	__POINTW2MN _0x223,0
000ec4 940e 14dd 	CALL SUBOPT_0x30
                 _0x222:
000ec6 940e 0671 	CALL _STATE_LINE_SENSOR
000ec8 c11c      	RJMP _0x220
                 _0x221:
000ec9 30e1      	CPI  R30,LOW(0x1)
000eca e0a0      	LDI  R26,HIGH(0x1)
000ecb 07fa      	CPC  R31,R26
000ecc f461      	BRNE _0x224
000ecd 2c0c      	MOV  R0,R12
000ece 280d      	OR   R0,R13
000ecf f431      	BRNE _0x225
000ed0 940e 12ba 	CALL _lcd_clear
                +
000ed2 e4a2     +LDI R26 , LOW ( _0x223 + ( 17 ) )
000ed3 e0b6     +LDI R27 , HIGH ( _0x223 + ( 17 ) )
                 	__POINTW2MN _0x223,17
000ed4 940e 14dd 	CALL SUBOPT_0x30
                 _0x225:
000ed6 940e 069a 	CALL _STATE_ENGINE
000ed8 c10c      	RJMP _0x220
                 _0x224:
000ed9 30e2      	CPI  R30,LOW(0x2)
000eda e0a0      	LDI  R26,HIGH(0x2)
000edb 07fa      	CPC  R31,R26
000edc f461      	BRNE _0x226
000edd 2c0c      	MOV  R0,R12
000ede 280d      	OR   R0,R13
000edf f431      	BRNE _0x227
000ee0 940e 12ba 	CALL _lcd_clear
                +
000ee2 e5a2     +LDI R26 , LOW ( _0x223 + ( 33 ) )
000ee3 e0b6     +LDI R27 , HIGH ( _0x223 + ( 33 ) )
                 	__POINTW2MN _0x223,33
000ee4 940e 14dd 	CALL SUBOPT_0x30
                 _0x227:
000ee6 940e 06bb 	CALL _STATE_ENGINE_DIR
000ee8 c0fc      	RJMP _0x220
                 _0x226:
000ee9 30e3      	CPI  R30,LOW(0x3)
000eea e0a0      	LDI  R26,HIGH(0x3)
000eeb 07fa      	CPC  R31,R26
000eec f461      	BRNE _0x228
000eed 2c0c      	MOV  R0,R12
000eee 280d      	OR   R0,R13
000eef f431      	BRNE _0x229
000ef0 940e 12ba 	CALL _lcd_clear
                +
000ef2 e6a4     +LDI R26 , LOW ( _0x223 + ( 51 ) )
000ef3 e0b6     +LDI R27 , HIGH ( _0x223 + ( 51 ) )
                 	__POINTW2MN _0x223,51
000ef4 940e 14dd 	CALL SUBOPT_0x30
                 _0x229:
000ef6 940e 06dc 	CALL _STATE_DISTANCE_SENSOR
000ef8 c0ec      	RJMP _0x220
                 _0x228:
000ef9 30e4      	CPI  R30,LOW(0x4)
000efa e0a0      	LDI  R26,HIGH(0x4)
000efb 07fa      	CPC  R31,R26
000efc f461      	BRNE _0x22A
000efd 2c0c      	MOV  R0,R12
000efe 280d      	OR   R0,R13
000eff f431      	BRNE _0x22B
000f00 940e 12ba 	CALL _lcd_clear
                +
000f02 e7a5     +LDI R26 , LOW ( _0x223 + ( 68 ) )
000f03 e0b6     +LDI R27 , HIGH ( _0x223 + ( 68 ) )
                 	__POINTW2MN _0x223,68
000f04 940e 14dd 	CALL SUBOPT_0x30
                 _0x22B:
000f06 940e 0705 	CALL _STATE_LIGHTSENSOR
000f08 c0dc      	RJMP _0x220
                 _0x22A:
000f09 30e5      	CPI  R30,LOW(0x5)
000f0a e0a0      	LDI  R26,HIGH(0x5)
000f0b 07fa      	CPC  R31,R26
000f0c f459      	BRNE _0x22C
000f0d 2c0c      	MOV  R0,R12
000f0e 280d      	OR   R0,R13
000f0f f431      	BRNE _0x22D
000f10 940e 12ba 	CALL _lcd_clear
                +
000f12 e8a6     +LDI R26 , LOW ( _0x223 + ( 85 ) )
000f13 e0b6     +LDI R27 , HIGH ( _0x223 + ( 85 ) )
                 	__POINTW2MN _0x223,85
000f14 940e 14dd 	CALL SUBOPT_0x30
                 _0x22D:
000f16 d815      	RCALL _STATE_WIICAM
000f17 c0cd      	RJMP _0x220
                 _0x22C:
000f18 30e6      	CPI  R30,LOW(0x6)
000f19 e0a0      	LDI  R26,HIGH(0x6)
000f1a 07fa      	CPC  R31,R26
000f1b f459      	BRNE _0x22E
000f1c 2c0c      	MOV  R0,R12
000f1d 280d      	OR   R0,R13
000f1e f431      	BRNE _0x22F
000f1f 940e 12ba 	CALL _lcd_clear
                +
000f21 e9a6     +LDI R26 , LOW ( _0x223 + ( 101 ) )
000f22 e0b6     +LDI R27 , HIGH ( _0x223 + ( 101 ) )
                 	__POINTW2MN _0x223,101
000f23 940e 14dd 	CALL SUBOPT_0x30
                 _0x22F:
000f25 d87b      	RCALL _STATE_IRTOWER
000f26 c0be      	RJMP _0x220
                 _0x22E:
000f27 30e7      	CPI  R30,LOW(0x7)
000f28 e0a0      	LDI  R26,HIGH(0x7)
000f29 07fa      	CPC  R31,R26
000f2a f459      	BRNE _0x230
000f2b 2c0c      	MOV  R0,R12
000f2c 280d      	OR   R0,R13
000f2d f431      	BRNE _0x231
000f2e 940e 12ba 	CALL _lcd_clear
                +
000f30 eaa7     +LDI R26 , LOW ( _0x223 + ( 118 ) )
000f31 e0b6     +LDI R27 , HIGH ( _0x223 + ( 118 ) )
                 	__POINTW2MN _0x223,118
000f32 940e 14dd 	CALL SUBOPT_0x30
                 _0x231:
000f34 d86e      	RCALL _STATE_SERVO
000f35 c0af      	RJMP _0x220
                 _0x230:
000f36 30e8      	CPI  R30,LOW(0x8)
000f37 e0a0      	LDI  R26,HIGH(0x8)
000f38 07fa      	CPC  R31,R26
000f39 f459      	BRNE _0x232
000f3a 2c0c      	MOV  R0,R12
000f3b 280d      	OR   R0,R13
000f3c f431      	BRNE _0x233
000f3d 940e 12ba 	CALL _lcd_clear
                +
000f3f eba6     +LDI R26 , LOW ( _0x223 + ( 133 ) )
000f40 e0b6     +LDI R27 , HIGH ( _0x223 + ( 133 ) )
                 	__POINTW2MN _0x223,133
000f41 940e 14dd 	CALL SUBOPT_0x30
                 _0x233:
000f43 d867      	RCALL _STATE_ULTRASONIC
000f44 c0a0      	RJMP _0x220
                 _0x232:
000f45 30e9      	CPI  R30,LOW(0x9)
000f46 e0a0      	LDI  R26,HIGH(0x9)
000f47 07fa      	CPC  R31,R26
000f48 f459      	BRNE _0x234
000f49 2c0c      	MOV  R0,R12
000f4a 280d      	OR   R0,R13
000f4b f431      	BRNE _0x235
000f4c 940e 12ba 	CALL _lcd_clear
                +
000f4e eca6     +LDI R26 , LOW ( _0x223 + ( 149 ) )
000f4f e0b6     +LDI R27 , HIGH ( _0x223 + ( 149 ) )
                 	__POINTW2MN _0x223,149
000f50 940e 14dd 	CALL SUBOPT_0x30
                 _0x235:
000f52 d884      	RCALL _STATE_VOR
000f53 c091      	RJMP _0x220
                 _0x234:
000f54 30ea      	CPI  R30,LOW(0xA)
000f55 e0a0      	LDI  R26,HIGH(0xA)
000f56 07fa      	CPC  R31,R26
000f57 f459      	BRNE _0x236
000f58 2c0c      	MOV  R0,R12
000f59 280d      	OR   R0,R13
000f5a f431      	BRNE _0x237
000f5b 940e 12ba 	CALL _lcd_clear
                +
000f5d eda6     +LDI R26 , LOW ( _0x223 + ( 165 ) )
000f5e e0b6     +LDI R27 , HIGH ( _0x223 + ( 165 ) )
                 	__POINTW2MN _0x223,165
000f5f 940e 14dd 	CALL SUBOPT_0x30
                 _0x237:
000f61 d878      	RCALL _STATE_ZUR
000f62 c082      	RJMP _0x220
                 _0x236:
000f63 30eb      	CPI  R30,LOW(0xB)
000f64 e0a0      	LDI  R26,HIGH(0xB)
000f65 07fa      	CPC  R31,R26
000f66 f459      	BRNE _0x238
000f67 2c0c      	MOV  R0,R12
000f68 280d      	OR   R0,R13
000f69 f431      	BRNE _0x239
000f6a 940e 12ba 	CALL _lcd_clear
                +
000f6c eea8     +LDI R26 , LOW ( _0x223 + ( 183 ) )
000f6d e0b6     +LDI R27 , HIGH ( _0x223 + ( 183 ) )
                 	__POINTW2MN _0x223,183
000f6e 940e 14dd 	CALL SUBOPT_0x30
                 _0x239:
000f70 d86e      	RCALL _STATE_LINKS
000f71 c073      	RJMP _0x220
                 _0x238:
000f72 30ec      	CPI  R30,LOW(0xC)
000f73 e0a0      	LDI  R26,HIGH(0xC)
000f74 07fa      	CPC  R31,R26
000f75 f459      	BRNE _0x23A
000f76 2c0c      	MOV  R0,R12
000f77 280d      	OR   R0,R13
000f78 f431      	BRNE _0x23B
000f79 940e 12ba 	CALL _lcd_clear
                +
000f7b efa9     +LDI R26 , LOW ( _0x223 + ( 200 ) )
000f7c e0b6     +LDI R27 , HIGH ( _0x223 + ( 200 ) )
                 	__POINTW2MN _0x223,200
000f7d 940e 14dd 	CALL SUBOPT_0x30
                 _0x23B:
000f7f d862      	RCALL _STATE_RECHTS
000f80 c064      	RJMP _0x220
                 _0x23A:
000f81 30ed      	CPI  R30,LOW(0xD)
000f82 e0a0      	LDI  R26,HIGH(0xD)
000f83 07fa      	CPC  R31,R26
000f84 f459      	BRNE _0x23C
000f85 2c0c      	MOV  R0,R12
000f86 280d      	OR   R0,R13
000f87 f431      	BRNE _0x23D
000f88 940e 12ba 	CALL _lcd_clear
                +
000f8a e0a9     +LDI R26 , LOW ( _0x223 + ( 216 ) )
000f8b e0b7     +LDI R27 , HIGH ( _0x223 + ( 216 ) )
                 	__POINTW2MN _0x223,216
000f8c 940e 14dd 	CALL SUBOPT_0x30
                 _0x23D:
000f8e d86d      	RCALL _STATE_90LINKS
000f8f c055      	RJMP _0x220
                 _0x23C:
000f90 30ee      	CPI  R30,LOW(0xE)
000f91 e0a0      	LDI  R26,HIGH(0xE)
000f92 07fa      	CPC  R31,R26
000f93 f459      	BRNE _0x23E
000f94 2c0c      	MOV  R0,R12
000f95 280d      	OR   R0,R13
000f96 f431      	BRNE _0x23F
000f97 940e 12ba 	CALL _lcd_clear
                +
000f99 e1ab     +LDI R26 , LOW ( _0x223 + ( 234 ) )
000f9a e0b7     +LDI R27 , HIGH ( _0x223 + ( 234 ) )
                 	__POINTW2MN _0x223,234
000f9b 940e 14dd 	CALL SUBOPT_0x30
                 _0x23F:
000f9d d849      	RCALL _STATE_90RECHTS
000f9e c046      	RJMP _0x220
                 _0x23E:
000f9f 30ef      	CPI  R30,LOW(0xF)
000fa0 e0a0      	LDI  R26,HIGH(0xF)
000fa1 07fa      	CPC  R31,R26
000fa2 f459      	BRNE _0x240
000fa3 2c0c      	MOV  R0,R12
000fa4 280d      	OR   R0,R13
000fa5 f431      	BRNE _0x241
000fa6 940e 12ba 	CALL _lcd_clear
                +
000fa8 e2ac     +LDI R26 , LOW ( _0x223 + ( 251 ) )
000fa9 e0b7     +LDI R27 , HIGH ( _0x223 + ( 251 ) )
                 	__POINTW2MN _0x223,251
000faa 940e 14dd 	CALL SUBOPT_0x30
                 _0x241:
000fac de7a      	RCALL _STATE_DREHUNG
000fad c037      	RJMP _0x220
                 _0x240:
000fae 31e0      	CPI  R30,LOW(0x10)
000faf e0a0      	LDI  R26,HIGH(0x10)
000fb0 07fa      	CPC  R31,R26
000fb1 f459      	BRNE _0x242
000fb2 2c0c      	MOV  R0,R12
000fb3 280d      	OR   R0,R13
000fb4 f431      	BRNE _0x243
000fb5 940e 12ba 	CALL _lcd_clear
                +
000fb7 e3a9     +LDI R26 , LOW ( _0x223 + ( 264 ) )
000fb8 e0b7     +LDI R27 , HIGH ( _0x223 + ( 264 ) )
                 	__POINTW2MN _0x223,264
000fb9 940e 14dd 	CALL SUBOPT_0x30
                 _0x243:
000fbb de8a      	RCALL _STATE_METERLINKSMETERRECHTS
000fbc c028      	RJMP _0x220
                 _0x242:
000fbd 31e1      	CPI  R30,LOW(0x11)
000fbe e0a0      	LDI  R26,HIGH(0x11)
000fbf 07fa      	CPC  R31,R26
000fc0 f459      	BRNE _0x244
000fc1 2c0c      	MOV  R0,R12
000fc2 280d      	OR   R0,R13
000fc3 f431      	BRNE _0x245
000fc4 940e 12ba 	CALL _lcd_clear
                +
000fc6 e4ab     +LDI R26 , LOW ( _0x223 + ( 282 ) )
000fc7 e0b7     +LDI R27 , HIGH ( _0x223 + ( 282 ) )
                 	__POINTW2MN _0x223,282
000fc8 940e 14dd 	CALL SUBOPT_0x30
                 _0x245:
000fca dee0      	RCALL _STATE_3
000fcb c019      	RJMP _0x220
                 _0x244:
000fcc 31e2      	CPI  R30,LOW(0x12)
000fcd e0a0      	LDI  R26,HIGH(0x12)
000fce 07fa      	CPC  R31,R26
000fcf f459      	BRNE _0x248
000fd0 2c0c      	MOV  R0,R12
000fd1 280d      	OR   R0,R13
000fd2 f431      	BRNE _0x247
000fd3 940e 12ba 	CALL _lcd_clear
                +
000fd5 e5ad     +LDI R26 , LOW ( _0x223 + ( 300 ) )
000fd6 e0b7     +LDI R27 , HIGH ( _0x223 + ( 300 ) )
                 	__POINTW2MN _0x223,300
000fd7 940e 14dd 	CALL SUBOPT_0x30
                 _0x247:
000fd9 ded1      	RCALL _STATE_3
000fda c00a      	RJMP _0x220
                 _0x248:
000fdb 940e 12ba 	CALL _lcd_clear
                +
000fdd e6af     +LDI R26 , LOW ( _0x223 + ( 318 ) )
000fde e0b7     +LDI R27 , HIGH ( _0x223 + ( 318 ) )
                 	__POINTW2MN _0x223,318
000fdf 940e 1394 	CALL SUBOPT_0xA
                +
000fe1 e7ad     +LDI R26 , LOW ( _0x223 + ( 332 ) )
000fe2 e0b7     +LDI R27 , HIGH ( _0x223 + ( 332 ) )
                 	__POINTW2MN _0x223,332
000fe3 940e 12f6 	CALL _lcd_puts
                 _0x220:
000fe5 e3a2      	LDI  R26,LOW(50)
000fe6 e0b0      	LDI  R27,0
000fe7 940e 1543 	CALL _delay_ms
000fe9 9508      	RET
                 ; .FEND
                 
                 	.DSEG
                 _0x223:
000631           	.BYTE 0x157
                 ;#include "modules/esp.h"
                 
                 	.CSEG
                 _slave_rx_handler:
                 ; .FSTART _slave_rx_handler
000fea 93aa      	ST   -Y,R26
                 ;	rx_complete -> Y+0
000feb 91e0 078a 	LDS  R30,_twi_result
000fed 30e0      	CPI  R30,0
000fee f419      	BRNE _0x249
000fef 9468      	SET
000ff0 f821      	BLD  R2,1
000ff1 c005      	RJMP _0x24A
                 _0x249:
000ff2 94e8      	CLT
000ff3 f821      	BLD  R2,1
000ff4 e0e0      	LDI  R30,LOW(0)
000ff5 940c 135b 	JMP  _0x20E0001
                 _0x24A:
000ff7 81e8      	LD   R30,Y
000ff8 30e0      	CPI  R30,0
000ff9 f019      	BREQ _0x24B
000ffa e0e0      	LDI  R30,LOW(0)
000ffb 940c 135b 	JMP  _0x20E0001
                 _0x24B:
000ffd 91a0 0789 	LDS  R26,_twi_rx_index
000fff e0ef      	LDI  R30,LOW(15)
001000 940e 1672 	CALL __LTB12U
001002 940c 135b 	JMP  _0x20E0001
                 ; .FEND
                 _slave_tx_handler:
                 ; .FSTART _slave_tx_handler
001004 93aa      	ST   -Y,R26
                 ;	tx_complete -> Y+0
001005 81e8      	LD   R30,Y
001006 30e0      	CPI  R30,0
001007 f009      	BREQ PC+2
001008 c042      	RJMP _0x24C
001009 91e0 07c5 	LDS  R30,_linesensorvaluetemp
00100b 93e0 07f9 	STS  _tx_buffer,R30
00100d 91e0 07c7 	LDS  R30,_distanzsensorvaluetemp
                +
00100f 93e0 07fa+STS _tx_buffer + ( 1 ) , R30
                 	__PUTB1MN _tx_buffer,1
                +
001011 91e0 085e+LDS R30 , _adc_data + ( 2 )
001013 91f0 085f+LDS R31 , _adc_data + ( 2 ) + 1
                 	__GETW1MN _adc_data,2
                +
001015 93e0 07fb+STS _tx_buffer + ( 2 ) , R30
001017 93f0 07fc+STS _tx_buffer + ( 2 ) + 1 , R31
                 	__PUTW1MN _tx_buffer,2
                +
001019 91e0 0862+LDS R30 , _adc_data + ( 6 )
00101b 91f0 0863+LDS R31 , _adc_data + ( 6 ) + 1
                 	__GETW1MN _adc_data,6
                +
00101d 93e0 07fd+STS _tx_buffer + ( 4 ) , R30
00101f 93f0 07fe+STS _tx_buffer + ( 4 ) + 1 , R31
                 	__PUTW1MN _tx_buffer,4
001021 91e0 0869 	LDS  R30,_wheelEncoderCounter_left
001023 91f0 086a 	LDS  R31,_wheelEncoderCounter_left+1
                +
001025 93e0 07ff+STS _tx_buffer + ( 6 ) , R30
001027 93f0 0800+STS _tx_buffer + ( 6 ) + 1 , R31
                 	__PUTW1MN _tx_buffer,6
001029 91e0 086b 	LDS  R30,_wheelEncoderCounter_right
00102b 91f0 086c 	LDS  R31,_wheelEncoderCounter_right+1
                +
00102d 93e0 0801+STS _tx_buffer + ( 8 ) , R30
00102f 93f0 0802+STS _tx_buffer + ( 8 ) + 1 , R31
                 	__PUTW1MN _tx_buffer,8
001031 91e0 079e 	LDS  R30,_wiicamobject
                +
001033 93e0 0803+STS _tx_buffer + ( 10 ) , R30
                 	__PUTB1MN _tx_buffer,10
001035 91e0 07d6 	LDS  R30,_ucData
                +
001037 93e0 0804+STS _tx_buffer + ( 11 ) , R30
                 	__PUTB1MN _tx_buffer,11
001039 2de6      	MOV  R30,R6
00103a 5aea      	SUBI R30,LOW(170)
                +
00103b 93e0 0805+STS _tx_buffer + ( 12 ) , R30
                 	__PUTB1MN _tx_buffer,12
00103d 940e 1460 	CALL SUBOPT_0x20
                +
00103f e0a6     +LDI R26 , LOW ( _tx_buffer + ( 13 ) )
001040 e0b8     +LDI R27 , HIGH ( _tx_buffer + ( 13 ) )
                 	__POINTW2MN _tx_buffer,13
001041 940e 157a 	CALL __CFD1U
001043 93ec      	ST   X,R30
001044 91e0 07e8 	LDS  R30,_iTemp
                +
001046 93e0 0807+STS _tx_buffer + ( 14 ) , R30
                 	__PUTB1MN _tx_buffer,14
001048 e0ef      	LDI  R30,LOW(15)
001049 940c 135b 	JMP  _0x20E0001
                 _0x24C:
00104b fe21      	SBRS R2,1
00104c c007      	RJMP _0x24D
                +
00104d 91e0 07f8+LDS R30 , _rx_buffer + ( 14 )
                 	__GETB1MN _rx_buffer,14
00104f e0f0      	LDI  R31,0
001050 93e0 07b1 	STS  _currstate,R30
001052 93f0 07b2 	STS  _currstate+1,R31
                 _0x24D:
001054 e0e0      	LDI  R30,LOW(0)
001055 940c 135b 	JMP  _0x20E0001
                 ; .FEND
                 _twiinit:
                 ; .FSTART _twiinit
001057 e0e0      	LDI  R30,LOW(0)
001058 93ea      	ST   -Y,R30
001059 e5e0      	LDI  R30,LOW(80)
00105a 93ea      	ST   -Y,R30
00105b eeea      	LDI  R30,LOW(_rx_buffer)
00105c e0f7      	LDI  R31,HIGH(_rx_buffer)
00105d 93fa      	ST   -Y,R31
00105e 93ea      	ST   -Y,R30
00105f e0ef      	LDI  R30,LOW(15)
001060 93ea      	ST   -Y,R30
001061 efe9      	LDI  R30,LOW(_tx_buffer)
001062 e0f7      	LDI  R31,HIGH(_tx_buffer)
001063 93fa      	ST   -Y,R31
001064 93ea      	ST   -Y,R30
001065 eeea      	LDI  R30,LOW(_slave_rx_handler)
001066 e0ff      	LDI  R31,HIGH(_slave_rx_handler)
001067 93fa      	ST   -Y,R31
001068 93ea      	ST   -Y,R30
001069 e0a4      	LDI  R26,LOW(_slave_tx_handler)
00106a e1b0      	LDI  R27,HIGH(_slave_tx_handler)
00106b 940e 10ae 	CALL _twi_slave_init
00106d 9508      	RET
                 ; .FEND
                 ;
                 ;
                 ;
                 ;
                 ;
                 ;
                 ;
                 ;
                 ;
                 ;void main(void)
                 ; 0000 004F {
                 _main:
                 ; .FSTART _main
                 ; 0000 0050 // Ports initialisieren
                 ; 0000 0051 port_init();
00106e 940e 02ff 	CALL _port_init
                 ; 0000 0052 //Other inits
                 ; 0000 0053 i2c_init();
001070 940e 14f2 	CALL _i2c_init
                 ; 0000 0054 wii_cam_init();
001072 940e 056b 	CALL _wii_cam_init
                 ; 0000 0055 twiinit();
001074 dfe2      	RCALL _twiinit
                 ; 0000 0056 
                 ; 0000 0057 while (1)
                 _0x24E:
                 ; 0000 0058       {
                 ; 0000 0059       detector();           //SENSOR_DETECTOR
001075 940e 0811 	CALL _detector
                 ; 0000 005A       STATE_MACHINE();      //DEFAULT_STATE_MACHINE
001077 de36      	RCALL _STATE_MACHINE
                 ; 0000 005B       esp_states();         //ESP_STATE_MACHINE
001078 940e 04ab 	CALL _esp_states
                 ; 0000 005C       ondata();             //IR_DATA_FUNCTION
00107a 940e 044d 	CALL _ondata
                 ; 0000 005D       esp_mainfunctions();  //ESP_MAIN_FUNCTIONS
00107c 940e 04d4 	CALL _esp_mainfunctions
                 ; 0000 005E 
                 ; 0000 005F       }
00107e cff6      	RJMP _0x24E
                 ; 0000 0060 }
                 _0x251:
00107f cfff      	RJMP _0x251
                 ; .FEND
                 
                 	.CSEG
                 _itoa:
                 ; .FSTART _itoa
001080 93ba      	ST   -Y,R27
001081 93aa      	ST   -Y,R26
001082 91a9          ld   r26,y+
001083 91b9          ld   r27,y+
001084 91e9          ld   r30,y+
001085 91f9          ld   r31,y+
001086 9630          adiw r30,0
001087 f42a          brpl __itoa0
001088 95e0          com  r30
001089 95f0          com  r31
00108a 9631          adiw r30,1
00108b e26d          ldi  r22,'-'
00108c 936d          st   x+,r22
                 __itoa0:
00108d 94e8          clt
00108e e180          ldi  r24,low(10000)
00108f e297          ldi  r25,high(10000)
001090 d00d          rcall __itoa1
001091 ee88          ldi  r24,low(1000)
001092 e093          ldi  r25,high(1000)
001093 d00a          rcall __itoa1
001094 e684          ldi  r24,100
001095 2799          clr  r25
001096 d007          rcall __itoa1
001097 e08a          ldi  r24,10
001098 d005          rcall __itoa1
001099 2f6e          mov  r22,r30
00109a d010          rcall __itoa5
00109b 2766          clr  r22
00109c 936c          st   x,r22
00109d 9508          ret
                 
                 __itoa1:
00109e 2766          clr	 r22
                 __itoa2:
00109f 17e8          cp   r30,r24
0010a0 07f9          cpc  r31,r25
0010a1 f020          brlo __itoa3
0010a2 9563          inc  r22
0010a3 1be8          sub  r30,r24
0010a4 0bf9          sbc  r31,r25
0010a5 f7c9          brne __itoa2
                 __itoa3:
0010a6 2366          tst  r22
0010a7 f411          brne __itoa4
0010a8 f016          brts __itoa5
0010a9 9508          ret
                 __itoa4:
0010aa 9468          set
                 __itoa5:
0010ab 5d60          subi r22,-0x30
0010ac 936d          st   x+,r22
0010ad 9508          ret
                 ; .FEND
                 
                 	.DSEG
                 
                 	.CSEG
                 
                 	.CSEG
                 	#ifndef __SLEEP_DEFINED__
                 	#endif
                 
                 	.CSEG
                 	#ifndef __SLEEP_DEFINED__
                 	#endif
                 
                 	.DSEG
                 
                 	.CSEG
                 _twi_slave_init:
                 ; .FSTART _twi_slave_init
0010ae 93ba      	ST   -Y,R27
0010af 93aa      	ST   -Y,R26
0010b0 9468      	SET
0010b1 f824      	BLD  R2,4
0010b2 e0e7      	LDI  R30,LOW(7)
0010b3 93e0 078a 	STS  _twi_result,R30
0010b5 81ef      	LDD  R30,Y+7
0010b6 85f8      	LDD  R31,Y+7+1
0010b7 93e0 087d 	STS  _twi_rx_buffer_G103,R30
0010b9 93f0 087e 	STS  _twi_rx_buffer_G103+1,R31
0010bb 81ee      	LDD  R30,Y+6
0010bc 93e0 0880 	STS  _twi_rx_buffer_size_G103,R30
0010be 81ec      	LDD  R30,Y+4
0010bf 81fd      	LDD  R31,Y+4+1
0010c0 93e0 087a 	STS  _twi_tx_buffer_G103,R30
0010c2 93f0 087b 	STS  _twi_tx_buffer_G103+1,R31
0010c4 81ea      	LDD  R30,Y+2
0010c5 81fb      	LDD  R31,Y+2+1
0010c6 93e0 0881 	STS  _twi_slave_rx_handler_G103,R30
0010c8 93f0 0882 	STS  _twi_slave_rx_handler_G103+1,R31
0010ca 81e8      	LD   R30,Y
0010cb 81f9      	LDD  R31,Y+1
0010cc 93e0 0883 	STS  _twi_slave_tx_handler_G103,R30
0010ce 93f0 0884 	STS  _twi_slave_tx_handler_G103+1,R31
0010d0 9a91      	SBI  0x12,1
0010d1 9a90      	SBI  0x12,0
0010d2 85ea      	LDD  R30,Y+10
0010d3 30e0      	CPI  R30,0
0010d4 f011      	BREQ _0x2060012
0010d5 e0e1      	LDI  R30,LOW(1)
0010d6 c002      	RJMP _0x2060066
                 _0x2060012:
0010d7 85e9      	LDD  R30,Y+9
0010d8 0fee      	LSL  R30
                 _0x2060066:
0010d9 93e0 0072 	STS  114,R30
0010db 91e0 0074 	LDS  R30,116
0010dd 78e0      	ANDI R30,LOW(0x80)
0010de 64e5      	ORI  R30,LOW(0x45)
0010df 93e0 0074 	STS  116,R30
0010e1 962b      	ADIW R28,11
0010e2 9508      	RET
                 ; .FEND
                 _twi_int_handler:
                 ; .FSTART _twi_int_handler
0010e3 920a      	ST   -Y,R0
0010e4 921a      	ST   -Y,R1
0010e5 92fa      	ST   -Y,R15
0010e6 936a      	ST   -Y,R22
0010e7 937a      	ST   -Y,R23
0010e8 938a      	ST   -Y,R24
0010e9 939a      	ST   -Y,R25
0010ea 93aa      	ST   -Y,R26
0010eb 93ba      	ST   -Y,R27
0010ec 93ea      	ST   -Y,R30
0010ed 93fa      	ST   -Y,R31
0010ee b7ef      	IN   R30,SREG
0010ef 93ea      	ST   -Y,R30
0010f0 940e 169b 	CALL __SAVELOCR6
0010f2 9110 0789 	LDS  R17,_twi_rx_index
0010f4 9100 0788 	LDS  R16,_twi_tx_index
0010f6 9130 087c 	LDS  R19,_bytes_to_tx_G103
0010f8 9120 078a 	LDS  R18,_twi_result
0010fa 2fe1      	MOV  R30,R17
0010fb 91a0 087d 	LDS  R26,_twi_rx_buffer_G103
0010fd 91b0 087e 	LDS  R27,_twi_rx_buffer_G103+1
0010ff e0f0      	LDI  R31,0
001100 0fea      	ADD  R30,R26
001101 1ffb      	ADC  R31,R27
001102 01af      	MOVW R20,R30
001103 91e0 0071 	LDS  R30,113
001105 7fe8      	ANDI R30,LOW(0xF8)
001106 30e8      	CPI  R30,LOW(0x8)
001107 f411      	BRNE _0x2060017
001108 e020      	LDI  R18,LOW(0)
001109 c002      	RJMP _0x2060018
                 _0x2060017:
00110a 31e0      	CPI  R30,LOW(0x10)
00110b f419      	BRNE _0x2060019
                 _0x2060018:
00110c 91e0 0879 	LDS  R30,_slave_address_G103
00110e c010      	RJMP _0x2060067
                 _0x2060019:
00110f 31e8      	CPI  R30,LOW(0x18)
001110 f011      	BREQ _0x206001D
001111 32e8      	CPI  R30,LOW(0x28)
001112 f549      	BRNE _0x206001E
                 _0x206001D:
001113 1703      	CP   R16,R19
001114 f498      	BRSH _0x206001F
001115 2fe0      	MOV  R30,R16
001116 5f0f      	SUBI R16,-1
001117 91a0 087a 	LDS  R26,_twi_tx_buffer_G103
001119 91b0 087b 	LDS  R27,_twi_tx_buffer_G103+1
00111b e0f0      	LDI  R31,0
00111c 0fae      	ADD  R26,R30
00111d 1fbf      	ADC  R27,R31
00111e 91ec      	LD   R30,X
                 _0x2060067:
00111f 93e0 0073 	STS  115,R30
001121 91e0 0074 	LDS  R30,116
001123 70ef      	ANDI R30,LOW(0xF)
001124 68e0      	ORI  R30,0x80
001125 93e0 0074 	STS  116,R30
001127 c013      	RJMP _0x2060020
                 _0x206001F:
001128 91e0 087f 	LDS  R30,_bytes_to_rx_G103
00112a 171e      	CP   R17,R30
00112b f470      	BRSH _0x2060021
00112c 91e0 0879 	LDS  R30,_slave_address_G103
00112e 60e1      	ORI  R30,1
00112f 93e0 0879 	STS  _slave_address_G103,R30
001131 94e8      	CLT
001132 f823      	BLD  R2,3
001133 91e0 0074 	LDS  R30,116
001135 70ef      	ANDI R30,LOW(0xF)
001136 6ae0      	ORI  R30,LOW(0xA0)
001137 93e0 0074 	STS  116,R30
001139 c113      	RJMP _0x2060016
                 _0x2060021:
00113a c038      	RJMP _0x2060022
                 _0x2060020:
00113b c111      	RJMP _0x2060016
                 _0x206001E:
00113c 35e0      	CPI  R30,LOW(0x50)
00113d f431      	BRNE _0x2060023
00113e 91e0 0073 	LDS  R30,115
001140 01da      	MOVW R26,R20
001141 93ec      	ST   X,R30
001142 5f1f      	SUBI R17,-LOW(1)
001143 c002      	RJMP _0x2060024
                 _0x2060023:
001144 34e0      	CPI  R30,LOW(0x40)
001145 f489      	BRNE _0x2060025
                 _0x2060024:
001146 91e0 087f 	LDS  R30,_bytes_to_rx_G103
001148 50e1      	SUBI R30,LOW(1)
001149 171e      	CP   R17,R30
00114a f028      	BRLO _0x2060026
00114b 91e0 0074 	LDS  R30,116
00114d 70ef      	ANDI R30,LOW(0xF)
00114e 68e0      	ORI  R30,0x80
00114f c004      	RJMP _0x2060068
                 _0x2060026:
001150 91e0 0074 	LDS  R30,116
001152 70ef      	ANDI R30,LOW(0xF)
001153 6ce0      	ORI  R30,LOW(0xC0)
                 _0x2060068:
001154 93e0 0074 	STS  116,R30
001156 c0f6      	RJMP _0x2060016
                 _0x2060025:
001157 35e8      	CPI  R30,LOW(0x58)
001158 f431      	BRNE _0x2060028
001159 91e0 0073 	LDS  R30,115
00115b 01da      	MOVW R26,R20
00115c 93ec      	ST   X,R30
00115d 5f1f      	SUBI R17,-LOW(1)
00115e c002      	RJMP _0x2060029
                 _0x2060028:
00115f 32e0      	CPI  R30,LOW(0x20)
001160 f409      	BRNE _0x206002A
                 _0x2060029:
001161 c002      	RJMP _0x206002B
                 _0x206002A:
001162 33e0      	CPI  R30,LOW(0x30)
001163 f409      	BRNE _0x206002C
                 _0x206002B:
001164 c002      	RJMP _0x206002D
                 _0x206002C:
001165 34e8      	CPI  R30,LOW(0x48)
001166 f469      	BRNE _0x206002E
                 _0x206002D:
001167 3020      	CPI  R18,0
001168 f451      	BRNE _0x206002F
001169 fe23      	SBRS R2,3
00116a c003      	RJMP _0x2060030
00116b 1703      	CP   R16,R19
00116c f028      	BRLO _0x2060032
00116d c005      	RJMP _0x2060033
                 _0x2060030:
00116e 91e0 087f 	LDS  R30,_bytes_to_rx_G103
001170 171e      	CP   R17,R30
001171 f408      	BRSH _0x2060034
                 _0x2060032:
001172 e024      	LDI  R18,LOW(4)
                 _0x2060034:
                 _0x2060033:
                 _0x206002F:
                 _0x2060022:
001173 c0d1      	RJMP _0x2060069
                 _0x206002E:
001174 33e8      	CPI  R30,LOW(0x38)
001175 f431      	BRNE _0x2060037
001176 e022      	LDI  R18,LOW(2)
001177 91e0 0074 	LDS  R30,116
001179 70ef      	ANDI R30,LOW(0xF)
00117a 68e0      	ORI  R30,0x80
00117b c0cd      	RJMP _0x206006A
                 _0x2060037:
00117c 36e8      	CPI  R30,LOW(0x68)
00117d f011      	BREQ _0x206003A
00117e 37e8      	CPI  R30,LOW(0x78)
00117f f411      	BRNE _0x206003B
                 _0x206003A:
001180 e022      	LDI  R18,LOW(2)
001181 c005      	RJMP _0x206003C
                 _0x206003B:
001182 36e0      	CPI  R30,LOW(0x60)
001183 f011      	BREQ _0x206003F
001184 37e0      	CPI  R30,LOW(0x70)
001185 f4a9      	BRNE _0x2060040
                 _0x206003F:
001186 e020      	LDI  R18,LOW(0)
                 _0x206003C:
001187 e010      	LDI  R17,LOW(0)
001188 94e8      	CLT
001189 f823      	BLD  R2,3
00118a 91e0 0880 	LDS  R30,_twi_rx_buffer_size_G103
00118c 30e0      	CPI  R30,0
00118d f431      	BRNE _0x2060041
00118e e021      	LDI  R18,LOW(1)
00118f 91e0 0074 	LDS  R30,116
001191 70ef      	ANDI R30,LOW(0xF)
001192 68e0      	ORI  R30,0x80
001193 c004      	RJMP _0x206006B
                 _0x2060041:
001194 91e0 0074 	LDS  R30,116
001196 70ef      	ANDI R30,LOW(0xF)
001197 6ce0      	ORI  R30,LOW(0xC0)
                 _0x206006B:
001198 93e0 0074 	STS  116,R30
00119a c0b2      	RJMP _0x2060016
                 _0x2060040:
00119b 38e0      	CPI  R30,LOW(0x80)
00119c f011      	BREQ _0x2060044
00119d 39e0      	CPI  R30,LOW(0x90)
00119e f541      	BRNE _0x2060045
                 _0x2060044:
00119f fe23      	SBRS R2,3
0011a0 c002      	RJMP _0x2060046
0011a1 e021      	LDI  R18,LOW(1)
0011a2 c0a2      	RJMP _0x2060047
                 _0x2060046:
0011a3 91e0 0073 	LDS  R30,115
0011a5 01da      	MOVW R26,R20
0011a6 93ec      	ST   X,R30
0011a7 5f1f      	SUBI R17,-LOW(1)
0011a8 91e0 0880 	LDS  R30,_twi_rx_buffer_size_G103
0011aa 171e      	CP   R17,R30
0011ab f4c0      	BRSH _0x2060048
0011ac 91e0 0881 	LDS  R30,_twi_slave_rx_handler_G103
0011ae 91f0 0882 	LDS  R31,_twi_slave_rx_handler_G103+1
0011b0 9730      	SBIW R30,0
0011b1 f411      	BRNE _0x2060049
0011b2 e026      	LDI  R18,LOW(6)
0011b3 c091      	RJMP _0x2060047
                 _0x2060049:
0011b4 e0a0      	LDI  R26,LOW(0)
                +
0011b5 91e0 0881+LDS R30 , _twi_slave_rx_handler_G103 + ( 0 )
0011b7 91f0 0882+LDS R31 , _twi_slave_rx_handler_G103 + ( 0 ) + 1
0011b9 9509     +ICALL
                 	__CALL1MN _twi_slave_rx_handler_G103,0
0011ba 30e0      	CPI  R30,0
0011bb f039      	BREQ _0x206004A
0011bc 91e0 0074 	LDS  R30,116
0011be 70ef      	ANDI R30,LOW(0xF)
0011bf 6ce0      	ORI  R30,LOW(0xC0)
0011c0 93e0 0074 	STS  116,R30
0011c2 c08a      	RJMP _0x2060016
                 _0x206004A:
0011c3 c002      	RJMP _0x206004B
                 _0x2060048:
0011c4 9468      	SET
0011c5 f823      	BLD  R2,3
                 _0x206004B:
0011c6 c002      	RJMP _0x206004C
                 _0x2060045:
0011c7 38e8      	CPI  R30,LOW(0x88)
0011c8 f409      	BRNE _0x206004D
                 _0x206004C:
0011c9 c002      	RJMP _0x206004E
                 _0x206004D:
0011ca 39e8      	CPI  R30,LOW(0x98)
0011cb f439      	BRNE _0x206004F
                 _0x206004E:
0011cc 91e0 0074 	LDS  R30,116
0011ce 70ef      	ANDI R30,LOW(0xF)
0011cf 68e0      	ORI  R30,0x80
0011d0 93e0 0074 	STS  116,R30
0011d2 c07a      	RJMP _0x2060016
                 _0x206004F:
0011d3 3ae0      	CPI  R30,LOW(0xA0)
0011d4 f4b9      	BRNE _0x2060050
0011d5 91e0 0074 	LDS  R30,116
0011d7 70ef      	ANDI R30,LOW(0xF)
0011d8 6ce0      	ORI  R30,LOW(0xC0)
0011d9 93e0 0074 	STS  116,R30
0011db 9468      	SET
0011dc f824      	BLD  R2,4
0011dd 91e0 0881 	LDS  R30,_twi_slave_rx_handler_G103
0011df 91f0 0882 	LDS  R31,_twi_slave_rx_handler_G103+1
0011e1 9730      	SBIW R30,0
0011e2 f039      	BREQ _0x2060051
0011e3 e0a1      	LDI  R26,LOW(1)
                +
0011e4 91e0 0881+LDS R30 , _twi_slave_rx_handler_G103 + ( 0 )
0011e6 91f0 0882+LDS R31 , _twi_slave_rx_handler_G103 + ( 0 ) + 1
0011e8 9509     +ICALL
                 	__CALL1MN _twi_slave_rx_handler_G103,0
0011e9 c001      	RJMP _0x2060052
                 _0x2060051:
0011ea e026      	LDI  R18,LOW(6)
                 _0x2060052:
0011eb c061      	RJMP _0x2060016
                 _0x2060050:
0011ec 3be0      	CPI  R30,LOW(0xB0)
0011ed f411      	BRNE _0x2060053
0011ee e022      	LDI  R18,LOW(2)
0011ef c002      	RJMP _0x2060054
                 _0x2060053:
0011f0 3ae8      	CPI  R30,LOW(0xA8)
0011f1 f4b9      	BRNE _0x2060055
                 _0x2060054:
0011f2 91e0 0883 	LDS  R30,_twi_slave_tx_handler_G103
0011f4 91f0 0884 	LDS  R31,_twi_slave_tx_handler_G103+1
0011f6 9730      	SBIW R30,0
0011f7 f059      	BREQ _0x2060056
0011f8 e0a0      	LDI  R26,LOW(0)
                +
0011f9 91e0 0883+LDS R30 , _twi_slave_tx_handler_G103 + ( 0 )
0011fb 91f0 0884+LDS R31 , _twi_slave_tx_handler_G103 + ( 0 ) + 1
0011fd 9509     +ICALL
                 	__CALL1MN _twi_slave_tx_handler_G103,0
0011fe 2f3e      	MOV  R19,R30
0011ff 30e0      	CPI  R30,0
001200 f011      	BREQ _0x2060058
001201 e020      	LDI  R18,LOW(0)
001202 c002      	RJMP _0x2060059
                 _0x2060056:
                 _0x2060058:
001203 e026      	LDI  R18,LOW(6)
001204 c040      	RJMP _0x2060047
                 _0x2060059:
001205 e000      	LDI  R16,LOW(0)
001206 94e8      	CLT
001207 f823      	BLD  R2,3
001208 c002      	RJMP _0x206005A
                 _0x2060055:
001209 3be8      	CPI  R30,LOW(0xB8)
00120a f501      	BRNE _0x206005B
                 _0x206005A:
00120b fe23      	SBRS R2,3
00120c c002      	RJMP _0x206005C
00120d e021      	LDI  R18,LOW(1)
00120e c036      	RJMP _0x2060047
                 _0x206005C:
00120f 2fe0      	MOV  R30,R16
001210 5f0f      	SUBI R16,-1
001211 91a0 087a 	LDS  R26,_twi_tx_buffer_G103
001213 91b0 087b 	LDS  R27,_twi_tx_buffer_G103+1
001215 e0f0      	LDI  R31,0
001216 0fae      	ADD  R26,R30
001217 1fbf      	ADC  R27,R31
001218 91ec      	LD   R30,X
001219 93e0 0073 	STS  115,R30
00121b 1703      	CP   R16,R19
00121c f428      	BRSH _0x206005D
00121d 91e0 0074 	LDS  R30,116
00121f 70ef      	ANDI R30,LOW(0xF)
001220 6ce0      	ORI  R30,LOW(0xC0)
001221 c006      	RJMP _0x206006C
                 _0x206005D:
001222 9468      	SET
001223 f823      	BLD  R2,3
001224 91e0 0074 	LDS  R30,116
001226 70ef      	ANDI R30,LOW(0xF)
001227 68e0      	ORI  R30,0x80
                 _0x206006C:
001228 93e0 0074 	STS  116,R30
00122a c022      	RJMP _0x2060016
                 _0x206005B:
00122b 3ce0      	CPI  R30,LOW(0xC0)
00122c f011      	BREQ _0x2060060
00122d 3ce8      	CPI  R30,LOW(0xC8)
00122e f499      	BRNE _0x2060061
                 _0x2060060:
00122f 91e0 0074 	LDS  R30,116
001231 70ef      	ANDI R30,LOW(0xF)
001232 6ce0      	ORI  R30,LOW(0xC0)
001233 93e0 0074 	STS  116,R30
001235 91e0 0883 	LDS  R30,_twi_slave_tx_handler_G103
001237 91f0 0884 	LDS  R31,_twi_slave_tx_handler_G103+1
001239 9730      	SBIW R30,0
00123a f031      	BREQ _0x2060062
00123b e0a1      	LDI  R26,LOW(1)
                +
00123c 91e0 0883+LDS R30 , _twi_slave_tx_handler_G103 + ( 0 )
00123e 91f0 0884+LDS R31 , _twi_slave_tx_handler_G103 + ( 0 ) + 1
001240 9509     +ICALL
                 	__CALL1MN _twi_slave_tx_handler_G103,0
                 _0x2060062:
001241 c009      	RJMP _0x2060035
                 _0x2060061:
001242 30e0      	CPI  R30,0
001243 f449      	BRNE _0x2060016
001244 e023      	LDI  R18,LOW(3)
                 _0x2060047:
                 _0x2060069:
001245 91e0 0074 	LDS  R30,116
001247 70ef      	ANDI R30,LOW(0xF)
001248 6de0      	ORI  R30,LOW(0xD0)
                 _0x206006A:
001249 93e0 0074 	STS  116,R30
                 _0x2060035:
00124b 9468      	SET
00124c f824      	BLD  R2,4
                 _0x2060016:
00124d 9310 0789 	STS  _twi_rx_index,R17
00124f 9300 0788 	STS  _twi_tx_index,R16
001251 9320 078a 	STS  _twi_result,R18
001253 9330 087c 	STS  _bytes_to_tx_G103,R19
001255 940e 16a2 	CALL __LOADLOCR6
001257 9626      	ADIW R28,6
001258 91e9      	LD   R30,Y+
001259 bfef      	OUT  SREG,R30
00125a 91f9      	LD   R31,Y+
00125b 91e9      	LD   R30,Y+
00125c 91b9      	LD   R27,Y+
00125d 91a9      	LD   R26,Y+
00125e 9199      	LD   R25,Y+
00125f 9189      	LD   R24,Y+
001260 9179      	LD   R23,Y+
001261 9169      	LD   R22,Y+
001262 90f9      	LD   R15,Y+
001263 9019      	LD   R1,Y+
001264 9009      	LD   R0,Y+
001265 9518      	RETI
                 ; .FEND
                     .equ __lcd_direction=__lcd_port-1
                     .equ __lcd_pin=__lcd_port-2
                     .equ __lcd_rs=0
                     .equ __lcd_rd=1
                     .equ __lcd_enable=2
                     .equ __lcd_busy_flag=7
                 
                 	.DSEG
                 
                 	.CSEG
                 __lcd_delay_G104:
                 ; .FSTART __lcd_delay_G104
001266 e0ff          ldi   r31,15
                 __lcd_delay0:
001267 95fa          dec   r31
001268 f7f1          brne  __lcd_delay0
001269 9508      	RET
                 ; .FEND
                 __lcd_ready:
                 ; .FSTART __lcd_ready
00126a b3a4          in    r26,__lcd_direction
00126b 70af          andi  r26,0xf                 ;set as input
00126c bba4          out   __lcd_direction,r26
00126d 9aa9          sbi   __lcd_port,__lcd_rd     ;RD=1
00126e 98a8          cbi   __lcd_port,__lcd_rs     ;RS=0
                 __lcd_busy:
00126f dff6      	RCALL __lcd_delay_G104
001270 9aaa          sbi   __lcd_port,__lcd_enable ;EN=1
001271 dff4      	RCALL __lcd_delay_G104
001272 b3a3          in    r26,__lcd_pin
001273 98aa          cbi   __lcd_port,__lcd_enable ;EN=0
001274 dff1      	RCALL __lcd_delay_G104
001275 9aaa          sbi   __lcd_port,__lcd_enable ;EN=1
001276 dfef      	RCALL __lcd_delay_G104
001277 98aa          cbi   __lcd_port,__lcd_enable ;EN=0
001278 fda7          sbrc  r26,__lcd_busy_flag
001279 cff5          rjmp  __lcd_busy
00127a 9508      	RET
                 ; .FEND
                 __lcd_write_nibble_G104:
                 ; .FSTART __lcd_write_nibble_G104
00127b 7fa0          andi  r26,0xf0
00127c 2bab          or    r26,r27
00127d bba5          out   __lcd_port,r26          ;write
00127e 9aaa          sbi   __lcd_port,__lcd_enable ;EN=1
00127f 940e 1266 	CALL __lcd_delay_G104
001281 98aa          cbi   __lcd_port,__lcd_enable ;EN=0
001282 940e 1266 	CALL __lcd_delay_G104
001284 9508      	RET
                 ; .FEND
                 __lcd_write_data:
                 ; .FSTART __lcd_write_data
001285 93aa      	ST   -Y,R26
001286 98a9          cbi  __lcd_port,__lcd_rd 	  ;RD=0
001287 b3a4          in    r26,__lcd_direction
001288 6fa7          ori   r26,0xf0 | (1<<__lcd_rs) | (1<<__lcd_rd) | (1<<__lcd_enable) ;set as output
001289 bba4          out   __lcd_direction,r26
00128a b3b5          in    r27,__lcd_port
00128b 70bf          andi  r27,0xf
00128c 81a8          ld    r26,y
00128d dfed      	RCALL __lcd_write_nibble_G104
00128e 81a8          ld    r26,y
00128f 95a2          swap  r26
001290 dfea      	RCALL __lcd_write_nibble_G104
001291 9aa9          sbi   __lcd_port,__lcd_rd     ;RD=1
001292 940c 135b 	JMP  _0x20E0001
                 ; .FEND
                 __lcd_read_nibble_G104:
                 ; .FSTART __lcd_read_nibble_G104
001294 9aaa          sbi   __lcd_port,__lcd_enable ;EN=1
001295 940e 1266 	CALL __lcd_delay_G104
001297 b3e3          in    r30,__lcd_pin           ;read
001298 98aa          cbi   __lcd_port,__lcd_enable ;EN=0
001299 940e 1266 	CALL __lcd_delay_G104
00129b 7fe0          andi  r30,0xf0
00129c 9508      	RET
                 ; .FEND
                 _lcd_read_byte0_G104:
                 ; .FSTART _lcd_read_byte0_G104
00129d 940e 1266 	CALL __lcd_delay_G104
00129f dff4      	RCALL __lcd_read_nibble_G104
0012a0 2fae          mov   r26,r30
0012a1 dff2      	RCALL __lcd_read_nibble_G104
0012a2 98a9          cbi   __lcd_port,__lcd_rd     ;RD=0
0012a3 95e2          swap  r30
0012a4 2bea          or    r30,r26
0012a5 9508      	RET
                 ; .FEND
                 _lcd_gotoxy:
                 ; .FSTART _lcd_gotoxy
0012a6 93aa      	ST   -Y,R26
0012a7 940e 126a 	CALL __lcd_ready
0012a9 81e8      	LD   R30,Y
0012aa e0f0      	LDI  R31,0
0012ab 57eb      	SUBI R30,LOW(-__base_y_G104)
0012ac 4ff7      	SBCI R31,HIGH(-__base_y_G104)
0012ad 81e0      	LD   R30,Z
0012ae 81a9      	LDD  R26,Y+1
0012af 0fae      	ADD  R26,R30
0012b0 940e 1285 	CALL __lcd_write_data
0012b2 81e9      	LDD  R30,Y+1
0012b3 93e0 0889 	STS  __lcd_x,R30
0012b5 81e8      	LD   R30,Y
0012b6 93e0 088a 	STS  __lcd_y,R30
0012b8 9622      	ADIW R28,2
0012b9 9508      	RET
                 ; .FEND
                 _lcd_clear:
                 ; .FSTART _lcd_clear
0012ba 940e 126a 	CALL __lcd_ready
0012bc e0a2      	LDI  R26,LOW(2)
0012bd 940e 1285 	CALL __lcd_write_data
0012bf 940e 126a 	CALL __lcd_ready
0012c1 e0ac      	LDI  R26,LOW(12)
0012c2 940e 1285 	CALL __lcd_write_data
0012c4 940e 126a 	CALL __lcd_ready
0012c6 e0a1      	LDI  R26,LOW(1)
0012c7 940e 1285 	CALL __lcd_write_data
0012c9 e0e0      	LDI  R30,LOW(0)
0012ca 93e0 088a 	STS  __lcd_y,R30
0012cc 93e0 0889 	STS  __lcd_x,R30
0012ce 9508      	RET
                 ; .FEND
                 _lcd_putchar:
                 ; .FSTART _lcd_putchar
0012cf 93aa      	ST   -Y,R26
0012d0 93ef          push r30
0012d1 93ff          push r31
0012d2 81a8          ld   r26,y
0012d3 9468          set
0012d4 30aa          cpi  r26,10
0012d5 f039          breq __lcd_putchar1
0012d6 94e8          clt
0012d7 91e0 088b 	LDS  R30,__lcd_maxx
0012d9 91a0 0889 	LDS  R26,__lcd_x
0012db 17ae      	CP   R26,R30
0012dc f058      	BRLO _0x2080004
                 	__lcd_putchar1:
0012dd 91e0 088a 	LDS  R30,__lcd_y
0012df 5fef      	SUBI R30,-LOW(1)
0012e0 93e0 088a 	STS  __lcd_y,R30
0012e2 e0e0      	LDI  R30,LOW(0)
0012e3 93ea      	ST   -Y,R30
0012e4 91a0 088a 	LDS  R26,__lcd_y
0012e6 dfbf      	RCALL _lcd_gotoxy
0012e7 f056      	brts __lcd_putchar0
                 _0x2080004:
0012e8 91e0 0889 	LDS  R30,__lcd_x
0012ea 5fef      	SUBI R30,-LOW(1)
0012eb 93e0 0889 	STS  __lcd_x,R30
0012ed df7c          rcall __lcd_ready
0012ee 9aa8          sbi  __lcd_port,__lcd_rs ;RS=1
0012ef 81a8      	LD   R26,Y
0012f0 940e 1285 	CALL __lcd_write_data
                 __lcd_putchar0:
0012f2 91ff          pop  r31
0012f3 91ef          pop  r30
0012f4 940c 135b 	JMP  _0x20E0001
                 ; .FEND
                 _lcd_puts:
                 ; .FSTART _lcd_puts
0012f6 93ba      	ST   -Y,R27
0012f7 93aa      	ST   -Y,R26
0012f8 931a      	ST   -Y,R17
                 _0x2080005:
0012f9 81a9      	LDD  R26,Y+1
0012fa 81ba      	LDD  R27,Y+1+1
0012fb 91ed      	LD   R30,X+
0012fc 83a9      	STD  Y+1,R26
0012fd 83ba      	STD  Y+1+1,R27
0012fe 2f1e      	MOV  R17,R30
0012ff 30e0      	CPI  R30,0
001300 f019      	BREQ _0x2080007
001301 2fa1      	MOV  R26,R17
001302 dfcc      	RCALL _lcd_putchar
001303 cff5      	RJMP _0x2080005
                 _0x2080007:
001304 c010      	RJMP _0x20E0002
                 ; .FEND
                 _lcd_putsf:
                 ; .FSTART _lcd_putsf
001305 93ba      	ST   -Y,R27
001306 93aa      	ST   -Y,R26
001307 931a      	ST   -Y,R17
                 _0x2080008:
001308 81e9      	LDD  R30,Y+1
001309 81fa      	LDD  R31,Y+1+1
00130a 9631      	ADIW R30,1
00130b 83e9      	STD  Y+1,R30
00130c 83fa      	STD  Y+1+1,R31
00130d 9731      	SBIW R30,1
00130e 91e4      	LPM  R30,Z
00130f 2f1e      	MOV  R17,R30
001310 30e0      	CPI  R30,0
001311 f019      	BREQ _0x208000A
001312 2fa1      	MOV  R26,R17
001313 dfbb      	RCALL _lcd_putchar
001314 cff3      	RJMP _0x2080008
                 _0x208000A:
                 _0x20E0002:
001315 8118      	LDD  R17,Y+0
001316 9623      	ADIW R28,3
001317 9508      	RET
                 ; .FEND
                 __long_delay_G104:
                 ; .FSTART __long_delay_G104
001318 27aa          clr   r26
001319 27bb          clr   r27
                 __long_delay0:
00131a 9711          sbiw  r26,1         ;2 cycles
00131b f7f1          brne  __long_delay0 ;2 cycles
00131c 9508      	RET
                 ; .FEND
                 __lcd_init_write_G104:
                 ; .FSTART __lcd_init_write_G104
00131d 93aa      	ST   -Y,R26
00131e 98a9          cbi  __lcd_port,__lcd_rd 	  ;RD=0
00131f b3a4          in    r26,__lcd_direction
001320 6fa7          ori   r26,0xf7                ;set as output
001321 bba4          out   __lcd_direction,r26
001322 b3b5          in    r27,__lcd_port
001323 70bf          andi  r27,0xf
001324 81a8          ld    r26,y
001325 940e 127b 	CALL __lcd_write_nibble_G104
001327 9aa9          sbi   __lcd_port,__lcd_rd     ;RD=1
001328 c032      	RJMP _0x20E0001
                 ; .FEND
                 _lcd_init:
                 ; .FSTART _lcd_init
001329 93aa      	ST   -Y,R26
00132a 98aa          cbi   __lcd_port,__lcd_enable ;EN=0
00132b 98a8          cbi   __lcd_port,__lcd_rs     ;RS=0
00132c 81e8      	LD   R30,Y
00132d 93e0 088b 	STS  __lcd_maxx,R30
00132f 58e0      	SUBI R30,-LOW(128)
                +
001330 93e0 0887+STS __base_y_G104 + ( 2 ) , R30
                 	__PUTB1MN __base_y_G104,2
001332 81e8      	LD   R30,Y
001333 54e0      	SUBI R30,-LOW(192)
                +
001334 93e0 0888+STS __base_y_G104 + ( 3 ) , R30
                 	__PUTB1MN __base_y_G104,3
001336 940e 14e9 	CALL SUBOPT_0x31
001338 940e 14e9 	CALL SUBOPT_0x31
00133a 940e 14e9 	CALL SUBOPT_0x31
00133c dfdb      	RCALL __long_delay_G104
00133d e2a0      	LDI  R26,LOW(32)
00133e dfde      	RCALL __lcd_init_write_G104
00133f dfd8      	RCALL __long_delay_G104
001340 e2a8      	LDI  R26,LOW(40)
001341 940e 14ee 	CALL SUBOPT_0x32
001343 e0a4      	LDI  R26,LOW(4)
001344 940e 14ee 	CALL SUBOPT_0x32
001346 e8a5      	LDI  R26,LOW(133)
001347 940e 14ee 	CALL SUBOPT_0x32
001349 b3a4          in    r26,__lcd_direction
00134a 70af          andi  r26,0xf                 ;set as input
00134b bba4          out   __lcd_direction,r26
00134c 9aa9          sbi   __lcd_port,__lcd_rd     ;RD=1
00134d 940e 129d 	CALL _lcd_read_byte0_G104
00134f 30e5      	CPI  R30,LOW(0x5)
001350 f011      	BREQ _0x208000B
001351 e0e0      	LDI  R30,LOW(0)
001352 c008      	RJMP _0x20E0001
                 _0x208000B:
001353 940e 126a 	CALL __lcd_ready
001355 e0a6      	LDI  R26,LOW(6)
001356 940e 1285 	CALL __lcd_write_data
001358 940e 12ba 	CALL _lcd_clear
00135a e0e1      	LDI  R30,LOW(1)
                 _0x20E0001:
00135b 9621      	ADIW R28,1
00135c 9508      	RET
                 ; .FEND
                 
                 	.CSEG
                 
                 	.CSEG
                 
                 	.DSEG
                 _twi_tx_index:
000788           	.BYTE 0x1
                 _twi_rx_index:
000789           	.BYTE 0x1
                 _twi_result:
00078a           	.BYTE 0x1
                 _strTemp:
00078b           	.BYTE 0x11
                 _engine_dir:
00079c           	.BYTE 0x2
                 _wiicamobject:
00079e           	.BYTE 0x2
                 _str:
0007a0           	.BYTE 0x11
                 _currstate:
0007b1           	.BYTE 0x2
                 _state:
0007b3           	.BYTE 0x2
                 _line_left:
0007b5           	.BYTE 0x2
                 _line_mleft:
0007b7           	.BYTE 0x2
                 _line_mright:
0007b9           	.BYTE 0x2
                 _line_right:
0007bb           	.BYTE 0x2
                 _dist_left:
0007bd           	.BYTE 0x2
                 _dist_fleft:
0007bf           	.BYTE 0x2
                 _dist_fright:
0007c1           	.BYTE 0x2
                 _dist_right:
0007c3           	.BYTE 0x2
                 _linesensorvaluetemp:
0007c5           	.BYTE 0x2
                 _distanzsensorvaluetemp:
0007c7           	.BYTE 0x2
                 _ipwmcounter:
0007c9           	.BYTE 0x2
                 _ipwmcompareleft:
0007cb           	.BYTE 0x2
                 _ipwmcompareright:
0007cd           	.BYTE 0x2
                 _rc5_time:
0007cf           	.BYTE 0x1
                 _rc5_data:
0007d0           	.BYTE 0x2
                 _tmp:
0007d2           	.BYTE 0x2
                 _ucToggle:
0007d4           	.BYTE 0x1
                 _ucAdress:
0007d5           	.BYTE 0x1
                 _ucData:
0007d6           	.BYTE 0x1
                 _s:
0007d7           	.BYTE 0x11
                 _iTemp:
0007e8           	.BYTE 0x2
                 _rx_buffer:
0007ea           	.BYTE 0xF
                 _tx_buffer:
0007f9           	.BYTE 0xF
                 _strULTRA:
000808           	.BYTE 0x11
                 _iRisingEdge:
000819           	.BYTE 0x2
                 _iFallingEdge:
00081b           	.BYTE 0x2
                 _iTime:
00081d           	.BYTE 0x2
                 _icr3:
00081f           	.BYTE 0x2
                 _data:
000821           	.BYTE 0x20
                 _Wert:
000841           	.BYTE 0x5
                 _x:
000846           	.BYTE 0x8
                 _y:
00084e           	.BYTE 0x8
                 _sWIICAM:
000856           	.BYTE 0x4
                 _temp:
00085a           	.BYTE 0x2
                 _adc_data:
00085c           	.BYTE 0xC
                 _input_index_S0000000000:
000868           	.BYTE 0x1
                 _wheelEncoderCounter_left:
000869           	.BYTE 0x2
                 _wheelEncoderCounter_right:
00086b           	.BYTE 0x2
                 _detector_value:
00086d           	.BYTE 0x2
                 _detector_value_line:
00086f           	.BYTE 0x2
                 _tmr_line:
000871           	.BYTE 0x2
                 _val_R_linesearch:
000873           	.BYTE 0x2
                 __seed_G100:
000875           	.BYTE 0x4
                 _slave_address_G103:
000879           	.BYTE 0x1
                 _twi_tx_buffer_G103:
00087a           	.BYTE 0x2
                 _bytes_to_tx_G103:
00087c           	.BYTE 0x1
                 _twi_rx_buffer_G103:
00087d           	.BYTE 0x2
                 _bytes_to_rx_G103:
00087f           	.BYTE 0x1
                 _twi_rx_buffer_size_G103:
000880           	.BYTE 0x1
                 _twi_slave_rx_handler_G103:
000881           	.BYTE 0x2
                 _twi_slave_tx_handler_G103:
000883           	.BYTE 0x2
                 __base_y_G104:
000885           	.BYTE 0x4
                 __lcd_x:
000889           	.BYTE 0x1
                 __lcd_y:
00088a           	.BYTE 0x1
                 __lcd_maxx:
00088b           	.BYTE 0x1
                 
                 	.CSEG
                 ;OPTIMIZER ADDED SUBROUTINE, CALLED 5 TIMES, CODE SIZE REDUCTION:13 WORDS
                 SUBOPT_0x0:
00135d 93aa      	ST   -Y,R26
00135e 93ba      	ST   -Y,R27
00135f 93ea      	ST   -Y,R30
001360 93fa      	ST   -Y,R31
001361 b7ef      	IN   R30,SREG
001362 93ea      	ST   -Y,R30
001363 9508      	RET
                 
                 ;OPTIMIZER ADDED SUBROUTINE, CALLED 6 TIMES, CODE SIZE REDUCTION:7 WORDS
                 SUBOPT_0x1:
001364 91a0 086b 	LDS  R26,_wheelEncoderCounter_right
001366 91b0 086c 	LDS  R27,_wheelEncoderCounter_right+1
001368 9508      	RET
                 
                 ;OPTIMIZER ADDED SUBROUTINE, CALLED 3 TIMES, CODE SIZE REDUCTION:3 WORDS
                 SUBOPT_0x2:
001369 91ed      	LD   R30,X+
00136a 91fd      	LD   R31,X+
00136b 9631      	ADIW R30,1
00136c 93fe      	ST   -X,R31
00136d 93ee      	ST   -X,R30
00136e 9508      	RET
                 
                 ;OPTIMIZER ADDED SUBROUTINE, CALLED 8 TIMES, CODE SIZE REDUCTION:18 WORDS
                 SUBOPT_0x3:
00136f e0e0      	LDI  R30,LOW(0)
001370 93e0 086b 	STS  _wheelEncoderCounter_right,R30
001372 93e0 086c 	STS  _wheelEncoderCounter_right+1,R30
001374 9508      	RET
                 
                 ;OPTIMIZER ADDED SUBROUTINE, CALLED 6 TIMES, CODE SIZE REDUCTION:7 WORDS
                 SUBOPT_0x4:
001375 91a0 0869 	LDS  R26,_wheelEncoderCounter_left
001377 91b0 086a 	LDS  R27,_wheelEncoderCounter_left+1
001379 9508      	RET
                 
                 ;OPTIMIZER ADDED SUBROUTINE, CALLED 8 TIMES, CODE SIZE REDUCTION:18 WORDS
                 SUBOPT_0x5:
00137a e0e0      	LDI  R30,LOW(0)
00137b 93e0 0869 	STS  _wheelEncoderCounter_left,R30
00137d 93e0 086a 	STS  _wheelEncoderCounter_left+1,R30
00137f 9508      	RET
                 
                 ;OPTIMIZER ADDED SUBROUTINE, CALLED 3 TIMES, CODE SIZE REDUCTION:1 WORDS
                 SUBOPT_0x6:
001380 91a0 07c9 	LDS  R26,_ipwmcounter
001382 91b0 07ca 	LDS  R27,_ipwmcounter+1
001384 9508      	RET
                 
                 ;OPTIMIZER ADDED SUBROUTINE, CALLED 11 TIMES, CODE SIZE REDUCTION:17 WORDS
                 SUBOPT_0x7:
001385 93e0 07cb 	STS  _ipwmcompareleft,R30
001387 93f0 07cc 	STS  _ipwmcompareleft+1,R31
001389 9508      	RET
                 
                 ;OPTIMIZER ADDED SUBROUTINE, CALLED 11 TIMES, CODE SIZE REDUCTION:17 WORDS
                 SUBOPT_0x8:
00138a 93e0 07cd 	STS  _ipwmcompareright,R30
00138c 93f0 07ce 	STS  _ipwmcompareright+1,R31
00138e 9508      	RET
                 
                 ;OPTIMIZER ADDED SUBROUTINE, CALLED 4 TIMES, CODE SIZE REDUCTION:3 WORDS
                 SUBOPT_0x9:
00138f 91e0 07d2 	LDS  R30,_tmp
001391 91f0 07d3 	LDS  R31,_tmp+1
001393 9508      	RET
                 
                 ;OPTIMIZER ADDED SUBROUTINE, CALLED 4 TIMES, CODE SIZE REDUCTION:12 WORDS
                 SUBOPT_0xA:
001394 940e 12f6 	CALL _lcd_puts
001396 e0e0      	LDI  R30,LOW(0)
001397 93ea      	ST   -Y,R30
001398 e0a1      	LDI  R26,LOW(1)
001399 940c 12a6 	JMP  _lcd_gotoxy
                 
                 ;OPTIMIZER ADDED SUBROUTINE, CALLED 2 TIMES, CODE SIZE REDUCTION:6 WORDS
                 SUBOPT_0xB:
00139b e0f0      	LDI  R31,0
00139c 93fa      	ST   -Y,R31
00139d 93ea      	ST   -Y,R30
00139e eda7      	LDI  R26,LOW(_s)
00139f e0b7      	LDI  R27,HIGH(_s)
0013a0 940e 1080 	CALL _itoa
0013a2 eda7      	LDI  R26,LOW(_s)
0013a3 e0b7      	LDI  R27,HIGH(_s)
0013a4 940c 12f6 	JMP  _lcd_puts
                 
                 ;OPTIMIZER ADDED SUBROUTINE, CALLED 3 TIMES, CODE SIZE REDUCTION:1 WORDS
                 SUBOPT_0xC:
0013a6 91a0 07b1 	LDS  R26,_currstate
0013a8 91b0 07b2 	LDS  R27,_currstate+1
0013aa 9508      	RET
                 
                 ;OPTIMIZER ADDED SUBROUTINE, CALLED 2 TIMES, CODE SIZE REDUCTION:1 WORDS
                 SUBOPT_0xD:
0013ab e6a4      	LDI  R26,LOW(100)
0013ac e0b0      	LDI  R27,HIGH(100)
0013ad 940e 1684 	CALL __MULW12
                +
0013af 0f6e     +ADD R22 , R30
0013b0 1f7f     +ADC R23 , R31
                 	__ADDWRR 22,23,30,31
0013b1 9508      	RET
                 
                 ;OPTIMIZER ADDED SUBROUTINE, CALLED 2 TIMES, CODE SIZE REDUCTION:1 WORDS
                 SUBOPT_0xE:
0013b2 e0aa      	LDI  R26,LOW(10)
0013b3 e0b0      	LDI  R27,HIGH(10)
0013b4 940e 1684 	CALL __MULW12
0013b6 0fe6      	ADD  R30,R22
0013b7 1ff7      	ADC  R31,R23
0013b8 9508      	RET
                 
                 ;OPTIMIZER ADDED SUBROUTINE, CALLED 3 TIMES, CODE SIZE REDUCTION:1 WORDS
                 SUBOPT_0xF:
0013b9 0fee      	LSL  R30
0013ba 1fff      	ROL  R31
0013bb 0fea      	ADD  R30,R26
0013bc 1ffb      	ADC  R31,R27
0013bd 9508      	RET
                 
                 ;OPTIMIZER ADDED SUBROUTINE, CALLED 5 TIMES, CODE SIZE REDUCTION:9 WORDS
                 SUBOPT_0x10:
0013be 01f8      	MOVW R30,R16
0013bf e0a3      	LDI  R26,LOW(3)
0013c0 e0b0      	LDI  R27,HIGH(3)
0013c1 940e 1684 	CALL __MULW12
0013c3 9508      	RET
                 
                 ;OPTIMIZER ADDED SUBROUTINE, CALLED 2 TIMES, CODE SIZE REDUCTION:2 WORDS
                 SUBOPT_0x11:
0013c4 01df      	MOVW R26,R30
0013c5 0faa      	LSL  R26
0013c6 1fbb      	ROL  R27
                +
0013c7 5da9     +SUBI R26 , LOW ( - _data - ( 6 ) )
0013c8 4fb7     +SBCI R27 , HIGH ( - _data - ( 6 ) )
                 	__ADDW2MN _data,6
0013c9 940e 1697 	CALL __GETW1P
0013cb 9508      	RET
                 
                 ;OPTIMIZER ADDED SUBROUTINE, CALLED 2 TIMES, CODE SIZE REDUCTION:6 WORDS
                 SUBOPT_0x12:
0013cc 940e 1697 	CALL __GETW1P
0013ce 91a0 085a 	LDS  R26,_temp
0013d0 91b0 085b 	LDS  R27,_temp+1
0013d2 0fea      	ADD  R30,R26
0013d3 1ffb      	ADC  R31,R27
0013d4 01db      	MOVW R26,R22
0013d5 93ed      	ST   X+,R30
0013d6 93fc      	ST   X,R31
0013d7 9508      	RET
                 
                 ;OPTIMIZER ADDED SUBROUTINE, CALLED 13 TIMES, CODE SIZE REDUCTION:33 WORDS
                 SUBOPT_0x13:
0013d8 e0e0      	LDI  R30,LOW(0)
0013d9 93ea      	ST   -Y,R30
0013da e0a1      	LDI  R26,LOW(1)
0013db 940c 12a6 	JMP  _lcd_gotoxy
                 
                 ;OPTIMIZER ADDED SUBROUTINE, CALLED 2 TIMES, CODE SIZE REDUCTION:10 WORDS
                 SUBOPT_0x14:
0013dd e6e4      	LDI  R30,LOW(100)
0013de e0f0      	LDI  R31,HIGH(100)
0013df dfa5      	RCALL SUBOPT_0x7
0013e0 e6e4      	LDI  R30,LOW(100)
0013e1 e0f0      	LDI  R31,HIGH(100)
0013e2 dfa7      	RCALL SUBOPT_0x8
0013e3 940e 12ba 	CALL _lcd_clear
0013e5 91e0 079c 	LDS  R30,_engine_dir
0013e7 91f0 079d 	LDS  R31,_engine_dir+1
0013e9 9730      	SBIW R30,0
0013ea 9508      	RET
                 
                 ;OPTIMIZER ADDED SUBROUTINE, CALLED 2 TIMES, CODE SIZE REDUCTION:11 WORDS
                 SUBOPT_0x15:
0013eb 940e 12f6 	CALL _lcd_puts
0013ed 91e0 0869 	LDS  R30,_wheelEncoderCounter_left
0013ef 91f0 086a 	LDS  R31,_wheelEncoderCounter_left+1
0013f1 93fa      	ST   -Y,R31
0013f2 93ea      	ST   -Y,R30
0013f3 01de      	MOVW R26,R28
0013f4 9612      	ADIW R26,2
0013f5 940e 1080 	CALL _itoa
0013f7 01de      	MOVW R26,R28
0013f8 940c 12f6 	JMP  _lcd_puts
                 
                 ;OPTIMIZER ADDED SUBROUTINE, CALLED 2 TIMES, CODE SIZE REDUCTION:11 WORDS
                 SUBOPT_0x16:
0013fa 940e 12f6 	CALL _lcd_puts
0013fc 91e0 086b 	LDS  R30,_wheelEncoderCounter_right
0013fe 91f0 086c 	LDS  R31,_wheelEncoderCounter_right+1
001400 93fa      	ST   -Y,R31
001401 93ea      	ST   -Y,R30
001402 01de      	MOVW R26,R28
001403 9612      	ADIW R26,2
001404 940e 1080 	CALL _itoa
001406 01de      	MOVW R26,R28
001407 940c 12f6 	JMP  _lcd_puts
                 
                 ;OPTIMIZER ADDED SUBROUTINE, CALLED 2 TIMES, CODE SIZE REDUCTION:10 WORDS
                 SUBOPT_0x17:
001409 efaa      	LDI  R26,LOW(250)
00140a e0b0      	LDI  R27,0
00140b 940e 1543 	CALL _delay_ms
00140d 91e0 079c 	LDS  R30,_engine_dir
00140f 91f0 079d 	LDS  R31,_engine_dir+1
001411 940e 1677 	CALL __LNEGW1
001413 e0f0      	LDI  R31,0
001414 93e0 079c 	STS  _engine_dir,R30
001416 93f0 079d 	STS  _engine_dir+1,R31
001418 9508      	RET
                 
                 ;OPTIMIZER ADDED SUBROUTINE, CALLED 2 TIMES, CODE SIZE REDUCTION:1 WORDS
                 SUBOPT_0x18:
001419 01de      	MOVW R26,R28
00141a 9616      	ADIW R26,6
00141b 940e 1080 	CALL _itoa
00141d 01de      	MOVW R26,R28
00141e 9614      	ADIW R26,4
00141f 9508      	RET
                 
                 ;OPTIMIZER ADDED SUBROUTINE, CALLED 4 TIMES, CODE SIZE REDUCTION:21 WORDS
                 SUBOPT_0x19:
001420 2fe1      	MOV  R30,R17
001421 e4a6      	LDI  R26,LOW(_x)
001422 e0b8      	LDI  R27,HIGH(_x)
001423 e0f0      	LDI  R31,0
001424 0fee      	LSL  R30
001425 1fff      	ROL  R31
001426 0fae      	ADD  R26,R30
001427 1fbf      	ADC  R27,R31
001428 940e 1697 	CALL __GETW1P
00142a 9508      	RET
                 
                 ;OPTIMIZER ADDED SUBROUTINE, CALLED 4 TIMES, CODE SIZE REDUCTION:21 WORDS
                 SUBOPT_0x1A:
00142b 2fe1      	MOV  R30,R17
00142c e4ae      	LDI  R26,LOW(_y)
00142d e0b8      	LDI  R27,HIGH(_y)
00142e e0f0      	LDI  R31,0
00142f 0fee      	LSL  R30
001430 1fff      	ROL  R31
001431 0fae      	ADD  R26,R30
001432 1fbf      	ADC  R27,R31
001433 940e 1697 	CALL __GETW1P
001435 9508      	RET
                 
                 ;OPTIMIZER ADDED SUBROUTINE, CALLED 2 TIMES, CODE SIZE REDUCTION:3 WORDS
                 SUBOPT_0x1B:
001436 50e0      	SUBI R30,LOW(512)
001437 40f2      	SBCI R31,HIGH(512)
001438 93fa      	ST   -Y,R31
001439 93ea      	ST   -Y,R30
00143a e4a1      	LDI  R26,LOW(_Wert)
00143b e0b8      	LDI  R27,HIGH(_Wert)
00143c 940c 1080 	JMP  _itoa
                 
                 ;OPTIMIZER ADDED SUBROUTINE, CALLED 3 TIMES, CODE SIZE REDUCTION:7 WORDS
                 SUBOPT_0x1C:
00143e e0a0      	LDI  R26,LOW(0)
00143f 940e 12a6 	CALL _lcd_gotoxy
001441 e4a1      	LDI  R26,LOW(_Wert)
001442 e0b8      	LDI  R27,HIGH(_Wert)
001443 940c 12f6 	JMP  _lcd_puts
                 
                 ;OPTIMIZER ADDED SUBROUTINE, CALLED 2 TIMES, CODE SIZE REDUCTION:3 WORDS
                 SUBOPT_0x1D:
001445 57e6      	SUBI R30,LOW(374)
001446 40f1      	SBCI R31,HIGH(374)
001447 93fa      	ST   -Y,R31
001448 93ea      	ST   -Y,R30
001449 e4a1      	LDI  R26,LOW(_Wert)
00144a e0b8      	LDI  R27,HIGH(_Wert)
00144b 940c 1080 	JMP  _itoa
                 
                 ;OPTIMIZER ADDED SUBROUTINE, CALLED 2 TIMES, CODE SIZE REDUCTION:7 WORDS
                 SUBOPT_0x1E:
00144d 2fe1      	MOV  R30,R17
00144e e0f0      	LDI  R31,0
00144f 5aea      	SUBI R30,LOW(-_sWIICAM)
001450 4ff7      	SBCI R31,HIGH(-_sWIICAM)
001451 81e0      	LD   R30,Z
001452 e0f0      	LDI  R31,0
001453 93fa      	ST   -Y,R31
001454 93ea      	ST   -Y,R30
001455 e4a1      	LDI  R26,LOW(_Wert)
001456 e0b8      	LDI  R27,HIGH(_Wert)
001457 940c 1080 	JMP  _itoa
                 
                 ;OPTIMIZER ADDED SUBROUTINE, CALLED 3 TIMES, CODE SIZE REDUCTION:7 WORDS
                 SUBOPT_0x1F:
001459 e0a1      	LDI  R26,LOW(1)
00145a 940e 12a6 	CALL _lcd_gotoxy
00145c e4a1      	LDI  R26,LOW(_Wert)
00145d e0b8      	LDI  R27,HIGH(_Wert)
00145e 940c 12f6 	JMP  _lcd_puts
                 
                 ;OPTIMIZER ADDED SUBROUTINE, CALLED 3 TIMES, CODE SIZE REDUCTION:25 WORDS
                 SUBOPT_0x20:
001460 91e0 081d 	LDS  R30,_iTime
001462 91f0 081e 	LDS  R31,_iTime+1
001464 2766      	CLR  R22
001465 2777      	CLR  R23
001466 940e 15b3 	CALL __CDF1
001468 01df      	MOVW R26,R30
001469 01cb      	MOVW R24,R22
                +
00146a eced     +LDI R30 , LOW ( 0x4250CCCD )
00146b ecfc     +LDI R31 , HIGH ( 0x4250CCCD )
00146c e560     +LDI R22 , BYTE3 ( 0x4250CCCD )
00146d e472     +LDI R23 , BYTE4 ( 0x4250CCCD )
                 	__GETD1N 0x4250CCCD
00146e 940e 15e1 	CALL __DIVF21
001470 9508      	RET
                 
                 ;OPTIMIZER ADDED SUBROUTINE, CALLED 5 TIMES, CODE SIZE REDUCTION:21 WORDS
                 SUBOPT_0x21:
001471 e6e4      	LDI  R30,LOW(100)
001472 e0f0      	LDI  R31,HIGH(100)
001473 df11      	RCALL SUBOPT_0x7
001474 e6e4      	LDI  R30,LOW(100)
001475 e0f0      	LDI  R31,HIGH(100)
001476 cf13      	RJMP SUBOPT_0x8
                 
                 ;OPTIMIZER ADDED SUBROUTINE, CALLED 3 TIMES, CODE SIZE REDUCTION:11 WORDS
                 SUBOPT_0x22:
001477 e0e0      	LDI  R30,LOW(0)
001478 93e0 07cb 	STS  _ipwmcompareleft,R30
00147a 93e0 07cc 	STS  _ipwmcompareleft+1,R30
00147c e6e4      	LDI  R30,LOW(100)
00147d e0f0      	LDI  R31,HIGH(100)
00147e cf0b      	RJMP SUBOPT_0x8
                 
                 ;OPTIMIZER ADDED SUBROUTINE, CALLED 3 TIMES, CODE SIZE REDUCTION:11 WORDS
                 SUBOPT_0x23:
00147f e6e4      	LDI  R30,LOW(100)
001480 e0f0      	LDI  R31,HIGH(100)
001481 df03      	RCALL SUBOPT_0x7
001482 e0e0      	LDI  R30,LOW(0)
001483 93e0 07cd 	STS  _ipwmcompareright,R30
001485 93e0 07ce 	STS  _ipwmcompareright+1,R30
001487 9508      	RET
                 
                 ;OPTIMIZER ADDED SUBROUTINE, CALLED 2 TIMES, CODE SIZE REDUCTION:1 WORDS
                 SUBOPT_0x24:
001488 98df      	CBI  0x1B,7
001489 9add      	SBI  0x1B,5
00148a 940e 12ba 	CALL _lcd_clear
00148c cf4b      	RJMP SUBOPT_0x13
                 
                 ;OPTIMIZER ADDED SUBROUTINE, CALLED 7 TIMES, CODE SIZE REDUCTION:81 WORDS
                 SUBOPT_0x25:
00148d 940e 12f6 	CALL _lcd_puts
00148f 91e0 0869 	LDS  R30,_wheelEncoderCounter_left
001491 91f0 086a 	LDS  R31,_wheelEncoderCounter_left+1
001493 93fa      	ST   -Y,R31
001494 93ea      	ST   -Y,R30
001495 eaa0      	LDI  R26,LOW(_str)
001496 e0b7      	LDI  R27,HIGH(_str)
001497 940e 1080 	CALL _itoa
001499 eaa0      	LDI  R26,LOW(_str)
00149a e0b7      	LDI  R27,HIGH(_str)
00149b 940c 12f6 	JMP  _lcd_puts
                 
                 ;OPTIMIZER ADDED SUBROUTINE, CALLED 7 TIMES, CODE SIZE REDUCTION:81 WORDS
                 SUBOPT_0x26:
00149d 940e 12f6 	CALL _lcd_puts
00149f 91e0 086b 	LDS  R30,_wheelEncoderCounter_right
0014a1 91f0 086c 	LDS  R31,_wheelEncoderCounter_right+1
0014a3 93fa      	ST   -Y,R31
0014a4 93ea      	ST   -Y,R30
0014a5 eaa0      	LDI  R26,LOW(_str)
0014a6 e0b7      	LDI  R27,HIGH(_str)
0014a7 940e 1080 	CALL _itoa
0014a9 eaa0      	LDI  R26,LOW(_str)
0014aa e0b7      	LDI  R27,HIGH(_str)
0014ab 940c 12f6 	JMP  _lcd_puts
                 
                 ;OPTIMIZER ADDED SUBROUTINE, CALLED 3 TIMES, CODE SIZE REDUCTION:5 WORDS
                 SUBOPT_0x27:
0014ad 9adf      	SBI  0x1B,7
0014ae 98dd      	CBI  0x1B,5
0014af 940e 12ba 	CALL _lcd_clear
0014b1 cf26      	RJMP SUBOPT_0x13
                 
                 ;OPTIMIZER ADDED SUBROUTINE, CALLED 61 TIMES, CODE SIZE REDUCTION:117 WORDS
                 SUBOPT_0x28:
0014b2 93e0 086d 	STS  _detector_value,R30
0014b4 93f0 086e 	STS  _detector_value+1,R31
0014b6 9508      	RET
                 
                 ;OPTIMIZER ADDED SUBROUTINE, CALLED 25 TIMES, CODE SIZE REDUCTION:45 WORDS
                 SUBOPT_0x29:
0014b7 e6e4      	LDI  R30,LOW(100)
0014b8 e0f0      	LDI  R31,HIGH(100)
0014b9 93fa      	ST   -Y,R31
0014ba 93ea      	ST   -Y,R30
0014bb 9508      	RET
                 
                 ;OPTIMIZER ADDED SUBROUTINE, CALLED 4 TIMES, CODE SIZE REDUCTION:6 WORDS
                 SUBOPT_0x2A:
0014bc e0e0      	LDI  R30,LOW(0)
0014bd e0f0      	LDI  R31,HIGH(0)
0014be 93fa      	ST   -Y,R31
0014bf 93ea      	ST   -Y,R30
0014c0 e0a0      	LDI  R26,LOW(0)
0014c1 9508      	RET
                 
                 ;OPTIMIZER ADDED SUBROUTINE, CALLED 4 TIMES, CODE SIZE REDUCTION:3 WORDS
                 SUBOPT_0x2B:
0014c2 e4e6      	LDI  R30,LOW(70)
0014c3 e0f0      	LDI  R31,HIGH(70)
0014c4 93fa      	ST   -Y,R31
0014c5 93ea      	ST   -Y,R30
0014c6 9508      	RET
                 
                 ;OPTIMIZER ADDED SUBROUTINE, CALLED 7 TIMES, CODE SIZE REDUCTION:9 WORDS
                 SUBOPT_0x2C:
0014c7 e5e0      	LDI  R30,LOW(80)
0014c8 e0f0      	LDI  R31,HIGH(80)
0014c9 93fa      	ST   -Y,R31
0014ca 93ea      	ST   -Y,R30
0014cb 9508      	RET
                 
                 ;OPTIMIZER ADDED SUBROUTINE, CALLED 3 TIMES, CODE SIZE REDUCTION:1 WORDS
                 SUBOPT_0x2D:
0014cc e5ea      	LDI  R30,LOW(90)
0014cd e0f0      	LDI  R31,HIGH(90)
0014ce 93fa      	ST   -Y,R31
0014cf 93ea      	ST   -Y,R30
0014d0 9508      	RET
                 
                 ;OPTIMIZER ADDED SUBROUTINE, CALLED 3 TIMES, CODE SIZE REDUCTION:9 WORDS
                 SUBOPT_0x2E:
0014d1 98d9      	CBI  0x1B,1
0014d2 98db      	CBI  0x1B,3
0014d3 eea8      	LDI  R26,LOW(1000)
0014d4 e0b3      	LDI  R27,HIGH(1000)
0014d5 940e 1543 	CALL _delay_ms
0014d7 cea2      	RJMP SUBOPT_0x5
                 
                 ;OPTIMIZER ADDED SUBROUTINE, CALLED 2 TIMES, CODE SIZE REDUCTION:1 WORDS
                 SUBOPT_0x2F:
0014d8 98df      	CBI  0x1B,7
0014d9 98dd      	CBI  0x1B,5
0014da 940e 12ba 	CALL _lcd_clear
0014dc cefb      	RJMP SUBOPT_0x13
                 
                 ;OPTIMIZER ADDED SUBROUTINE, CALLED 19 TIMES, CODE SIZE REDUCTION:159 WORDS
                 SUBOPT_0x30:
0014dd 940e 12f6 	CALL _lcd_puts
0014df eea8      	LDI  R26,LOW(1000)
0014e0 e0b3      	LDI  R27,HIGH(1000)
0014e1 940e 1543 	CALL _delay_ms
0014e3 940e 12ba 	CALL _lcd_clear
0014e5 e0e1      	LDI  R30,LOW(1)
0014e6 e0f0      	LDI  R31,HIGH(1)
0014e7 016f      	MOVW R12,R30
0014e8 9508      	RET
                 
                 ;OPTIMIZER ADDED SUBROUTINE, CALLED 3 TIMES, CODE SIZE REDUCTION:3 WORDS
                 SUBOPT_0x31:
0014e9 940e 1318 	CALL __long_delay_G104
0014eb e3a0      	LDI  R26,LOW(48)
0014ec 940c 131d 	JMP  __lcd_init_write_G104
                 
                 ;OPTIMIZER ADDED SUBROUTINE, CALLED 3 TIMES, CODE SIZE REDUCTION:1 WORDS
                 SUBOPT_0x32:
0014ee 940e 1285 	CALL __lcd_write_data
0014f0 940c 1318 	JMP  __long_delay_G104
                 
                 
                 	.CSEG
                 	.equ __sda_bit=5
                 	.equ __scl_bit=3
                 	.equ __i2c_port=0x18 ;PORTB
                 	.equ __i2c_dir=__i2c_port-1
                 	.equ __i2c_pin=__i2c_port-2
                 
                 _i2c_init:
0014f2 98c3      	cbi  __i2c_port,__scl_bit
0014f3 98c5      	cbi  __i2c_port,__sda_bit
0014f4 9abb      	sbi  __i2c_dir,__scl_bit
0014f5 98bd      	cbi  __i2c_dir,__sda_bit
0014f6 c015      	rjmp __i2c_delay2
                 _i2c_start:
0014f7 98bd      	cbi  __i2c_dir,__sda_bit
0014f8 98bb      	cbi  __i2c_dir,__scl_bit
0014f9 27ee      	clr  r30
0014fa 0000      	nop
0014fb 9bb5      	sbis __i2c_pin,__sda_bit
0014fc 9508      	ret
0014fd 9bb3      	sbis __i2c_pin,__scl_bit
0014fe 9508      	ret
0014ff d004      	rcall __i2c_delay1
001500 9abd      	sbi  __i2c_dir,__sda_bit
001501 d002      	rcall __i2c_delay1
001502 9abb      	sbi  __i2c_dir,__scl_bit
001503 e0e1      	ldi  r30,1
                 __i2c_delay1:
001504 e16b      	ldi  r22,27
001505 c007      	rjmp __i2c_delay2l
                 _i2c_stop:
001506 9abd      	sbi  __i2c_dir,__sda_bit
001507 9abb      	sbi  __i2c_dir,__scl_bit
001508 d003      	rcall __i2c_delay2
001509 98bb      	cbi  __i2c_dir,__scl_bit
00150a dff9      	rcall __i2c_delay1
00150b 98bd      	cbi  __i2c_dir,__sda_bit
                 __i2c_delay2:
00150c e365      	ldi  r22,53
                 __i2c_delay2l:
00150d 956a      	dec  r22
00150e f7f1      	brne __i2c_delay2l
00150f 9508      	ret
                 _i2c_read:
001510 e078      	ldi  r23,8
                 __i2c_read0:
001511 98bb      	cbi  __i2c_dir,__scl_bit
001512 dff1      	rcall __i2c_delay1
                 __i2c_read3:
001513 9bb3      	sbis __i2c_pin,__scl_bit
001514 cffe      	rjmp __i2c_read3
001515 dfee      	rcall __i2c_delay1
001516 9488      	clc
001517 99b5      	sbic __i2c_pin,__sda_bit
001518 9408      	sec
001519 9abb      	sbi  __i2c_dir,__scl_bit
00151a dff1      	rcall __i2c_delay2
00151b 1fee      	rol  r30
00151c 957a      	dec  r23
00151d f799      	brne __i2c_read0
00151e 2f7a      	mov  r23,r26
00151f 2377      	tst  r23
001520 f411      	brne __i2c_read1
001521 98bd      	cbi  __i2c_dir,__sda_bit
001522 c001      	rjmp __i2c_read2
                 __i2c_read1:
001523 9abd      	sbi  __i2c_dir,__sda_bit
                 __i2c_read2:
001524 dfdf      	rcall __i2c_delay1
001525 98bb      	cbi  __i2c_dir,__scl_bit
001526 dfe5      	rcall __i2c_delay2
001527 9abb      	sbi  __i2c_dir,__scl_bit
001528 dfdb      	rcall __i2c_delay1
001529 98bd      	cbi  __i2c_dir,__sda_bit
00152a cfd9      	rjmp __i2c_delay1
                 
                 _i2c_write:
00152b e078      	ldi  r23,8
                 __i2c_write0:
00152c 0faa      	lsl  r26
00152d f410      	brcc __i2c_write1
00152e 98bd      	cbi  __i2c_dir,__sda_bit
00152f c001      	rjmp __i2c_write2
                 __i2c_write1:
001530 9abd      	sbi  __i2c_dir,__sda_bit
                 __i2c_write2:
001531 dfda      	rcall __i2c_delay2
001532 98bb      	cbi  __i2c_dir,__scl_bit
001533 dfd0      	rcall __i2c_delay1
                 __i2c_write3:
001534 9bb3      	sbis __i2c_pin,__scl_bit
001535 cffe      	rjmp __i2c_write3
001536 dfcd      	rcall __i2c_delay1
001537 9abb      	sbi  __i2c_dir,__scl_bit
001538 957a      	dec  r23
001539 f791      	brne __i2c_write0
00153a 98bd      	cbi  __i2c_dir,__sda_bit
00153b dfc8      	rcall __i2c_delay1
00153c 98bb      	cbi  __i2c_dir,__scl_bit
00153d dfce      	rcall __i2c_delay2
00153e e0e1      	ldi  r30,1
00153f 99b5      	sbic __i2c_pin,__sda_bit
001540 27ee      	clr  r30
001541 9abb      	sbi  __i2c_dir,__scl_bit
001542 cfc1      	rjmp __i2c_delay1
                 
                 _delay_ms:
001543 9610      	adiw r26,0
001544 f039      	breq __delay_ms1
                 __delay_ms0:
                +
001545 ea80     +LDI R24 , LOW ( 0xFA0 )
001546 e09f     +LDI R25 , HIGH ( 0xFA0 )
                +__DELAY_USW_LOOP :
001547 9701     +SBIW R24 , 1
001548 f7f1     +BRNE __DELAY_USW_LOOP
                 	__DELAY_USW 0xFA0
001549 95a8      	wdr
00154a 9711      	sbiw r26,1
00154b f7c9      	brne __delay_ms0
                 __delay_ms1:
00154c 9508      	ret
                 
                 __ROUND_REPACK:
00154d 2355      	TST  R21
00154e f442      	BRPL __REPACK
00154f 3850      	CPI  R21,0x80
001550 f411      	BRNE __ROUND_REPACK0
001551 ffe0      	SBRS R30,0
001552 c004      	RJMP __REPACK
                 __ROUND_REPACK0:
001553 9631      	ADIW R30,1
001554 1f69      	ADC  R22,R25
001555 1f79      	ADC  R23,R25
001556 f06b      	BRVS __REPACK1
                 
                 __REPACK:
001557 e850      	LDI  R21,0x80
001558 2757      	EOR  R21,R23
001559 f411      	BRNE __REPACK0
00155a 935f      	PUSH R21
00155b c073      	RJMP __ZERORES
                 __REPACK0:
00155c 3f5f      	CPI  R21,0xFF
00155d f031      	BREQ __REPACK1
00155e 0f66      	LSL  R22
00155f 0c00      	LSL  R0
001560 9557      	ROR  R21
001561 9567      	ROR  R22
001562 2f75      	MOV  R23,R21
001563 9508      	RET
                 __REPACK1:
001564 935f      	PUSH R21
001565 2000      	TST  R0
001566 f00a      	BRMI __REPACK2
001567 c073      	RJMP __MAXRES
                 __REPACK2:
001568 c06c      	RJMP __MINRES
                 
                 __UNPACK:
001569 e850      	LDI  R21,0x80
00156a 2e19      	MOV  R1,R25
00156b 2215      	AND  R1,R21
00156c 0f88      	LSL  R24
00156d 1f99      	ROL  R25
00156e 2795      	EOR  R25,R21
00156f 0f55      	LSL  R21
001570 9587      	ROR  R24
                 
                 __UNPACK1:
001571 e850      	LDI  R21,0x80
001572 2e07      	MOV  R0,R23
001573 2205      	AND  R0,R21
001574 0f66      	LSL  R22
001575 1f77      	ROL  R23
001576 2775      	EOR  R23,R21
001577 0f55      	LSL  R21
001578 9567      	ROR  R22
001579 9508      	RET
                 
                 __CFD1U:
00157a 9468      	SET
00157b c001      	RJMP __CFD1U0
                 __CFD1:
00157c 94e8      	CLT
                 __CFD1U0:
00157d 935f      	PUSH R21
00157e dff2      	RCALL __UNPACK1
00157f 3870      	CPI  R23,0x80
001580 f018      	BRLO __CFD10
001581 3f7f      	CPI  R23,0xFF
001582 f408      	BRCC __CFD10
001583 c04b      	RJMP __ZERORES
                 __CFD10:
001584 e156      	LDI  R21,22
001585 1b57      	SUB  R21,R23
001586 f4aa      	BRPL __CFD11
001587 9551      	NEG  R21
001588 3058      	CPI  R21,8
001589 f40e      	BRTC __CFD19
00158a 3059      	CPI  R21,9
                 __CFD19:
00158b f030      	BRLO __CFD17
00158c efef      	SER  R30
00158d efff      	SER  R31
00158e ef6f      	SER  R22
00158f e77f      	LDI  R23,0x7F
001590 f977      	BLD  R23,7
001591 c01a      	RJMP __CFD15
                 __CFD17:
001592 2777      	CLR  R23
001593 2355      	TST  R21
001594 f0b9      	BREQ __CFD15
                 __CFD18:
001595 0fee      	LSL  R30
001596 1fff      	ROL  R31
001597 1f66      	ROL  R22
001598 1f77      	ROL  R23
001599 955a      	DEC  R21
00159a f7d1      	BRNE __CFD18
00159b c010      	RJMP __CFD15
                 __CFD11:
00159c 2777      	CLR  R23
                 __CFD12:
00159d 3058      	CPI  R21,8
00159e f028      	BRLO __CFD13
00159f 2fef      	MOV  R30,R31
0015a0 2ff6      	MOV  R31,R22
0015a1 2f67      	MOV  R22,R23
0015a2 5058      	SUBI R21,8
0015a3 cff9      	RJMP __CFD12
                 __CFD13:
0015a4 2355      	TST  R21
0015a5 f031      	BREQ __CFD15
                 __CFD14:
0015a6 9576      	LSR  R23
0015a7 9567      	ROR  R22
0015a8 95f7      	ROR  R31
0015a9 95e7      	ROR  R30
0015aa 955a      	DEC  R21
0015ab f7d1      	BRNE __CFD14
                 __CFD15:
0015ac 2000      	TST  R0
0015ad f40a      	BRPL __CFD16
0015ae d09b      	RCALL __ANEGD1
                 __CFD16:
0015af 915f      	POP  R21
0015b0 9508      	RET
                 
                 __CDF1U:
0015b1 9468      	SET
0015b2 c001      	RJMP __CDF1U0
                 __CDF1:
0015b3 94e8      	CLT
                 __CDF1U0:
0015b4 9730      	SBIW R30,0
0015b5 4060      	SBCI R22,0
0015b6 4070      	SBCI R23,0
0015b7 f0b1      	BREQ __CDF10
0015b8 2400      	CLR  R0
0015b9 f026      	BRTS __CDF11
0015ba 2377      	TST  R23
0015bb f412      	BRPL __CDF11
0015bc 9400      	COM  R0
0015bd d08c      	RCALL __ANEGD1
                 __CDF11:
0015be 2e17      	MOV  R1,R23
0015bf e17e      	LDI  R23,30
0015c0 2011      	TST  R1
                 __CDF12:
0015c1 f032      	BRMI __CDF13
0015c2 957a      	DEC  R23
0015c3 0fee      	LSL  R30
0015c4 1fff      	ROL  R31
0015c5 1f66      	ROL  R22
0015c6 1c11      	ROL  R1
0015c7 cff9      	RJMP __CDF12
                 __CDF13:
0015c8 2fef      	MOV  R30,R31
0015c9 2ff6      	MOV  R31,R22
0015ca 2d61      	MOV  R22,R1
0015cb 935f      	PUSH R21
0015cc df8a      	RCALL __REPACK
0015cd 915f      	POP  R21
                 __CDF10:
0015ce 9508      	RET
                 
                 __ZERORES:
0015cf 27ee      	CLR  R30
0015d0 27ff      	CLR  R31
0015d1 2766      	CLR  R22
0015d2 2777      	CLR  R23
0015d3 915f      	POP  R21
0015d4 9508      	RET
                 
                 __MINRES:
0015d5 efef      	SER  R30
0015d6 efff      	SER  R31
0015d7 e76f      	LDI  R22,0x7F
0015d8 ef7f      	SER  R23
0015d9 915f      	POP  R21
0015da 9508      	RET
                 
                 __MAXRES:
0015db efef      	SER  R30
0015dc efff      	SER  R31
0015dd e76f      	LDI  R22,0x7F
0015de e77f      	LDI  R23,0x7F
0015df 915f      	POP  R21
0015e0 9508      	RET
                 
                 __DIVF21:
0015e1 935f      	PUSH R21
0015e2 df86      	RCALL __UNPACK
0015e3 3870      	CPI  R23,0x80
0015e4 f421      	BRNE __DIVF210
0015e5 2011      	TST  R1
                 __DIVF211:
0015e6 f40a      	BRPL __DIVF219
0015e7 cfed      	RJMP __MINRES
                 __DIVF219:
0015e8 cff2      	RJMP __MAXRES
                 __DIVF210:
0015e9 3890      	CPI  R25,0x80
0015ea f409      	BRNE __DIVF218
                 __DIVF217:
0015eb cfe3      	RJMP __ZERORES
                 __DIVF218:
0015ec 2401      	EOR  R0,R1
0015ed 9408      	SEC
0015ee 0b97      	SBC  R25,R23
0015ef f41b      	BRVC __DIVF216
0015f0 f3d4      	BRLT __DIVF217
0015f1 2000      	TST  R0
0015f2 cff3      	RJMP __DIVF211
                 __DIVF216:
0015f3 2f79      	MOV  R23,R25
0015f4 931f      	PUSH R17
0015f5 932f      	PUSH R18
0015f6 933f      	PUSH R19
0015f7 934f      	PUSH R20
0015f8 2411      	CLR  R1
0015f9 2711      	CLR  R17
0015fa 2722      	CLR  R18
0015fb 2733      	CLR  R19
0015fc 2744      	CLR  R20
0015fd 2755      	CLR  R21
0015fe e290      	LDI  R25,32
                 __DIVF212:
0015ff 17ae      	CP   R26,R30
001600 07bf      	CPC  R27,R31
001601 0786      	CPC  R24,R22
001602 0741      	CPC  R20,R17
001603 f030      	BRLO __DIVF213
001604 1bae      	SUB  R26,R30
001605 0bbf      	SBC  R27,R31
001606 0b86      	SBC  R24,R22
001607 0b41      	SBC  R20,R17
001608 9408      	SEC
001609 c001      	RJMP __DIVF214
                 __DIVF213:
00160a 9488      	CLC
                 __DIVF214:
00160b 1f55      	ROL  R21
00160c 1f22      	ROL  R18
00160d 1f33      	ROL  R19
00160e 1c11      	ROL  R1
00160f 1faa      	ROL  R26
001610 1fbb      	ROL  R27
001611 1f88      	ROL  R24
001612 1f44      	ROL  R20
001613 959a      	DEC  R25
001614 f751      	BRNE __DIVF212
001615 01f9      	MOVW R30,R18
001616 2d61      	MOV  R22,R1
001617 914f      	POP  R20
001618 913f      	POP  R19
001619 912f      	POP  R18
00161a 911f      	POP  R17
00161b 2366      	TST  R22
00161c f032      	BRMI __DIVF215
00161d 0f55      	LSL  R21
00161e 1fee      	ROL  R30
00161f 1fff      	ROL  R31
001620 1f66      	ROL  R22
001621 957a      	DEC  R23
001622 f243      	BRVS __DIVF217
                 __DIVF215:
001623 df29      	RCALL __ROUND_REPACK
001624 915f      	POP  R21
001625 9508      	RET
                 
                 __CMPF12:
001626 2399      	TST  R25
001627 f09a      	BRMI __CMPF120
001628 2377      	TST  R23
001629 f042      	BRMI __CMPF121
00162a 1797      	CP   R25,R23
00162b f048      	BRLO __CMPF122
00162c f429      	BRNE __CMPF121
00162d 17ae      	CP   R26,R30
00162e 07bf      	CPC  R27,R31
00162f 0786      	CPC  R24,R22
001630 f020      	BRLO __CMPF122
001631 f031      	BREQ __CMPF123
                 __CMPF121:
001632 9498      	CLZ
001633 9488      	CLC
001634 9508      	RET
                 __CMPF122:
001635 9498      	CLZ
001636 9408      	SEC
001637 9508      	RET
                 __CMPF123:
001638 9418      	SEZ
001639 9488      	CLC
00163a 9508      	RET
                 __CMPF120:
00163b 2377      	TST  R23
00163c f7c2      	BRPL __CMPF122
00163d 1797      	CP   R25,R23
00163e f398      	BRLO __CMPF121
00163f f7a9      	BRNE __CMPF122
001640 17ea      	CP   R30,R26
001641 07fb      	CPC  R31,R27
001642 0768      	CPC  R22,R24
001643 f388      	BRLO __CMPF122
001644 f399      	BREQ __CMPF123
001645 cfec      	RJMP __CMPF121
                 
                 __ANEGW1:
001646 95f1      	NEG  R31
001647 95e1      	NEG  R30
001648 40f0      	SBCI R31,0
001649 9508      	RET
                 
                 __ANEGD1:
00164a 95f0      	COM  R31
00164b 9560      	COM  R22
00164c 9570      	COM  R23
00164d 95e1      	NEG  R30
00164e 4fff      	SBCI R31,-1
00164f 4f6f      	SBCI R22,-1
001650 4f7f      	SBCI R23,-1
001651 9508      	RET
                 
                 __LSRW12:
001652 23ee      	TST  R30
001653 2e0e      	MOV  R0,R30
001654 01fd      	MOVW R30,R26
001655 f021      	BREQ __LSRW12R
                 __LSRW12L:
001656 95f6      	LSR  R31
001657 95e7      	ROR  R30
001658 940a      	DEC  R0
001659 f7e1      	BRNE __LSRW12L
                 __LSRW12R:
00165a 9508      	RET
                 
                 __LSLW4:
00165b 0fee      	LSL  R30
00165c 1fff      	ROL  R31
                 __LSLW3:
00165d 0fee      	LSL  R30
00165e 1fff      	ROL  R31
                 __LSLW2:
00165f 0fee      	LSL  R30
001660 1fff      	ROL  R31
001661 0fee      	LSL  R30
001662 1fff      	ROL  R31
001663 9508      	RET
                 
                 __LSRW4:
001664 95f6      	LSR  R31
001665 95e7      	ROR  R30
                 __LSRW3:
001666 95f6      	LSR  R31
001667 95e7      	ROR  R30
                 __LSRW2:
001668 95f6      	LSR  R31
001669 95e7      	ROR  R30
00166a 95f6      	LSR  R31
00166b 95e7      	ROR  R30
00166c 9508      	RET
                 
                 __CWD1:
00166d 2f6f      	MOV  R22,R31
00166e 0f66      	ADD  R22,R22
00166f 0b66      	SBC  R22,R22
001670 2f76      	MOV  R23,R22
001671 9508      	RET
                 
                 __LTB12U:
001672 17ae      	CP   R26,R30
001673 e0e1      	LDI  R30,1
001674 f008      	BRLO __LTB12U1
001675 27ee      	CLR  R30
                 __LTB12U1:
001676 9508      	RET
                 
                 __LNEGW1:
001677 2bef      	OR   R30,R31
001678 e0e1      	LDI  R30,1
001679 f009      	BREQ __LNEGW1F
00167a e0e0      	LDI  R30,0
                 __LNEGW1F:
00167b 9508      	RET
                 
                 __MULW12U:
00167c 9ffa      	MUL  R31,R26
00167d 2df0      	MOV  R31,R0
00167e 9feb      	MUL  R30,R27
00167f 0df0      	ADD  R31,R0
001680 9fea      	MUL  R30,R26
001681 2de0      	MOV  R30,R0
001682 0df1      	ADD  R31,R1
001683 9508      	RET
                 
                 __MULW12:
001684 d004      	RCALL __CHKSIGNW
001685 dff6      	RCALL __MULW12U
001686 f40e      	BRTC __MULW121
001687 dfbe      	RCALL __ANEGW1
                 __MULW121:
001688 9508      	RET
                 
                 __CHKSIGNW:
001689 94e8      	CLT
00168a fff7      	SBRS R31,7
00168b c002      	RJMP __CHKSW1
00168c dfb9      	RCALL __ANEGW1
00168d 9468      	SET
                 __CHKSW1:
00168e ffb7      	SBRS R27,7
00168f c006      	RJMP __CHKSW2
001690 95a0      	COM  R26
001691 95b0      	COM  R27
001692 9611      	ADIW R26,1
001693 f800      	BLD  R0,0
001694 9403      	INC  R0
001695 fa00      	BST  R0,0
                 __CHKSW2:
001696 9508      	RET
                 
                 __GETW1P:
001697 91ed      	LD   R30,X+
001698 91fc      	LD   R31,X
001699 9711      	SBIW R26,1
00169a 9508      	RET
                 
                 __SAVELOCR6:
00169b 935a      	ST   -Y,R21
                 __SAVELOCR5:
00169c 934a      	ST   -Y,R20
                 __SAVELOCR4:
00169d 933a      	ST   -Y,R19
                 __SAVELOCR3:
00169e 932a      	ST   -Y,R18
                 __SAVELOCR2:
00169f 931a      	ST   -Y,R17
0016a0 930a      	ST   -Y,R16
0016a1 9508      	RET
                 
                 __LOADLOCR6:
0016a2 815d      	LDD  R21,Y+5
                 __LOADLOCR5:
0016a3 814c      	LDD  R20,Y+4
                 __LOADLOCR4:
0016a4 813b      	LDD  R19,Y+3
                 __LOADLOCR3:
0016a5 812a      	LDD  R18,Y+2
                 __LOADLOCR2:
0016a6 8119      	LDD  R17,Y+1
0016a7 8108      	LD   R16,Y
0016a8 9508      	RET
                 
                 ;END OF CODE MARKER
                 __END_OF_CODE:


RESOURCE USE INFORMATION
------------------------

Notice:
The register and instruction counts are symbol table hit counts,
and hence implicitly used resources are not counted, eg, the
'lpm' instruction without operands implicitly uses r0 and z,
none of which are counted.

x,y,z are separate entities in the symbol table and are
counted separately from r26..r31 here.

.dseg memory usage only counts static data declared with .byte

ATmega128 register use summary:
r0 :  69 r1 :  15 r2 :  20 r3 :   0 r4 :   4 r5 :   1 r6 :  11 r7 :   3 
r8 :   2 r9 :   1 r10:   0 r11:   0 r12:  20 r13:  19 r14:   0 r15:   2 
r16:  33 r17:  57 r18:  26 r19:  13 r20:  12 r21:  42 r22:  63 r23:  48 
r24:  35 r25:  23 r26: 500 r27: 189 r28:  22 r29:   1 r30: 949 r31: 453 
x  :  32 y  : 219 z  :  10 
Registers used: 31 out of 35 (88.6%)

ATmega128 instruction use summary:
.lds  :   0 .lds.l:   0 .sts  :   0 .sts.l:   0 adc   :  14 add   :  16 
adiw  :  24 and   :   2 andi  :  35 asr   :   0 bclr  :   0 bld   :  14 
brbc  :   0 brbs  :   0 brcc  :   2 brcs  :   0 break :   0 breq  :  33 
brge  :   7 brhc  :   0 brhs  :   0 brid  :   0 brie  :   0 brlo  :  17 
brlt  :  12 brmi  :   5 brne  : 167 brpl  :   7 brsh  :  10 brtc  :   2 
brts  :   3 brvc  :   1 brvs  :   2 bset  :   0 bst   :   1 call  : 430 
cbi   :  44 cbr   :   0 clc   :   4 clh   :   0 cli   :   2 cln   :   0 
clr   :  25 cls   :   0 clt   :  10 clv   :   0 clz   :   2 com   :  10 
cp    :  22 cpc   : 111 cpi   : 152 cpse  :   0 dec   :  13 des   :   0 
elpm  :   0 eor   :   5 fmul  :   0 fmuls :   0 fmulsu:   0 icall :   4 
ijmp  :   0 in    :  15 inc   :   2 jmp   :  57 ld    :  60 ldd   :  36 
ldi   : 820 lds   : 158 lpm   :   9 lsl   :  24 lsr   :   6 mov   :  58 
movw  :  54 mul   :   3 muls  :   6 mulsu :   0 neg   :   4 nop   :   1 
or    :  24 ori   :  20 out   :  50 pop   :  14 push  :  13 rcall :  78 
ret   : 103 reti  :   5 rjmp  : 669 rol   :  33 ror   :  12 sbc   :   7 
sbci  :  17 sbi   :  38 sbic  : 205 sbis  : 188 sbiw  :  32 sbr   :   0 
sbrc  :   4 sbrs  :   8 sec   :   4 seh   :   0 sei   :   2 sen   :   0 
ser   :   9 ses   :   0 set   :  12 sev   :   0 sez   :   1 sleep :   0 
spm   :   0 st    : 153 std   :   4 sts   : 150 sub   :   4 subi  :  37 
swap  :   2 tst   :  16 wdr   :   1 
Instructions used: 82 out of 117 (70.1%)

ATmega128 memory use summary [bytes]:
Segment   Begin    End      Code   Data   Used    Size   Use%
---------------------------------------------------------------
[.cseg] 0x000000 0x002d52  10460   1142  11602  131072   8.9%
[.dseg] 0x000100 0x00088c      0    908    908    4096  22.2%
[.eseg] 0x000000 0x000000      0      0      0    4096   0.0%

Assembly complete, 0 errors, 16 warnings
